

Microchip MPLAB XC8 Assembler V2.46 build 20240104201356 
                                                                                               Sat Jun 22 11:48:39 2024

Microchip MPLAB XC8 C Compiler v2.46 (Free license) build 20240104201356 Og1 
     1                           	processor	18F4580
     2                           	fnconf	rparam,??,?,0
     3                           	pagewidth 120
     4                           	opt	flic
     5                           	psect	idataCOMRAM,global,class=CODE,delta=1,noexec
     6                           	psect	idataBANK0,global,class=CODE,delta=1,noexec
     7                           	psect	smallconst,global,reloc=2,class=SMALLCONST,delta=1,noexec
     8                           	psect	cinit,global,reloc=2,class=CODE,delta=1
     9                           	psect	bssCOMRAM,global,class=COMRAM,space=1,delta=1,lowdata,noexec
    10                           	psect	dataCOMRAM,global,class=COMRAM,space=1,delta=1,lowdata,noexec
    11                           	psect	dataBANK0,global,class=BANK0,space=1,delta=1,lowdata,noexec
    12                           	psect	bssBANK1,global,class=BANK1,space=1,delta=1,lowdata,noexec
    13                           	psect	cstackCOMRAM,global,class=COMRAM,space=1,delta=1,lowdata,noexec
    14                           	psect	text0,global,reloc=2,class=CODE,delta=1
    15                           	psect	text1,global,reloc=2,class=CODE,delta=1
    16                           	psect	text2,global,reloc=2,class=CODE,delta=1
    17                           	psect	text3,global,reloc=2,class=CODE,delta=1
    18                           	psect	text4,global,reloc=2,class=CODE,delta=1,group=3
    19                           	psect	text5,global,reloc=2,class=CODE,delta=1,group=1
    20                           	psect	text6,global,reloc=2,class=CODE,delta=1,group=1
    21                           	psect	text7,global,reloc=2,class=CODE,delta=1,group=3
    22                           	psect	text8,global,reloc=2,class=CODE,delta=1,group=3
    23                           	psect	text9,global,reloc=2,class=CODE,delta=1
    24                           	psect	text10,global,reloc=2,class=CODE,delta=1
    25                           	psect	text11,global,reloc=2,class=CODE,delta=1
    26                           	psect	text12,global,reloc=2,class=CODE,delta=1
    27                           	psect	text13,global,reloc=2,class=CODE,delta=1
    28                           	psect	text14,global,reloc=2,class=CODE,delta=1
    29                           	psect	text15,global,reloc=2,class=CODE,delta=1
    30                           	psect	text16,global,reloc=2,class=CODE,delta=1
    31                           	psect	text17,global,reloc=2,class=CODE,delta=1
    32                           	psect	text18,global,reloc=2,class=CODE,delta=1
    33                           	psect	text19,global,reloc=2,class=CODE,delta=1,group=3
    34                           	psect	text20,global,reloc=2,class=CODE,delta=1,group=3
    35                           	psect	text21,global,reloc=2,class=CODE,delta=1,group=3
    36                           	psect	text22,global,reloc=2,class=CODE,delta=1,group=3
    37                           	psect	text23,global,reloc=2,class=CODE,delta=1
    38                           	psect	text24,global,reloc=2,class=CODE,delta=1
    39                           	psect	text25,global,reloc=2,class=CODE,delta=1
    40                           	psect	text26,global,reloc=2,class=CODE,delta=1
    41                           	psect	text27,global,reloc=2,class=CODE,delta=1
    42                           	psect	text28,global,reloc=2,class=CODE,delta=1
    43                           	psect	text29,global,reloc=2,class=CODE,delta=1
    44                           	psect	text30,global,reloc=2,class=CODE,delta=1
    45                           	psect	text31,global,reloc=2,class=CODE,delta=1
    46                           	psect	text32,global,reloc=2,class=CODE,delta=1
    47                           	psect	text33,global,reloc=2,class=CODE,delta=1
    48                           	psect	text34,global,reloc=2,class=CODE,delta=1
    49                           	psect	text35,global,reloc=2,class=CODE,delta=1
    50                           	psect	text36,global,reloc=2,class=CODE,delta=1
    51                           	psect	text37,global,reloc=2,class=CODE,delta=1
    52                           	psect	text38,global,reloc=2,class=CODE,delta=1
    53                           	psect	text39,global,reloc=2,class=CODE,delta=1
    54                           	psect	text40,global,reloc=2,class=CODE,delta=1
    55                           	psect	text41,global,reloc=2,class=CODE,delta=1
    56                           	psect	intsave_regs,global,class=BIGRAM,space=1,delta=1,noexec
    57                           	psect	rparam,global,class=COMRAM,space=1,delta=1,noexec
    58   000000                     
    59                           ; Generated 17/10/2023 GMT
    60                           ; 
    61                           ; Copyright © 2023, Microchip Technology Inc. and its subsidiaries ("Microchip")
    62                           ; All rights reserved.
    63                           ; 
    64                           ; This software is developed by Microchip Technology Inc. and its subsidiaries ("Microch
      +                          ip").
    65                           ; 
    66                           ; Redistribution and use in source and binary forms, with or without modification, are
    67                           ; permitted provided that the following conditions are met:
    68                           ; 
    69                           ;     1. Redistributions of source code must retain the above copyright notice, this lis
      +                          t of
    70                           ;        conditions and the following disclaimer.
    71                           ; 
    72                           ;     2. Redistributions in binary form must reproduce the above copyright notice, this 
      +                          list
    73                           ;        of conditions and the following disclaimer in the documentation and/or other
    74                           ;        materials provided with the distribution. Publication is not required when
    75                           ;        this file is used in an embedded application.
    76                           ; 
    77                           ;     3. Microchip's name may not be used to endorse or promote products derived from th
      +                          is
    78                           ;        software without specific prior written permission.
    79                           ; 
    80                           ; THIS SOFTWARE IS PROVIDED BY MICROCHIP "AS IS" AND ANY EXPRESS OR IMPLIED WARRANTIES,
    81                           ; INCLUDING, BUT NOT LIMITED TO, THE IMPLIED WARRANTIES OF MERCHANTABILITY AND FITNESS F
      +                          OR
    82                           ; PURPOSE ARE DISCLAIMED.  IN NO EVENT SHALL MICROCHIP BE LIABLE FOR ANY DIRECT, INDIREC
      +                          T,
    83                           ; INCIDENTAL, SPECIAL, EXEMPLARY, OR CONSEQUENTIAL DAMAGES (INCLUDING BUT NOT LIMITED TO
    84                           ; PROCUREMENT OF SUBSTITUTE GOODS OR SERVICES; LOSS OF USE, DATA OR PROFITS; OR BUSINESS
    85                           ; INTERRUPTION) HOWSOEVER CAUSED AND ON ANY THEORY OF LIABILITY, WHETHER IN CONTRACT, ST
      +                          RICT
    86                           ; LIABILITY, OR TORT (INCLUDING NEGLIGENCE OR OTHERWISE) ARISING IN ANY WAY OUT OF THE U
      +                          SE OF
    87                           ; THIS SOFTWARE, EVEN IF ADVISED OF THE POSSIBILITY OF SUCH DAMAGE.
    88                           ; 
    89                           ; 
    90                           ; Code-generator required, PIC18F4580 Definitions
    91                           ; 
    92                           ; SFR Addresses
    93   000000                     
    94                           	psect	idataCOMRAM
    95   001D22                     __pidataCOMRAM:
    96                           	callstack 0
    97                           
    98                           ;initializer for _s3
    99   001D22  41                 	db	65
   100   001D23  63                 	db	99
   101   001D24  63                 	db	99
   102   001D25  65                 	db	101
   103   001D26  73                 	db	115
   104   001D27  73                 	db	115
   105   001D28  20                 	db	32
   106   001D29  44                 	db	68
   107   001D2A  65                 	db	101
   108   001D2B  6E                 	db	110
   109   001D2C  69                 	db	105
   110   001D2D  65                 	db	101
   111   001D2E  64                 	db	100
   112   001D2F  00                 	db	0
   113                           
   114                           ;initializer for _pass_set_msg
   115   001D30  31                 	db	49
   116   001D31  2E                 	db	46
   117   001D32  53                 	db	83
   118   001D33  65                 	db	101
   119   001D34  74                 	db	116
   120   001D35  50                 	db	80
   121   001D36  61                 	db	97
   122   001D37  73                 	db	115
   123   001D38  73                 	db	115
   124   001D39  00                 	db	0
   125                           
   126                           ;initializer for _lock_msg
   127   001D3A  33                 	db	51
   128   001D3B  2E                 	db	46
   129   001D3C  6C                 	db	108
   130   001D3D  6F                 	db	111
   131   001D3E  63                 	db	99
   132   001D3F  6B                 	db	107
   133   001D40  00                 	db	0
   134                           
   135                           ;initializer for _set_passcode
   136   001D41  30                 	db	48
   137   001D42  30                 	db	48
   138   001D43  30                 	db	48
   139   001D44  30                 	db	48
   140                           
   141                           ;initializer for _type_passcode
   142   001D45  30                 	db	48
   143   001D46  30                 	db	48
   144   001D47  30                 	db	48
   145   001D48  30                 	db	48
   146   001D49  00                 	db	0
   147                           
   148                           	psect	idataBANK0
   149   0018E6                     __pidataBANK0:
   150                           	callstack 0
   151                           
   152                           ;initializer for _new_pass_set_msg2
   153   0018E6  53                 	db	83
   154   0018E7  65                 	db	101
   155   0018E8  74                 	db	116
   156   0018E9  20                 	db	32
   157   0018EA  53                 	db	83
   158   0018EB  75                 	db	117
   159   0018EC  63                 	db	99
   160   0018ED  63                 	db	99
   161   0018EE  65                 	db	101
   162   0018EF  73                 	db	115
   163   0018F0  73                 	db	115
   164   0018F1  66                 	db	102
   165   0018F2  75                 	db	117
   166   0018F3  6C                 	db	108
   167   0018F4  6C                 	db	108
   168   0018F5  79                 	db	121
   169   0018F6  00                 	db	0
   170                           
   171                           ;initializer for _password_not_match
   172   0018F7  57                 	db	87
   173   0018F8  72                 	db	114
   174   0018F9  6F                 	db	111
   175   0018FA  6E                 	db	110
   176   0018FB  67                 	db	103
   177   0018FC  20                 	db	32
   178   0018FD  50                 	db	80
   179   0018FE  61                 	db	97
   180   0018FF  73                 	db	115
   181   001900  73                 	db	115
   182   001901  77                 	db	119
   183   001902  6F                 	db	111
   184   001903  72                 	db	114
   185   001904  64                 	db	100
   186   001905  00                 	db	0
   187                           
   188                           ;initializer for _password_match
   189   001906  70                 	db	112
   190   001907  61                 	db	97
   191   001908  73                 	db	115
   192   001909  73                 	db	115
   193   00190A  77                 	db	119
   194   00190B  6F                 	db	111
   195   00190C  72                 	db	114
   196   00190D  64                 	db	100
   197   00190E  20                 	db	32
   198   00190F  6D                 	db	109
   199   001910  61                 	db	97
   200   001911  74                 	db	116
   201   001912  63                 	db	99
   202   001913  68                 	db	104
   203   001914  00                 	db	0
   204                           
   205                           ;initializer for _enter_newPass_msg
   206   001915  45                 	db	69
   207   001916  6E                 	db	110
   208   001917  74                 	db	116
   209   001918  65                 	db	101
   210   001919  72                 	db	114
   211   00191A  20                 	db	32
   212   00191B  6E                 	db	110
   213   00191C  65                 	db	101
   214   00191D  77                 	db	119
   215   00191E  20                 	db	32
   216   00191F  50                 	db	80
   217   001920  61                 	db	97
   218   001921  73                 	db	115
   219   001922  73                 	db	115
   220   001923  00                 	db	0
   221                           
   222                           ;initializer for _renter_old_password_msg
   223   001924  45                 	db	69
   224   001925  6E                 	db	110
   225   001926  74                 	db	116
   226   001927  65                 	db	101
   227   001928  72                 	db	114
   228   001929  20                 	db	32
   229   00192A  6F                 	db	111
   230   00192B  6C                 	db	108
   231   00192C  64                 	db	100
   232   00192D  20                 	db	32
   233   00192E  50                 	db	80
   234   00192F  61                 	db	97
   235   001930  73                 	db	115
   236   001931  73                 	db	115
   237   001932  00                 	db	0
   238                           
   239                           ;initializer for _enter_pass_msg
   240   001933  45                 	db	69
   241   001934  6E                 	db	110
   242   001935  74                 	db	116
   243   001936  65                 	db	101
   244   001937  72                 	db	114
   245   001938  20                 	db	32
   246   001939  50                 	db	80
   247   00193A  61                 	db	97
   248   00193B  73                 	db	115
   249   00193C  73                 	db	115
   250   00193D  77                 	db	119
   251   00193E  6F                 	db	111
   252   00193F  72                 	db	114
   253   001940  64                 	db	100
   254   001941  00                 	db	0
   255                           
   256                           ;initializer for _s2
   257   001942  41                 	db	65
   258   001943  63                 	db	99
   259   001944  63                 	db	99
   260   001945  65                 	db	101
   261   001946  73                 	db	115
   262   001947  73                 	db	115
   263   001948  20                 	db	32
   264   001949  47                 	db	71
   265   00194A  72                 	db	114
   266   00194B  61                 	db	97
   267   00194C  6E                 	db	110
   268   00194D  74                 	db	116
   269   00194E  65                 	db	101
   270   00194F  64                 	db	100
   271   001950  00                 	db	0
   272                           
   273                           ;initializer for _new_pass_set_msg1
   274   001951  4E                 	db	78
   275   001952  65                 	db	101
   276   001953  77                 	db	119
   277   001954  20                 	db	32
   278   001955  70                 	db	112
   279   001956  61                 	db	97
   280   001957  73                 	db	115
   281   001958  73                 	db	115
   282   001959  77                 	db	119
   283   00195A  6F                 	db	111
   284   00195B  72                 	db	114
   285   00195C  64                 	db	100
   286   00195D  00                 	db	0
   287                           
   288                           ;initializer for _unlock_msg
   289   00195E  32                 	db	50
   290   00195F  2E                 	db	46
   291   001960  75                 	db	117
   292   001961  6E                 	db	110
   293   001962  6C                 	db	108
   294   001963  6F                 	db	111
   295   001964  63                 	db	99
   296   001965  6B                 	db	107
   297   001966  20                 	db	32
   298   001967  20                 	db	32
   299   001968  00                 	db	0
   300   000000                     _EECON2	set	4007
   301   000000                     _EEDATA	set	4008
   302   000000                     _EEADR	set	4009
   303   000000                     _SSPCON2bits	set	4037
   304   000000                     _SSPSTATbits	set	4039
   305   000000                     _PORTBbits	set	3969
   306   000000                     _PORTDbits	set	3971
   307   000000                     _TRISB	set	3987
   308   000000                     _TRISD	set	3989
   309   000000                     _PIR1bits	set	3998
   310   000000                     _EECON1bits	set	4006
   311   000000                     _ADCON1	set	4033
   312   000000                     _SSPCON2	set	4037
   313   000000                     _SSPCON1	set	4038
   314   000000                     _SSPSTAT	set	4039
   315   000000                     _INTCON2bits	set	4081
   316   000000                     _SSPBUF	set	4041
   317   000000                     _SSPADD	set	4040
   318   000000                     _PIR2bits	set	4001
   319                           
   320                           	psect	smallconst
   321   000600                     __psmallconst:
   322                           	callstack 0
   323   000600  00                 	db	0
   324   000601                     STR_1:
   325   000601  25                 	db	37
   326   000602  63                 	db	99	;'c'
   327   000603  25                 	db	37
   328   000604  63                 	db	99	;'c'
   329   000605  25                 	db	37
   330   000606  63                 	db	99	;'c'
   331   000607  25                 	db	37
   332   000608  63                 	db	99	;'c'
   333   000609  00                 	db	0
   334   00060A  00                 	db	0	; dummy byte at the end
   335   000000                     
   336                           ; #config settings
   337                           
   338                           	psect	cinit
   339   00196A                     __pcinit:
   340                           	callstack 0
   341   00196A                     start_initialization:
   342                           	callstack 0
   343   00196A                     __initialization:
   344                           	callstack 0
   345                           
   346                           ; Initialize objects allocated to BANK0 (131 bytes)
   347                           ; load TBLPTR registers with __pidataBANK0
   348   00196A  0EE6               	movlw	low __pidataBANK0
   349   00196C  6EF6               	movwf	tblptrl,c
   350   00196E  0E18               	movlw	high __pidataBANK0
   351   001970  6EF7               	movwf	tblptrh,c
   352   001972  0E00               	movlw	low (__pidataBANK0 shr (0+16))
   353   001974  6EF8               	movwf	tblptru,c
   354   001976  EE00  F060         	lfsr	0,__pdataBANK0
   355   00197A  EE10 F083          	lfsr	1,131
   356   00197E                     copy_data0:
   357   00197E  0009               	tblrd		*+
   358   001980  CFF5 FFEE          	movff	tablat,postinc0
   359   001984  50E5               	movf	postdec1,w,c
   360   001986  50E1               	movf	fsr1l,w,c
   361   001988  E1FA               	bnz	copy_data0
   362                           
   363                           ; Initialize objects allocated to COMRAM (40 bytes)
   364                           ; load TBLPTR registers with __pidataCOMRAM
   365   00198A  0E22               	movlw	low __pidataCOMRAM
   366   00198C  6EF6               	movwf	tblptrl,c
   367   00198E  0E1D               	movlw	high __pidataCOMRAM
   368   001990  6EF7               	movwf	tblptrh,c
   369   001992  0E00               	movlw	low (__pidataCOMRAM shr (0+16))
   370   001994  6EF8               	movwf	tblptru,c
   371   001996  EE00  F001         	lfsr	0,__pdataCOMRAM
   372   00199A  EE10 F028          	lfsr	1,40
   373   00199E                     copy_data1:
   374   00199E  0009               	tblrd		*+
   375   0019A0  CFF5 FFEE          	movff	tablat,postinc0
   376   0019A4  50E5               	movf	postdec1,w,c
   377   0019A6  50E1               	movf	fsr1l,w,c
   378   0019A8  E1FA               	bnz	copy_data1
   379                           
   380                           ; Clear objects allocated to BANK1 (32 bytes)
   381   0019AA  EE01  F000         	lfsr	0,__pbssBANK1
   382   0019AE  0E20               	movlw	32
   383   0019B0                     clear_0:
   384   0019B0  6AEE               	clrf	postinc0,c
   385   0019B2  06E8               	decf	wreg,f,c
   386   0019B4  E1FD               	bnz	clear_0
   387                           
   388                           ; Clear objects allocated to COMRAM (14 bytes)
   389   0019B6  EE00  F050         	lfsr	0,__pbssCOMRAM
   390   0019BA  0E0E               	movlw	14
   391   0019BC                     clear_1:
   392   0019BC  6AEE               	clrf	postinc0,c
   393   0019BE  06E8               	decf	wreg,f,c
   394   0019C0  E1FD               	bnz	clear_1
   395   0019C2                     end_of_initialization:
   396                           	callstack 0
   397   0019C2                     __end_of__initialization:
   398                           	callstack 0
   399   0019C2  0E00               	movlw	low (__Lmediumconst shr (0+16))
   400   0019C4  6EF8               	movwf	tblptru,c
   401   0019C6  0100               	movlb	0
   402   0019C8  EFE5  F00E         	goto	_main	;jump to C main() function
   403                           
   404                           	psect	bssCOMRAM
   405   000050                     __pbssCOMRAM:
   406                           	callstack 0
   407   000050                     _width:
   408                           	callstack 0
   409   000050                     	ds	2
   410   000052                     _prec:
   411                           	callstack 0
   412   000052                     	ds	2
   413   000054                     _i:
   414                           	callstack 0
   415   000054                     	ds	2
   416   000056                     _flags:
   417                           	callstack 0
   418   000056                     	ds	1
   419   000057                     _address:
   420                           	callstack 0
   421   000057                     	ds	1
   422   000058                     _c:
   423                           	callstack 0
   424   000058                     	ds	1
   425   000059                     _ch:
   426                           	callstack 0
   427   000059                     	ds	1
   428   00005A                     _old_password:
   429                           	callstack 0
   430   00005A                     	ds	4
   431                           
   432                           	psect	dataCOMRAM
   433   000001                     __pdataCOMRAM:
   434                           	callstack 0
   435   000001                     _s3:
   436                           	callstack 0
   437   000001                     	ds	14
   438   00000F                     _pass_set_msg:
   439                           	callstack 0
   440   00000F                     	ds	10
   441   000019                     _lock_msg:
   442                           	callstack 0
   443   000019                     	ds	7
   444   000020                     _set_passcode:
   445                           	callstack 0
   446   000020                     	ds	4
   447   000024                     _type_passcode:
   448                           	callstack 0
   449   000024                     	ds	5
   450                           
   451                           	psect	dataBANK0
   452   000060                     __pdataBANK0:
   453                           	callstack 0
   454   000060                     _new_pass_set_msg2:
   455                           	callstack 0
   456   000060                     	ds	17
   457   000071                     _password_not_match:
   458                           	callstack 0
   459   000071                     	ds	15
   460   000080                     _password_match:
   461                           	callstack 0
   462   000080                     	ds	15
   463   00008F                     _enter_newPass_msg:
   464                           	callstack 0
   465   00008F                     	ds	15
   466   00009E                     _renter_old_password_msg:
   467                           	callstack 0
   468   00009E                     	ds	15
   469   0000AD                     _enter_pass_msg:
   470                           	callstack 0
   471   0000AD                     	ds	15
   472   0000BC                     _s2:
   473                           	callstack 0
   474   0000BC                     	ds	15
   475   0000CB                     _new_pass_set_msg1:
   476                           	callstack 0
   477   0000CB                     	ds	13
   478   0000D8                     _unlock_msg:
   479                           	callstack 0
   480   0000D8                     	ds	11
   481                           
   482                           	psect	bssBANK1
   483   000100                     __pbssBANK1:
   484                           	callstack 0
   485   000100                     	ds	32
   486                           
   487                           	psect	cstackCOMRAM
   488   000029                     __pcstackCOMRAM:
   489                           	callstack 0
   490   000029                     ?_strlen:
   491                           	callstack 0
   492   000029                     ?_strncmp:
   493                           	callstack 0
   494   000029                     ?_strchr:
   495                           	callstack 0
   496   000029                     read_from_eeprom@address:
   497                           	callstack 0
   498   000029                     write_to_eeprom@data:
   499                           	callstack 0
   500   000029                     I2C_Write@data:
   501                           	callstack 0
   502   000029                     strlen@s:
   503                           	callstack 0
   504   000029                     delay1@i:
   505                           	callstack 0
   506   000029                     delay@a:
   507                           	callstack 0
   508   000029                     delay2@a:
   509                           	callstack 0
   510   000029                     fputc@c:
   511                           	callstack 0
   512   000029                     strchr@s:
   513                           	callstack 0
   514   000029                     strncmp@l:
   515                           	callstack 0
   516                           
   517                           ; 2 bytes @ 0x0
   518   000029                     	ds	1
   519   00002A                     write_to_eeprom@address:
   520                           	callstack 0
   521   00002A                     I2C_Start@slave_write_address:
   522                           	callstack 0
   523                           
   524                           ; 1 bytes @ 0x1
   525   00002A                     	ds	1
   526   00002B                     ??_delay:
   527   00002B                     fputc@fp:
   528                           	callstack 0
   529   00002B                     strlen@a:
   530                           	callstack 0
   531   00002B                     strncmp@r:
   532                           	callstack 0
   533   00002B                     delay1@j:
   534                           	callstack 0
   535   00002B                     delay2@i:
   536                           	callstack 0
   537   00002B                     strchr@c:
   538                           	callstack 0
   539                           
   540                           ; 2 bytes @ 0x2
   541   00002B                     	ds	1
   542   00002C                     ??_fputc:
   543   00002C                     delay@j:
   544                           	callstack 0
   545   00002C                     strncmp@n:
   546                           	callstack 0
   547                           
   548                           ; 2 bytes @ 0x3
   549   00002C                     	ds	1
   550   00002D                     lcd_cmd@data:
   551                           	callstack 0
   552   00002D                     lcd_data@data:
   553                           	callstack 0
   554   00002D                     delay2@j:
   555                           	callstack 0
   556                           
   557                           ; 2 bytes @ 0x4
   558   00002D                     	ds	1
   559   00002E                     ??_strncmp:
   560   00002E                     lcd_cmd@data_l:
   561                           	callstack 0
   562   00002E                     lcd_data@data_l:
   563                           	callstack 0
   564   00002E                     delay@i:
   565                           	callstack 0
   566                           
   567                           ; 2 bytes @ 0x5
   568   00002E                     	ds	1
   569   00002F                     lcd_cmd@data_u:
   570                           	callstack 0
   571   00002F                     lcd_data@data_u:
   572                           	callstack 0
   573                           
   574                           ; 1 bytes @ 0x6
   575   00002F                     	ds	1
   576   000030                     ?_strstr:
   577                           	callstack 0
   578   000030                     strstr@h:
   579                           	callstack 0
   580                           
   581                           ; 2 bytes @ 0x7
   582   000030                     	ds	1
   583   000031                     vfpfcnvrt@fp:
   584                           	callstack 0
   585                           
   586                           ; 1 bytes @ 0x8
   587   000031                     	ds	1
   588   000032                     vfpfcnvrt@fmt:
   589                           	callstack 0
   590   000032                     strstr@n:
   591                           	callstack 0
   592                           
   593                           ; 1 bytes @ 0x9
   594   000032                     	ds	1
   595   000033                     ??_strstr:
   596   000033                     vfpfcnvrt@ap:
   597                           	callstack 0
   598                           
   599                           ; 1 bytes @ 0xA
   600   000033                     	ds	1
   601   000034                     vfpfcnvrt@c:
   602                           	callstack 0
   603   000034                     strstr@nl:
   604                           	callstack 0
   605                           
   606                           ; 2 bytes @ 0xB
   607   000034                     	ds	1
   608   000035                     ?_vfprintf:
   609                           	callstack 0
   610   000035                     vfprintf@fp:
   611                           	callstack 0
   612                           
   613                           ; 1 bytes @ 0xC
   614   000035                     	ds	1
   615   000036                     ?_user_validation:
   616                           	callstack 0
   617   000036                     compare@c:
   618                           	callstack 0
   619   000036                     vfprintf@fmt:
   620                           	callstack 0
   621                           
   622                           ; 1 bytes @ 0xD
   623   000036                     	ds	1
   624   000037                     vfprintf@ap:
   625                           	callstack 0
   626   000037                     compare@p:
   627                           	callstack 0
   628                           
   629                           ; 2 bytes @ 0xE
   630   000037                     	ds	1
   631   000038                     vfprintf@cfmt:
   632                           	callstack 0
   633   000038                     user_validation@p:
   634                           	callstack 0
   635                           
   636                           ; 2 bytes @ 0xF
   637   000038                     	ds	1
   638   000039                     ?_sprintf:
   639                           	callstack 0
   640   000039                     sprintf@s:
   641                           	callstack 0
   642                           
   643                           ; 1 bytes @ 0x10
   644   000039                     	ds	1
   645   00003A                     sprintf@fmt:
   646                           	callstack 0
   647                           
   648                           ; 1 bytes @ 0x11
   649   00003A                     	ds	9
   650   000043                     sprintf@ap:
   651                           	callstack 0
   652                           
   653                           ; 1 bytes @ 0x1A
   654   000043                     	ds	1
   655   000044                     sprintf@f:
   656                           	callstack 0
   657                           
   658                           ; 12 bytes @ 0x1B
   659   000044                     	ds	12
   660   000050                     
   661                           ; 1 bytes @ 0x27
   662 ;;
   663 ;;Main: autosize = 0, tempsize = 0, incstack = 0, save=0
   664 ;;
   665 ;; *************** function _main *****************
   666 ;; Defined at:
   667 ;;		line 11 in file "main.c"
   668 ;; Parameters:    Size  Location     Type
   669 ;;		None
   670 ;; Auto vars:     Size  Location     Type
   671 ;;		None
   672 ;; Return value:  Size  Location     Type
   673 ;;                  1    wreg      void 
   674 ;; Registers used:
   675 ;;		wreg, fsr1l, fsr1h, fsr2l, fsr2h, status,2, status,0, tblptrl, tblptrh, tblptru, cstack
   676 ;; Tracked objects:
   677 ;;		On entry : 0/0
   678 ;;		On exit  : 0/0
   679 ;;		Unchanged: 0/0
   680 ;; Data sizes:     COMRAM   BANK0   BANK1   BANK2   BANK3   BANK4   BANK5
   681 ;;      Params:         0       0       0       0       0       0       0
   682 ;;      Locals:         0       0       0       0       0       0       0
   683 ;;      Temps:          0       0       0       0       0       0       0
   684 ;;      Totals:         0       0       0       0       0       0       0
   685 ;;Total ram usage:        0 bytes
   686 ;; Hardware stack levels required when called: 7
   687 ;; This function calls:
   688 ;;		_initBIOS
   689 ;;		_runApp
   690 ;; This function is called by:
   691 ;;		Startup code after reset
   692 ;; This function uses a non-reentrant model
   693 ;;
   694                           
   695                           	psect	text0
   696   001DCA                     __ptext0:
   697                           	callstack 0
   698   001DCA                     _main:
   699                           	callstack 24
   700   001DCA                     
   701                           ;main.c: 12:     initBIOS();
   702   001DCA  ECF4  F00E         	call	_initBIOS	;wreg free
   703   001DCE                     
   704                           ;main.c: 13:     runApp();
   705   001DCE  EC06  F003         	call	_runApp	;wreg free
   706   001DD2  EF00  F000         	goto	start
   707   001DD6                     __end_of_main:
   708                           	callstack 0
   709                           
   710 ;; *************** function _runApp *****************
   711 ;; Defined at:
   712 ;;		line 17 in file "APP/app.c"
   713 ;; Parameters:    Size  Location     Type
   714 ;;		None
   715 ;; Auto vars:     Size  Location     Type
   716 ;;		None
   717 ;; Return value:  Size  Location     Type
   718 ;;                  1    wreg      void 
   719 ;; Registers used:
   720 ;;		wreg, fsr1l, fsr1h, fsr2l, fsr2h, status,2, status,0, tblptrl, tblptrh, tblptru, cstack
   721 ;; Tracked objects:
   722 ;;		On entry : 0/0
   723 ;;		On exit  : 0/0
   724 ;;		Unchanged: 0/0
   725 ;; Data sizes:     COMRAM   BANK0   BANK1   BANK2   BANK3   BANK4   BANK5
   726 ;;      Params:         0       0       0       0       0       0       0
   727 ;;      Locals:         0       0       0       0       0       0       0
   728 ;;      Temps:          0       0       0       0       0       0       0
   729 ;;      Totals:         0       0       0       0       0       0       0
   730 ;;Total ram usage:        0 bytes
   731 ;; Hardware stack levels used: 1
   732 ;; Hardware stack levels required when called: 6
   733 ;; This function calls:
   734 ;;		_I2C_Init
   735 ;;		_I2C_Ready
   736 ;;		_col1
   737 ;;		_col2
   738 ;;		_col3
   739 ;;		_delay
   740 ;;		_delay2
   741 ;;		_lcd_cmd
   742 ;;		_lcd_data
   743 ;;		_lcd_reset
   744 ;;		_lock_door
   745 ;;		_read_from_eeprom
   746 ;;		_set_password
   747 ;;		_sprintf
   748 ;;		_unlock_door
   749 ;;		_user_validation
   750 ;; This function is called by:
   751 ;;		_main
   752 ;; This function uses a non-reentrant model
   753 ;;
   754                           
   755                           	psect	text1
   756   00060C                     __ptext1:
   757                           	callstack 0
   758   00060C                     _runApp:
   759                           	callstack 24
   760   00060C                     
   761                           ;APP/app.c: 19:         I2C_Init();
   762   00060C  ECD3  F00E         	call	_I2C_Init	;wreg free
   763   000610                     
   764                           ;APP/app.c: 20:      delay2(5);
   765   000610  0E00               	movlw	0
   766   000612  6E2A               	movwf	(delay2@a+1)^0,c
   767   000614  0E05               	movlw	5
   768   000616  6E29               	movwf	delay2@a^0,c
   769   000618  ECE6  F00C         	call	_delay2	;wreg free
   770   00061C                     
   771                           ;APP/app.c: 21:      I2C_Ready();
   772   00061C  EC7A  F00E         	call	_I2C_Ready	;wreg free
   773   000620                     
   774                           ;APP/app.c: 22:      delay2(5);
   775   000620  0E00               	movlw	0
   776   000622  6E2A               	movwf	(delay2@a+1)^0,c
   777   000624  0E05               	movlw	5
   778   000626  6E29               	movwf	delay2@a^0,c
   779   000628  ECE6  F00C         	call	_delay2	;wreg free
   780   00062C                     
   781                           ;APP/app.c: 23:         lcd_reset();
   782   00062C  ECB6  F00E         	call	_lcd_reset	;wreg free
   783   000630                     
   784                           ;APP/app.c: 24:         delay(500);
   785   000630  0E01               	movlw	1
   786   000632  6E2A               	movwf	(delay@a+1)^0,c
   787   000634  0EF4               	movlw	244
   788   000636  6E29               	movwf	delay@a^0,c
   789   000638  EC13  F00D         	call	_delay	;wreg free
   790   00063C                     
   791                           ;APP/app.c: 25:         PORTBbits.RB4=PORTBbits.RB5=PORTBbits.RB6=PORTBbits.RB7=1;
   792   00063C  8E81               	bsf	129,7,c	;volatile
   793   00063E  8C81               	bsf	129,6,c	;volatile
   794   000640  8A81               	bsf	129,5,c	;volatile
   795   000642  8881               	bsf	129,4,c	;volatile
   796   000644                     l97:
   797                           
   798                           ;APP/app.c: 28:         {;APP/app.c: 29:          for(i=0;pass_set_msg[i]!='\0';i++)
   799   000644  0E00               	movlw	0
   800   000646  6E55               	movwf	(_i+1)^0,c
   801   000648  0E00               	movlw	0
   802   00064A  6E54               	movwf	_i^0,c
   803   00064C  EF31  F003         	goto	l3404
   804   000650                     l3400:
   805                           
   806                           ;APP/app.c: 30:         {;APP/app.c: 31:             lcd_data(pass_set_msg[i]);
   807   000650  5054               	movf	_i^0,w,c
   808   000652  0F0F               	addlw	low _pass_set_msg
   809   000654  6ED9               	movwf	fsr2l,c
   810   000656  6ADA               	clrf	fsr2h,c
   811   000658  50DF               	movf	indf2,w,c
   812   00065A  ECD4  F00D         	call	_lcd_data
   813   00065E                     
   814                           ;APP/app.c: 32:         }
   815   00065E  4A54               	infsnz	_i^0,f,c
   816   000660  2A55               	incf	(_i+1)^0,f,c
   817   000662                     l3404:
   818   000662  5054               	movf	_i^0,w,c
   819   000664  0F0F               	addlw	low _pass_set_msg
   820   000666  6ED9               	movwf	fsr2l,c
   821   000668  6ADA               	clrf	fsr2h,c
   822   00066A  50DF               	movf	indf2,w,c
   823   00066C  A4D8               	btfss	status,2,c
   824   00066E  EF3B  F003         	goto	u3131
   825   000672  EF3D  F003         	goto	u3130
   826   000676                     u3131:
   827   000676  EF28  F003         	goto	l3400
   828   00067A                     u3130:
   829   00067A                     
   830                           ;APP/app.c: 33:          delay(200);
   831   00067A  0E00               	movlw	0
   832   00067C  6E2A               	movwf	(delay@a+1)^0,c
   833   00067E  0EC8               	movlw	200
   834   000680  6E29               	movwf	delay@a^0,c
   835   000682  EC13  F00D         	call	_delay	;wreg free
   836                           
   837                           ;APP/app.c: 34:         lcd_cmd(0xc0);
   838   000686  0EC0               	movlw	192
   839   000688  ECB2  F00D         	call	_lcd_cmd
   840   00068C                     
   841                           ;APP/app.c: 35:         for(i=0;unlock_msg[i]!='\0';i++)
   842   00068C  0E00               	movlw	0
   843   00068E  6E55               	movwf	(_i+1)^0,c
   844   000690  0E00               	movlw	0
   845   000692  6E54               	movwf	_i^0,c
   846   000694  EF55  F003         	goto	l3414
   847   000698                     l3410:
   848                           
   849                           ;APP/app.c: 36:         {;APP/app.c: 37:             lcd_data(unlock_msg[i]);
   850   000698  5054               	movf	_i^0,w,c
   851   00069A  0FD8               	addlw	low _unlock_msg
   852   00069C  6ED9               	movwf	fsr2l,c
   853   00069E  6ADA               	clrf	fsr2h,c
   854   0006A0  50DF               	movf	indf2,w,c
   855   0006A2  ECD4  F00D         	call	_lcd_data
   856   0006A6                     
   857                           ;APP/app.c: 38:         }
   858   0006A6  4A54               	infsnz	_i^0,f,c
   859   0006A8  2A55               	incf	(_i+1)^0,f,c
   860   0006AA                     l3414:
   861   0006AA  5054               	movf	_i^0,w,c
   862   0006AC  0FD8               	addlw	low _unlock_msg
   863   0006AE  6ED9               	movwf	fsr2l,c
   864   0006B0  6ADA               	clrf	fsr2h,c
   865   0006B2  50DF               	movf	indf2,w,c
   866   0006B4  A4D8               	btfss	status,2,c
   867   0006B6  EF5F  F003         	goto	u3141
   868   0006BA  EF61  F003         	goto	u3140
   869   0006BE                     u3141:
   870   0006BE  EF4C  F003         	goto	l3410
   871   0006C2                     u3140:
   872   0006C2                     
   873                           ;APP/app.c: 39:         delay(200);
   874   0006C2  0E00               	movlw	0
   875   0006C4  6E2A               	movwf	(delay@a+1)^0,c
   876   0006C6  0EC8               	movlw	200
   877   0006C8  6E29               	movwf	delay@a^0,c
   878   0006CA  EC13  F00D         	call	_delay	;wreg free
   879   0006CE                     
   880                           ;APP/app.c: 40:         for(i=0;lock_msg[i]!='\0';i++)
   881   0006CE  0E00               	movlw	0
   882   0006D0  6E55               	movwf	(_i+1)^0,c
   883   0006D2  0E00               	movlw	0
   884   0006D4  6E54               	movwf	_i^0,c
   885   0006D6  EF76  F003         	goto	l3424
   886   0006DA                     l3420:
   887                           
   888                           ;APP/app.c: 41:         {;APP/app.c: 42:             lcd_data(lock_msg[i]);
   889   0006DA  5054               	movf	_i^0,w,c
   890   0006DC  0F19               	addlw	low _lock_msg
   891   0006DE  6ED9               	movwf	fsr2l,c
   892   0006E0  6ADA               	clrf	fsr2h,c
   893   0006E2  50DF               	movf	indf2,w,c
   894   0006E4  ECD4  F00D         	call	_lcd_data
   895   0006E8                     
   896                           ;APP/app.c: 43:         }
   897   0006E8  4A54               	infsnz	_i^0,f,c
   898   0006EA  2A55               	incf	(_i+1)^0,f,c
   899   0006EC                     l3424:
   900   0006EC  5054               	movf	_i^0,w,c
   901   0006EE  0F19               	addlw	low _lock_msg
   902   0006F0  6ED9               	movwf	fsr2l,c
   903   0006F2  6ADA               	clrf	fsr2h,c
   904   0006F4  50DF               	movf	indf2,w,c
   905   0006F6  A4D8               	btfss	status,2,c
   906   0006F8  EF80  F003         	goto	u3151
   907   0006FC  EF82  F003         	goto	u3150
   908   000700                     u3151:
   909   000700  EF6D  F003         	goto	l3420
   910   000704                     u3150:
   911   000704                     
   912                           ;APP/app.c: 44:          for(i=0;i<1;i++)
   913   000704  0E00               	movlw	0
   914   000706  6E55               	movwf	(_i+1)^0,c
   915   000708  0E00               	movlw	0
   916   00070A  6E54               	movwf	_i^0,c
   917   00070C                     l3428:
   918   00070C  BE55               	btfsc	(_i+1)^0,7,c
   919   00070E  EF91  F003         	goto	u3161
   920   000712  5055               	movf	(_i+1)^0,w,c
   921   000714  E108               	bnz	u3160
   922   000716  0454               	decf	_i^0,w,c
   923   000718  A0D8               	btfss	status,0,c
   924   00071A  EF91  F003         	goto	u3161
   925   00071E  EF93  F003         	goto	u3160
   926   000722                     u3161:
   927   000722  EF95  F003         	goto	l107
   928   000726                     u3160:
   929   000726  EFC6  F004         	goto	l3538
   930   00072A                     l107:
   931                           
   932                           ;APP/app.c: 45:            {;APP/app.c: 46:              PORTBbits.RB0=PORTBbits.RB1=POR
      +                          TBbits.RB2=PORTBbits.RB3=0;
   933   00072A  9681               	bcf	129,3,c	;volatile
   934   00072C  9481               	bcf	129,2,c	;volatile
   935   00072E  9281               	bcf	129,1,c	;volatile
   936   000730  9081               	bcf	129,0,c	;volatile
   937   000732                     l109:
   938   000732  A881               	btfss	129,4,c	;volatile
   939   000734  EF9E  F003         	goto	u3171
   940   000738  EFA0  F003         	goto	u3170
   941   00073C                     u3171:
   942   00073C  EFB5  F003         	goto	l113
   943   000740                     u3170:
   944   000740  AA81               	btfss	129,5,c	;volatile
   945   000742  EFA5  F003         	goto	u3181
   946   000746  EFA7  F003         	goto	u3180
   947   00074A                     u3181:
   948   00074A  EFB5  F003         	goto	l113
   949   00074E                     u3180:
   950   00074E  AC81               	btfss	129,6,c	;volatile
   951   000750  EFAC  F003         	goto	u3191
   952   000754  EFAE  F003         	goto	u3190
   953   000758                     u3191:
   954   000758  EFB5  F003         	goto	l113
   955   00075C                     u3190:
   956   00075C  BE81               	btfsc	129,7,c	;volatile
   957   00075E  EFB3  F003         	goto	u3201
   958   000762  EFB5  F003         	goto	u3200
   959   000766                     u3201:
   960   000766  EF99  F003         	goto	l109
   961   00076A                     u3200:
   962   00076A                     l113:
   963                           
   964                           ;APP/app.c: 48:              if(PORTBbits.RB4==0)
   965   00076A  B881               	btfsc	129,4,c	;volatile
   966   00076C  EFBA  F003         	goto	u3211
   967   000770  EFBC  F003         	goto	u3210
   968   000774                     u3211:
   969   000774  EFBE  F003         	goto	l3440
   970   000778                     u3210:
   971   000778                     
   972                           ;APP/app.c: 49:              {;APP/app.c: 50:                  col1();
   973   000778  ECCE  F009         	call	_col1	;wreg free
   974   00077C                     l3440:
   975                           
   976                           ;APP/app.c: 52:              if(PORTBbits.RB5==0)
   977   00077C  BA81               	btfsc	129,5,c	;volatile
   978   00077E  EFC3  F003         	goto	u3221
   979   000782  EFC5  F003         	goto	u3220
   980   000786                     u3221:
   981   000786  EFC7  F003         	goto	l3444
   982   00078A                     u3220:
   983   00078A                     
   984                           ;APP/app.c: 53:              {;APP/app.c: 54:                  col2();
   985   00078A  EC63  F009         	call	_col2	;wreg free
   986   00078E                     l3444:
   987                           
   988                           ;APP/app.c: 56:              if(PORTBbits.RB6==0)
   989   00078E  BC81               	btfsc	129,6,c	;volatile
   990   000790  EFCC  F003         	goto	u3231
   991   000794  EFCE  F003         	goto	u3230
   992   000798                     u3231:
   993   000798  EFD0  F003         	goto	l3448
   994   00079C                     u3230:
   995   00079C                     
   996                           ;APP/app.c: 57:              {;APP/app.c: 58:                  col3();
   997   00079C  ECF8  F008         	call	_col3	;wreg free
   998   0007A0                     l3448:
   999                           
  1000                           ;APP/app.c: 60:           }
  1001   0007A0  4A54               	infsnz	_i^0,f,c
  1002   0007A2  2A55               	incf	(_i+1)^0,f,c
  1003   0007A4  EF86  F003         	goto	l3428
  1004   0007A8                     l3452:
  1005                           
  1006                           ;APP/app.c: 64:                 lcd_reset();
  1007   0007A8  ECB6  F00E         	call	_lcd_reset	;wreg free
  1008   0007AC                     
  1009                           ;APP/app.c: 65:                 if(user_validation()){
  1010   0007AC  EC21  F006         	call	_user_validation	;wreg free
  1011   0007B0  5036               	movf	?_user_validation^0,w,c
  1012   0007B2  1037               	iorwf	(?_user_validation+1)^0,w,c
  1013   0007B4  B4D8               	btfsc	status,2,c
  1014   0007B6  EFDF  F003         	goto	u3241
  1015   0007BA  EFE1  F003         	goto	u3240
  1016   0007BE                     u3241:
  1017   0007BE  EF53  F004         	goto	l3492
  1018   0007C2                     u3240:
  1019   0007C2                     
  1020                           ;APP/app.c: 66:                 lcd_reset();
  1021   0007C2  ECB6  F00E         	call	_lcd_reset	;wreg free
  1022   0007C6                     
  1023                           ;APP/app.c: 67:                 for(i=0;password_match[i]!='\0';i++)
  1024   0007C6  0E00               	movlw	0
  1025   0007C8  6E55               	movwf	(_i+1)^0,c
  1026   0007CA  0E00               	movlw	0
  1027   0007CC  6E54               	movwf	_i^0,c
  1028   0007CE  EFF2  F003         	goto	l3464
  1029   0007D2                     l3460:
  1030                           
  1031                           ;APP/app.c: 68:                 {;APP/app.c: 69:                    lcd_data(password_ma
      +                          tch[i]);
  1032   0007D2  5054               	movf	_i^0,w,c
  1033   0007D4  0F80               	addlw	low _password_match
  1034   0007D6  6ED9               	movwf	fsr2l,c
  1035   0007D8  6ADA               	clrf	fsr2h,c
  1036   0007DA  50DF               	movf	indf2,w,c
  1037   0007DC  ECD4  F00D         	call	_lcd_data
  1038   0007E0                     
  1039                           ;APP/app.c: 70:                 }
  1040   0007E0  4A54               	infsnz	_i^0,f,c
  1041   0007E2  2A55               	incf	(_i+1)^0,f,c
  1042   0007E4                     l3464:
  1043   0007E4  5054               	movf	_i^0,w,c
  1044   0007E6  0F80               	addlw	low _password_match
  1045   0007E8  6ED9               	movwf	fsr2l,c
  1046   0007EA  6ADA               	clrf	fsr2h,c
  1047   0007EC  50DF               	movf	indf2,w,c
  1048   0007EE  A4D8               	btfss	status,2,c
  1049   0007F0  EFFC  F003         	goto	u3251
  1050   0007F4  EFFE  F003         	goto	u3250
  1051   0007F8                     u3251:
  1052   0007F8  EFE9  F003         	goto	l3460
  1053   0007FC                     u3250:
  1054   0007FC                     
  1055                           ;APP/app.c: 71:                 delay(200);
  1056   0007FC  0E00               	movlw	0
  1057   0007FE  6E2A               	movwf	(delay@a+1)^0,c
  1058   000800  0EC8               	movlw	200
  1059   000802  6E29               	movwf	delay@a^0,c
  1060   000804  EC13  F00D         	call	_delay	;wreg free
  1061                           
  1062                           ;APP/app.c: 72:                 lcd_reset();
  1063   000808  ECB6  F00E         	call	_lcd_reset	;wreg free
  1064   00080C                     
  1065                           ;APP/app.c: 73:                 set_password();
  1066   00080C  EC92  F005         	call	_set_password	;wreg free
  1067   000810                     
  1068                           ;APP/app.c: 74:                 lcd_reset();
  1069   000810  ECB6  F00E         	call	_lcd_reset	;wreg free
  1070   000814                     
  1071                           ;APP/app.c: 75:                 for(i=0;new_pass_set_msg1[i]!='\0';i++)
  1072   000814  0E00               	movlw	0
  1073   000816  6E55               	movwf	(_i+1)^0,c
  1074   000818  0E00               	movlw	0
  1075   00081A  6E54               	movwf	_i^0,c
  1076   00081C  EF19  F004         	goto	l3478
  1077   000820                     l3474:
  1078                           
  1079                           ;APP/app.c: 76:                 {;APP/app.c: 77:                    lcd_data(new_pass_se
      +                          t_msg1[i]);
  1080   000820  5054               	movf	_i^0,w,c
  1081   000822  0FCB               	addlw	low _new_pass_set_msg1
  1082   000824  6ED9               	movwf	fsr2l,c
  1083   000826  6ADA               	clrf	fsr2h,c
  1084   000828  50DF               	movf	indf2,w,c
  1085   00082A  ECD4  F00D         	call	_lcd_data
  1086   00082E                     
  1087                           ;APP/app.c: 78:                 }
  1088   00082E  4A54               	infsnz	_i^0,f,c
  1089   000830  2A55               	incf	(_i+1)^0,f,c
  1090   000832                     l3478:
  1091   000832  5054               	movf	_i^0,w,c
  1092   000834  0FCB               	addlw	low _new_pass_set_msg1
  1093   000836  6ED9               	movwf	fsr2l,c
  1094   000838  6ADA               	clrf	fsr2h,c
  1095   00083A  50DF               	movf	indf2,w,c
  1096   00083C  A4D8               	btfss	status,2,c
  1097   00083E  EF23  F004         	goto	u3261
  1098   000842  EF25  F004         	goto	u3260
  1099   000846                     u3261:
  1100   000846  EF10  F004         	goto	l3474
  1101   00084A                     u3260:
  1102   00084A                     
  1103                           ;APP/app.c: 79:                 delay(200);
  1104   00084A  0E00               	movlw	0
  1105   00084C  6E2A               	movwf	(delay@a+1)^0,c
  1106   00084E  0EC8               	movlw	200
  1107   000850  6E29               	movwf	delay@a^0,c
  1108   000852  EC13  F00D         	call	_delay	;wreg free
  1109                           
  1110                           ;APP/app.c: 80:                 lcd_cmd(0xc0);
  1111   000856  0EC0               	movlw	192
  1112   000858  ECB2  F00D         	call	_lcd_cmd
  1113   00085C                     
  1114                           ;APP/app.c: 81:                 for(i=0;new_pass_set_msg2[i]!='\0';i++)
  1115   00085C  0E00               	movlw	0
  1116   00085E  6E55               	movwf	(_i+1)^0,c
  1117   000860  0E00               	movlw	0
  1118   000862  6E54               	movwf	_i^0,c
  1119   000864  EF3D  F004         	goto	l3488
  1120   000868                     l3484:
  1121                           
  1122                           ;APP/app.c: 82:                 {;APP/app.c: 83:                    lcd_data(new_pass_se
      +                          t_msg2[i]);
  1123   000868  5054               	movf	_i^0,w,c
  1124   00086A  0F60               	addlw	low _new_pass_set_msg2
  1125   00086C  6ED9               	movwf	fsr2l,c
  1126   00086E  6ADA               	clrf	fsr2h,c
  1127   000870  50DF               	movf	indf2,w,c
  1128   000872  ECD4  F00D         	call	_lcd_data
  1129   000876                     
  1130                           ;APP/app.c: 84:                 }
  1131   000876  4A54               	infsnz	_i^0,f,c
  1132   000878  2A55               	incf	(_i+1)^0,f,c
  1133   00087A                     l3488:
  1134   00087A  5054               	movf	_i^0,w,c
  1135   00087C  0F60               	addlw	low _new_pass_set_msg2
  1136   00087E  6ED9               	movwf	fsr2l,c
  1137   000880  6ADA               	clrf	fsr2h,c
  1138   000882  50DF               	movf	indf2,w,c
  1139   000884  A4D8               	btfss	status,2,c
  1140   000886  EF47  F004         	goto	u3271
  1141   00088A  EF49  F004         	goto	u3270
  1142   00088E                     u3271:
  1143   00088E  EF34  F004         	goto	l3484
  1144   000892                     u3270:
  1145   000892                     l3490:
  1146                           
  1147                           ;APP/app.c: 85:                 delay(200);
  1148   000892  0E00               	movlw	0
  1149   000894  6E2A               	movwf	(delay@a+1)^0,c
  1150   000896  0EC8               	movlw	200
  1151   000898  6E29               	movwf	delay@a^0,c
  1152   00089A  EC13  F00D         	call	_delay	;wreg free
  1153                           
  1154                           ;APP/app.c: 86:                 lcd_reset();
  1155   00089E  ECB6  F00E         	call	_lcd_reset	;wreg free
  1156                           
  1157                           ;APP/app.c: 87:                 }
  1158   0008A2  EF22  F003         	goto	l97
  1159   0008A6                     l3492:
  1160                           
  1161                           ;APP/app.c: 89:                 {;APP/app.c: 90:                   lcd_reset();
  1162   0008A6  ECB6  F00E         	call	_lcd_reset	;wreg free
  1163   0008AA                     
  1164                           ;APP/app.c: 91:                   for(i=0;password_not_match[i]!='\0';i++)
  1165   0008AA  0E00               	movlw	0
  1166   0008AC  6E55               	movwf	(_i+1)^0,c
  1167   0008AE  0E00               	movlw	0
  1168   0008B0  6E54               	movwf	_i^0,c
  1169   0008B2  EF64  F004         	goto	l3500
  1170   0008B6                     l3496:
  1171                           
  1172                           ;APP/app.c: 92:                    {;APP/app.c: 93:                    lcd_data(password
      +                          _not_match[i]);
  1173   0008B6  5054               	movf	_i^0,w,c
  1174   0008B8  0F71               	addlw	low _password_not_match
  1175   0008BA  6ED9               	movwf	fsr2l,c
  1176   0008BC  6ADA               	clrf	fsr2h,c
  1177   0008BE  50DF               	movf	indf2,w,c
  1178   0008C0  ECD4  F00D         	call	_lcd_data
  1179   0008C4                     
  1180                           ;APP/app.c: 94:                    }
  1181   0008C4  4A54               	infsnz	_i^0,f,c
  1182   0008C6  2A55               	incf	(_i+1)^0,f,c
  1183   0008C8                     l3500:
  1184   0008C8  5054               	movf	_i^0,w,c
  1185   0008CA  0F71               	addlw	low _password_not_match
  1186   0008CC  6ED9               	movwf	fsr2l,c
  1187   0008CE  6ADA               	clrf	fsr2h,c
  1188   0008D0  50DF               	movf	indf2,w,c
  1189   0008D2  A4D8               	btfss	status,2,c
  1190   0008D4  EF6E  F004         	goto	u3281
  1191   0008D8  EF70  F004         	goto	u3280
  1192   0008DC                     u3281:
  1193   0008DC  EF5B  F004         	goto	l3496
  1194   0008E0                     u3280:
  1195   0008E0  EF49  F004         	goto	l3490
  1196   0008E4                     l3504:
  1197                           
  1198                           ;APP/app.c: 100:                 lcd_reset();
  1199   0008E4  ECB6  F00E         	call	_lcd_reset	;wreg free
  1200   0008E8                     
  1201                           ;APP/app.c: 101:                 set_passcode[0] = read_from_eeprom(address);
  1202   0008E8  0E00               	movlw	0
  1203   0008EA  EC15  F00E         	call	_read_from_eeprom
  1204   0008EE  6E20               	movwf	_set_passcode^0,c
  1205   0008F0                     
  1206                           ;APP/app.c: 102:                 set_passcode[1] = read_from_eeprom(address+1);
  1207   0008F0  0E01               	movlw	1
  1208   0008F2  EC15  F00E         	call	_read_from_eeprom
  1209   0008F6  6E21               	movwf	(_set_passcode+1)^0,c
  1210   0008F8                     
  1211                           ;APP/app.c: 103:                 set_passcode[2] = read_from_eeprom(address+2);
  1212   0008F8  0E02               	movlw	2
  1213   0008FA  EC15  F00E         	call	_read_from_eeprom
  1214   0008FE  6E22               	movwf	(_set_passcode+2)^0,c
  1215   000900                     
  1216                           ;APP/app.c: 104:                 set_passcode[3] = read_from_eeprom(address+3);
  1217   000900  0E03               	movlw	3
  1218   000902  EC15  F00E         	call	_read_from_eeprom
  1219   000906  6E23               	movwf	(_set_passcode+3)^0,c
  1220   000908                     
  1221                           ;APP/app.c: 105:                 sprintf(old_password,"%c%c%c%c",set_passcode[0],set_pas
      +                          scode[1],set_passcode[2],set_passcode[3]);
  1222   000908  0E5A               	movlw	low _old_password
  1223   00090A  6E39               	movwf	sprintf@s^0,c
  1224   00090C  0E01               	movlw	low STR_1
  1225   00090E  6E3A               	movwf	sprintf@fmt^0,c
  1226   000910  C020  F03B         	movff	_set_passcode,?_sprintf+2
  1227   000914  6A3C               	clrf	(?_sprintf+3)^0,c
  1228   000916  C021  F03D         	movff	_set_passcode+1,?_sprintf+4
  1229   00091A  6A3E               	clrf	(?_sprintf+5)^0,c
  1230   00091C  C022  F03F         	movff	_set_passcode+2,?_sprintf+6
  1231   000920  6A40               	clrf	(?_sprintf+7)^0,c
  1232   000922  C023  F041         	movff	_set_passcode+3,?_sprintf+8
  1233   000926  6A42               	clrf	(?_sprintf+9)^0,c
  1234   000928  EC32  F00E         	call	_sprintf	;wreg free
  1235   00092C                     
  1236                           ;APP/app.c: 106:                 c = '1';
  1237   00092C  0E31               	movlw	49
  1238   00092E  6E58               	movwf	_c^0,c
  1239   000930                     
  1240                           ;APP/app.c: 107:                 unlock_door();
  1241   000930  ECAB  F006         	call	_unlock_door	;wreg free
  1242                           
  1243                           ;APP/app.c: 109:                 break;
  1244   000934  EF22  F003         	goto	l97
  1245   000938                     l3520:
  1246                           
  1247                           ;APP/app.c: 111:                 lcd_reset();
  1248   000938  ECB6  F00E         	call	_lcd_reset	;wreg free
  1249   00093C                     
  1250                           ;APP/app.c: 112:                 set_passcode[0] = read_from_eeprom(address);
  1251   00093C  0E00               	movlw	0
  1252   00093E  EC15  F00E         	call	_read_from_eeprom
  1253   000942  6E20               	movwf	_set_passcode^0,c
  1254   000944                     
  1255                           ;APP/app.c: 113:                 set_passcode[1] = read_from_eeprom(address+1);
  1256   000944  0E01               	movlw	1
  1257   000946  EC15  F00E         	call	_read_from_eeprom
  1258   00094A  6E21               	movwf	(_set_passcode+1)^0,c
  1259   00094C                     
  1260                           ;APP/app.c: 114:                 set_passcode[2] = read_from_eeprom(address+2);
  1261   00094C  0E02               	movlw	2
  1262   00094E  EC15  F00E         	call	_read_from_eeprom
  1263   000952  6E22               	movwf	(_set_passcode+2)^0,c
  1264   000954                     
  1265                           ;APP/app.c: 115:                 set_passcode[3] = read_from_eeprom(address+3);
  1266   000954  0E03               	movlw	3
  1267   000956  EC15  F00E         	call	_read_from_eeprom
  1268   00095A  6E23               	movwf	(_set_passcode+3)^0,c
  1269   00095C                     
  1270                           ;APP/app.c: 116:                 sprintf(old_password,"%c%c%c%c",set_passcode[0],set_pas
      +                          scode[1],set_passcode[2],set_passcode[3]);
  1271   00095C  0E5A               	movlw	low _old_password
  1272   00095E  6E39               	movwf	sprintf@s^0,c
  1273   000960  0E01               	movlw	low STR_1
  1274   000962  6E3A               	movwf	sprintf@fmt^0,c
  1275   000964  C020  F03B         	movff	_set_passcode,?_sprintf+2
  1276   000968  6A3C               	clrf	(?_sprintf+3)^0,c
  1277   00096A  C021  F03D         	movff	_set_passcode+1,?_sprintf+4
  1278   00096E  6A3E               	clrf	(?_sprintf+5)^0,c
  1279   000970  C022  F03F         	movff	_set_passcode+2,?_sprintf+6
  1280   000974  6A40               	clrf	(?_sprintf+7)^0,c
  1281   000976  C023  F041         	movff	_set_passcode+3,?_sprintf+8
  1282   00097A  6A42               	clrf	(?_sprintf+9)^0,c
  1283   00097C  EC32  F00E         	call	_sprintf	;wreg free
  1284   000980                     
  1285                           ;APP/app.c: 117:                 c = '2';
  1286   000980  0E32               	movlw	50
  1287   000982  6E58               	movwf	_c^0,c
  1288   000984                     
  1289                           ;APP/app.c: 118:                 lock_door();
  1290   000984  EC31  F007         	call	_lock_door	;wreg free
  1291                           
  1292                           ;APP/app.c: 119:                 break;
  1293   000988  EF22  F003         	goto	l97
  1294   00098C                     l3538:
  1295   00098C  5059               	movf	_ch^0,w,c
  1296                           
  1297                           ; Switch size 1, requested type "simple"
  1298                           ; Number of cases is 3, Range of values is 49 to 51
  1299                           ; switch strategies available:
  1300                           ; Name         Instructions Cycles
  1301                           ; simple_byte           10     6 (average)
  1302                           ;	Chosen strategy is simple_byte
  1303   00098E  0A31               	xorlw	49	; case 49
  1304   000990  B4D8               	btfsc	status,2,c
  1305   000992  EFD4  F003         	goto	l3452
  1306   000996  0A03               	xorlw	3	; case 50
  1307   000998  B4D8               	btfsc	status,2,c
  1308   00099A  EF72  F004         	goto	l3504
  1309   00099E  0A01               	xorlw	1	; case 51
  1310   0009A0  B4D8               	btfsc	status,2,c
  1311   0009A2  EF9C  F004         	goto	l3520
  1312   0009A6  EF22  F003         	goto	l97
  1313   0009AA  0012               	return		;funcret
  1314   0009AC                     __end_of_runApp:
  1315                           	callstack 0
  1316                           
  1317 ;; *************** function _user_validation *****************
  1318 ;; Defined at:
  1319 ;;		line 123 in file "APP/app.c"
  1320 ;; Parameters:    Size  Location     Type
  1321 ;;		None
  1322 ;; Auto vars:     Size  Location     Type
  1323 ;;  q               3    0        PTR unsigned char 
  1324 ;;  p               2   15[COMRAM] PTR unsigned char 
  1325 ;;		 -> type_passcode(5), NULL(0), 
  1326 ;; Return value:  Size  Location     Type
  1327 ;;                  2   13[COMRAM] PTR unsigned char 
  1328 ;; Registers used:
  1329 ;;		wreg, fsr1l, fsr1h, fsr2l, fsr2h, status,2, status,0, cstack
  1330 ;; Tracked objects:
  1331 ;;		On entry : 0/0
  1332 ;;		On exit  : 0/0
  1333 ;;		Unchanged: 0/0
  1334 ;; Data sizes:     COMRAM   BANK0   BANK1   BANK2   BANK3   BANK4   BANK5
  1335 ;;      Params:         2       0       0       0       0       0       0
  1336 ;;      Locals:         2       0       0       0       0       0       0
  1337 ;;      Temps:          0       0       0       0       0       0       0
  1338 ;;      Totals:         4       0       0       0       0       0       0
  1339 ;;Total ram usage:        4 bytes
  1340 ;; Hardware stack levels used: 1
  1341 ;; Hardware stack levels required when called: 5
  1342 ;; This function calls:
  1343 ;;		_col1
  1344 ;;		_col2
  1345 ;;		_col3
  1346 ;;		_col4
  1347 ;;		_lcd_cmd
  1348 ;;		_lcd_data
  1349 ;;		_strstr
  1350 ;; This function is called by:
  1351 ;;		_runApp
  1352 ;; This function uses a non-reentrant model
  1353 ;;
  1354                           
  1355                           	psect	text2
  1356   000C42                     __ptext2:
  1357                           	callstack 0
  1358   000C42                     _user_validation:
  1359                           	callstack 24
  1360   000C42                     
  1361                           ;APP/app.c: 125:         for(i=0;renter_old_password_msg[i]!='\0';i++)
  1362   000C42  0E00               	movlw	0
  1363   000C44  6E55               	movwf	(_i+1)^0,c
  1364   000C46  0E00               	movlw	0
  1365   000C48  6E54               	movwf	_i^0,c
  1366   000C4A  EF30  F006         	goto	l3188
  1367   000C4E                     l3184:
  1368                           
  1369                           ;APP/app.c: 126:          {;APP/app.c: 127:               lcd_data(renter_old_password_m
      +                          sg[i]);
  1370   000C4E  5054               	movf	_i^0,w,c
  1371   000C50  0F9E               	addlw	low _renter_old_password_msg
  1372   000C52  6ED9               	movwf	fsr2l,c
  1373   000C54  6ADA               	clrf	fsr2h,c
  1374   000C56  50DF               	movf	indf2,w,c
  1375   000C58  ECD4  F00D         	call	_lcd_data
  1376   000C5C                     
  1377                           ;APP/app.c: 128:          }
  1378   000C5C  4A54               	infsnz	_i^0,f,c
  1379   000C5E  2A55               	incf	(_i+1)^0,f,c
  1380   000C60                     l3188:
  1381   000C60  5054               	movf	_i^0,w,c
  1382   000C62  0F9E               	addlw	low _renter_old_password_msg
  1383   000C64  6ED9               	movwf	fsr2l,c
  1384   000C66  6ADA               	clrf	fsr2h,c
  1385   000C68  50DF               	movf	indf2,w,c
  1386   000C6A  A4D8               	btfss	status,2,c
  1387   000C6C  EF3A  F006         	goto	u2701
  1388   000C70  EF3C  F006         	goto	u2700
  1389   000C74                     u2701:
  1390   000C74  EF27  F006         	goto	l3184
  1391   000C78                     u2700:
  1392   000C78                     
  1393                           ;APP/app.c: 129:         lcd_cmd(0xc0);
  1394   000C78  0EC0               	movlw	192
  1395   000C7A  ECB2  F00D         	call	_lcd_cmd
  1396   000C7E                     
  1397                           ;APP/app.c: 130:         for(i=0;i<4;i++)
  1398   000C7E  0E00               	movlw	0
  1399   000C80  6E55               	movwf	(_i+1)^0,c
  1400   000C82  0E00               	movlw	0
  1401   000C84  6E54               	movwf	_i^0,c
  1402   000C86                     l3194:
  1403   000C86  BE55               	btfsc	(_i+1)^0,7,c
  1404   000C88  EF4F  F006         	goto	u2711
  1405   000C8C  5055               	movf	(_i+1)^0,w,c
  1406   000C8E  E109               	bnz	u2710
  1407   000C90  0E04               	movlw	4
  1408   000C92  5C54               	subwf	_i^0,w,c
  1409   000C94  A0D8               	btfss	status,0,c
  1410   000C96  EF4F  F006         	goto	u2711
  1411   000C9A  EF51  F006         	goto	u2710
  1412   000C9E                     u2711:
  1413   000C9E  EF53  F006         	goto	l144
  1414   000CA2                     u2710:
  1415   000CA2  EF9B  F006         	goto	l3222
  1416   000CA6                     l144:
  1417                           
  1418                           ;APP/app.c: 131:          {;APP/app.c: 132:              PORTBbits.RB0=PORTBbits.RB1=POR
      +                          TBbits.RB2=PORTBbits.RB3=0;
  1419   000CA6  9681               	bcf	129,3,c	;volatile
  1420   000CA8  9481               	bcf	129,2,c	;volatile
  1421   000CAA  9281               	bcf	129,1,c	;volatile
  1422   000CAC  9081               	bcf	129,0,c	;volatile
  1423   000CAE                     l146:
  1424   000CAE  A881               	btfss	129,4,c	;volatile
  1425   000CB0  EF5C  F006         	goto	u2721
  1426   000CB4  EF5E  F006         	goto	u2720
  1427   000CB8                     u2721:
  1428   000CB8  EF73  F006         	goto	l150
  1429   000CBC                     u2720:
  1430   000CBC  AA81               	btfss	129,5,c	;volatile
  1431   000CBE  EF63  F006         	goto	u2731
  1432   000CC2  EF65  F006         	goto	u2730
  1433   000CC6                     u2731:
  1434   000CC6  EF73  F006         	goto	l150
  1435   000CCA                     u2730:
  1436   000CCA  AC81               	btfss	129,6,c	;volatile
  1437   000CCC  EF6A  F006         	goto	u2741
  1438   000CD0  EF6C  F006         	goto	u2740
  1439   000CD4                     u2741:
  1440   000CD4  EF73  F006         	goto	l150
  1441   000CD8                     u2740:
  1442   000CD8  BE81               	btfsc	129,7,c	;volatile
  1443   000CDA  EF71  F006         	goto	u2751
  1444   000CDE  EF73  F006         	goto	u2750
  1445   000CE2                     u2751:
  1446   000CE2  EF57  F006         	goto	l146
  1447   000CE6                     u2750:
  1448   000CE6                     l150:
  1449                           
  1450                           ;APP/app.c: 134:              if(PORTBbits.RB4==0)
  1451   000CE6  B881               	btfsc	129,4,c	;volatile
  1452   000CE8  EF78  F006         	goto	u2761
  1453   000CEC  EF7A  F006         	goto	u2760
  1454   000CF0                     u2761:
  1455   000CF0  EF7C  F006         	goto	l3206
  1456   000CF4                     u2760:
  1457   000CF4                     
  1458                           ;APP/app.c: 135:              {;APP/app.c: 136:                  col1();
  1459   000CF4  ECCE  F009         	call	_col1	;wreg free
  1460   000CF8                     l3206:
  1461                           
  1462                           ;APP/app.c: 138:              if(PORTBbits.RB5==0)
  1463   000CF8  BA81               	btfsc	129,5,c	;volatile
  1464   000CFA  EF81  F006         	goto	u2771
  1465   000CFE  EF83  F006         	goto	u2770
  1466   000D02                     u2771:
  1467   000D02  EF85  F006         	goto	l3210
  1468   000D06                     u2770:
  1469   000D06                     
  1470                           ;APP/app.c: 139:              {;APP/app.c: 140:                  col2();
  1471   000D06  EC63  F009         	call	_col2	;wreg free
  1472   000D0A                     l3210:
  1473                           
  1474                           ;APP/app.c: 142:              if(PORTBbits.RB6==0)
  1475   000D0A  BC81               	btfsc	129,6,c	;volatile
  1476   000D0C  EF8A  F006         	goto	u2781
  1477   000D10  EF8C  F006         	goto	u2780
  1478   000D14                     u2781:
  1479   000D14  EF8E  F006         	goto	l3214
  1480   000D18                     u2780:
  1481   000D18                     
  1482                           ;APP/app.c: 143:              {;APP/app.c: 144:                  col3();
  1483   000D18  ECF8  F008         	call	_col3	;wreg free
  1484   000D1C                     l3214:
  1485                           
  1486                           ;APP/app.c: 146:              if(PORTBbits.RB7==0)
  1487   000D1C  BE81               	btfsc	129,7,c	;volatile
  1488   000D1E  EF93  F006         	goto	u2791
  1489   000D22  EF95  F006         	goto	u2790
  1490   000D26                     u2791:
  1491   000D26  EF97  F006         	goto	l3218
  1492   000D2A                     u2790:
  1493   000D2A                     
  1494                           ;APP/app.c: 147:              {;APP/app.c: 148:                  col4();
  1495   000D2A  ECA2  F00A         	call	_col4	;wreg free
  1496   000D2E                     l3218:
  1497                           
  1498                           ;APP/app.c: 150:           }
  1499   000D2E  4A54               	infsnz	_i^0,f,c
  1500   000D30  2A55               	incf	(_i+1)^0,f,c
  1501   000D32  EF43  F006         	goto	l3194
  1502   000D36                     l3222:
  1503                           
  1504                           ;APP/app.c: 152:       char *p,*q;;APP/app.c: 153:       p=strstr((char*)type_passcode,(
      +                          char*)old_password);
  1505   000D36  0E24               	movlw	low _type_passcode
  1506   000D38  6E30               	movwf	strstr@h^0,c
  1507   000D3A  6A31               	clrf	(strstr@h+1)^0,c
  1508   000D3C  0E5A               	movlw	low _old_password
  1509   000D3E  6E32               	movwf	strstr@n^0,c
  1510   000D40  EC68  F00B         	call	_strstr	;wreg free
  1511   000D44  C030  F038         	movff	?_strstr,user_validation@p
  1512   000D48  C031  F039         	movff	?_strstr+1,user_validation@p+1
  1513   000D4C                     
  1514                           ;APP/app.c: 155:       return p;
  1515   000D4C  C038  F036         	movff	user_validation@p,?_user_validation
  1516   000D50  C039  F037         	movff	user_validation@p+1,?_user_validation+1
  1517   000D54  0012               	return		;funcret
  1518   000D56                     __end_of_user_validation:
  1519                           	callstack 0
  1520                           
  1521 ;; *************** function _unlock_door *****************
  1522 ;; Defined at:
  1523 ;;		line 159 in file "APP/app.c"
  1524 ;; Parameters:    Size  Location     Type
  1525 ;;		None
  1526 ;; Auto vars:     Size  Location     Type
  1527 ;;		None
  1528 ;; Return value:  Size  Location     Type
  1529 ;;                  1    wreg      void 
  1530 ;; Registers used:
  1531 ;;		wreg, fsr1l, fsr1h, fsr2l, fsr2h, status,2, status,0, cstack
  1532 ;; Tracked objects:
  1533 ;;		On entry : 0/0
  1534 ;;		On exit  : 0/0
  1535 ;;		Unchanged: 0/0
  1536 ;; Data sizes:     COMRAM   BANK0   BANK1   BANK2   BANK3   BANK4   BANK5
  1537 ;;      Params:         0       0       0       0       0       0       0
  1538 ;;      Locals:         0       0       0       0       0       0       0
  1539 ;;      Temps:          0       0       0       0       0       0       0
  1540 ;;      Totals:         0       0       0       0       0       0       0
  1541 ;;Total ram usage:        0 bytes
  1542 ;; Hardware stack levels used: 1
  1543 ;; Hardware stack levels required when called: 5
  1544 ;; This function calls:
  1545 ;;		_col1
  1546 ;;		_col2
  1547 ;;		_col3
  1548 ;;		_col4
  1549 ;;		_compare
  1550 ;;		_delay
  1551 ;;		_lcd_cmd
  1552 ;;		_lcd_data
  1553 ;;		_lcd_reset
  1554 ;; This function is called by:
  1555 ;;		_runApp
  1556 ;; This function uses a non-reentrant model
  1557 ;;
  1558                           
  1559                           	psect	text3
  1560   000D56                     __ptext3:
  1561                           	callstack 0
  1562   000D56                     _unlock_door:
  1563                           	callstack 24
  1564   000D56                     
  1565                           ;APP/app.c: 161:         for(i=0;enter_pass_msg[i]!='\0';i++)
  1566   000D56  0E00               	movlw	0
  1567   000D58  6E55               	movwf	(_i+1)^0,c
  1568   000D5A  0E00               	movlw	0
  1569   000D5C  6E54               	movwf	_i^0,c
  1570   000D5E  EFBA  F006         	goto	l3300
  1571   000D62                     l3296:
  1572                           
  1573                           ;APP/app.c: 162:          {;APP/app.c: 163:               lcd_data(enter_pass_msg[i]);
  1574   000D62  5054               	movf	_i^0,w,c
  1575   000D64  0FAD               	addlw	low _enter_pass_msg
  1576   000D66  6ED9               	movwf	fsr2l,c
  1577   000D68  6ADA               	clrf	fsr2h,c
  1578   000D6A  50DF               	movf	indf2,w,c
  1579   000D6C  ECD4  F00D         	call	_lcd_data
  1580   000D70                     
  1581                           ;APP/app.c: 164:          }
  1582   000D70  4A54               	infsnz	_i^0,f,c
  1583   000D72  2A55               	incf	(_i+1)^0,f,c
  1584   000D74                     l3300:
  1585   000D74  5054               	movf	_i^0,w,c
  1586   000D76  0FAD               	addlw	low _enter_pass_msg
  1587   000D78  6ED9               	movwf	fsr2l,c
  1588   000D7A  6ADA               	clrf	fsr2h,c
  1589   000D7C  50DF               	movf	indf2,w,c
  1590   000D7E  A4D8               	btfss	status,2,c
  1591   000D80  EFC4  F006         	goto	u2931
  1592   000D84  EFC6  F006         	goto	u2930
  1593   000D88                     u2931:
  1594   000D88  EFB1  F006         	goto	l3296
  1595   000D8C                     u2930:
  1596   000D8C                     
  1597                           ;APP/app.c: 165:          lcd_cmd(0xc0);
  1598   000D8C  0EC0               	movlw	192
  1599   000D8E  ECB2  F00D         	call	_lcd_cmd
  1600   000D92                     
  1601                           ;APP/app.c: 167:          for(i=0;i<4;i++)
  1602   000D92  0E00               	movlw	0
  1603   000D94  6E55               	movwf	(_i+1)^0,c
  1604   000D96  0E00               	movlw	0
  1605   000D98  6E54               	movwf	_i^0,c
  1606   000D9A                     l3306:
  1607   000D9A  BE55               	btfsc	(_i+1)^0,7,c
  1608   000D9C  EFD9  F006         	goto	u2941
  1609   000DA0  5055               	movf	(_i+1)^0,w,c
  1610   000DA2  E109               	bnz	u2940
  1611   000DA4  0E04               	movlw	4
  1612   000DA6  5C54               	subwf	_i^0,w,c
  1613   000DA8  A0D8               	btfss	status,0,c
  1614   000DAA  EFD9  F006         	goto	u2941
  1615   000DAE  EFDB  F006         	goto	u2940
  1616   000DB2                     u2941:
  1617   000DB2  EFDD  F006         	goto	l161
  1618   000DB6                     u2940:
  1619   000DB6  EF25  F007         	goto	l3334
  1620   000DBA                     l161:
  1621                           
  1622                           ;APP/app.c: 168:          {;APP/app.c: 169:              PORTBbits.RB0=PORTBbits.RB1=POR
      +                          TBbits.RB2=PORTBbits.RB3=0;
  1623   000DBA  9681               	bcf	129,3,c	;volatile
  1624   000DBC  9481               	bcf	129,2,c	;volatile
  1625   000DBE  9281               	bcf	129,1,c	;volatile
  1626   000DC0  9081               	bcf	129,0,c	;volatile
  1627   000DC2                     l163:
  1628   000DC2  A881               	btfss	129,4,c	;volatile
  1629   000DC4  EFE6  F006         	goto	u2951
  1630   000DC8  EFE8  F006         	goto	u2950
  1631   000DCC                     u2951:
  1632   000DCC  EFFD  F006         	goto	l167
  1633   000DD0                     u2950:
  1634   000DD0  AA81               	btfss	129,5,c	;volatile
  1635   000DD2  EFED  F006         	goto	u2961
  1636   000DD6  EFEF  F006         	goto	u2960
  1637   000DDA                     u2961:
  1638   000DDA  EFFD  F006         	goto	l167
  1639   000DDE                     u2960:
  1640   000DDE  AC81               	btfss	129,6,c	;volatile
  1641   000DE0  EFF4  F006         	goto	u2971
  1642   000DE4  EFF6  F006         	goto	u2970
  1643   000DE8                     u2971:
  1644   000DE8  EFFD  F006         	goto	l167
  1645   000DEC                     u2970:
  1646   000DEC  BE81               	btfsc	129,7,c	;volatile
  1647   000DEE  EFFB  F006         	goto	u2981
  1648   000DF2  EFFD  F006         	goto	u2980
  1649   000DF6                     u2981:
  1650   000DF6  EFE1  F006         	goto	l163
  1651   000DFA                     u2980:
  1652   000DFA                     l167:
  1653                           
  1654                           ;APP/app.c: 171:              if(PORTBbits.RB4==0)
  1655   000DFA  B881               	btfsc	129,4,c	;volatile
  1656   000DFC  EF02  F007         	goto	u2991
  1657   000E00  EF04  F007         	goto	u2990
  1658   000E04                     u2991:
  1659   000E04  EF06  F007         	goto	l3318
  1660   000E08                     u2990:
  1661   000E08                     
  1662                           ;APP/app.c: 172:              {;APP/app.c: 173:                  col1();
  1663   000E08  ECCE  F009         	call	_col1	;wreg free
  1664   000E0C                     l3318:
  1665                           
  1666                           ;APP/app.c: 175:              if(PORTBbits.RB5==0)
  1667   000E0C  BA81               	btfsc	129,5,c	;volatile
  1668   000E0E  EF0B  F007         	goto	u3001
  1669   000E12  EF0D  F007         	goto	u3000
  1670   000E16                     u3001:
  1671   000E16  EF0F  F007         	goto	l3322
  1672   000E1A                     u3000:
  1673   000E1A                     
  1674                           ;APP/app.c: 176:              {;APP/app.c: 177:                  col2();
  1675   000E1A  EC63  F009         	call	_col2	;wreg free
  1676   000E1E                     l3322:
  1677                           
  1678                           ;APP/app.c: 179:              if(PORTBbits.RB6==0)
  1679   000E1E  BC81               	btfsc	129,6,c	;volatile
  1680   000E20  EF14  F007         	goto	u3011
  1681   000E24  EF16  F007         	goto	u3010
  1682   000E28                     u3011:
  1683   000E28  EF18  F007         	goto	l3326
  1684   000E2C                     u3010:
  1685   000E2C                     
  1686                           ;APP/app.c: 180:              {;APP/app.c: 181:                  col3();
  1687   000E2C  ECF8  F008         	call	_col3	;wreg free
  1688   000E30                     l3326:
  1689                           
  1690                           ;APP/app.c: 183:              if(PORTBbits.RB7==0)
  1691   000E30  BE81               	btfsc	129,7,c	;volatile
  1692   000E32  EF1D  F007         	goto	u3021
  1693   000E36  EF1F  F007         	goto	u3020
  1694   000E3A                     u3021:
  1695   000E3A  EF21  F007         	goto	l3330
  1696   000E3E                     u3020:
  1697   000E3E                     
  1698                           ;APP/app.c: 184:              {;APP/app.c: 185:                  col4();
  1699   000E3E  ECA2  F00A         	call	_col4	;wreg free
  1700   000E42                     l3330:
  1701                           
  1702                           ;APP/app.c: 187:           }
  1703   000E42  4A54               	infsnz	_i^0,f,c
  1704   000E44  2A55               	incf	(_i+1)^0,f,c
  1705   000E46  EFCD  F006         	goto	l3306
  1706   000E4A                     l3334:
  1707                           
  1708                           ;APP/app.c: 188:          compare(c);
  1709   000E4A  5058               	movf	_c^0,w,c
  1710   000E4C  ECD6  F004         	call	_compare
  1711   000E50                     
  1712                           ;APP/app.c: 189:          delay(2000);
  1713   000E50  0E07               	movlw	7
  1714   000E52  6E2A               	movwf	(delay@a+1)^0,c
  1715   000E54  0ED0               	movlw	208
  1716   000E56  6E29               	movwf	delay@a^0,c
  1717   000E58  EC13  F00D         	call	_delay	;wreg free
  1718   000E5C                     
  1719                           ;APP/app.c: 190:          lcd_reset();
  1720   000E5C  ECB6  F00E         	call	_lcd_reset	;wreg free
  1721   000E60  0012               	return		;funcret
  1722   000E62                     __end_of_unlock_door:
  1723                           	callstack 0
  1724                           
  1725 ;; *************** function _sprintf *****************
  1726 ;; Defined at:
  1727 ;;		line 9 in file "C:\Program Files\Microchip\xc8\v2.46\pic\sources\c99\common\nf_sprintf.c"
  1728 ;; Parameters:    Size  Location     Type
  1729 ;;  s               1   16[COMRAM] PTR unsigned char 
  1730 ;;		 -> old_password(4), 
  1731 ;;  fmt             1   17[COMRAM] PTR const unsigned char 
  1732 ;;		 -> STR_2(9), STR_1(9), 
  1733 ;; Auto vars:     Size  Location     Type
  1734 ;;  f              12   27[COMRAM] struct _IO_FILE
  1735 ;;  ret             2    0        int 
  1736 ;;  ap              1   26[COMRAM] PTR void [1]
  1737 ;;		 -> ?_sprintf(2), 
  1738 ;; Return value:  Size  Location     Type
  1739 ;;                  2   16[COMRAM] int 
  1740 ;; Registers used:
  1741 ;;		wreg, fsr1l, fsr1h, fsr2l, fsr2h, status,2, status,0, tblptrl, tblptrh, tblptru, cstack
  1742 ;; Tracked objects:
  1743 ;;		On entry : 0/0
  1744 ;;		On exit  : 0/0
  1745 ;;		Unchanged: 0/0
  1746 ;; Data sizes:     COMRAM   BANK0   BANK1   BANK2   BANK3   BANK4   BANK5
  1747 ;;      Params:        10       0       0       0       0       0       0
  1748 ;;      Locals:        13       0       0       0       0       0       0
  1749 ;;      Temps:          0       0       0       0       0       0       0
  1750 ;;      Totals:        23       0       0       0       0       0       0
  1751 ;;Total ram usage:       23 bytes
  1752 ;; Hardware stack levels used: 1
  1753 ;; Hardware stack levels required when called: 4
  1754 ;; This function calls:
  1755 ;;		_vfprintf
  1756 ;; This function is called by:
  1757 ;;		_runApp
  1758 ;; This function uses a non-reentrant model
  1759 ;;
  1760                           
  1761                           	psect	text4
  1762   001C64                     __ptext4:
  1763                           	callstack 0
  1764   001C64                     _sprintf:
  1765                           	callstack 25
  1766   001C64  0E3B               	movlw	low (?_sprintf+2)
  1767   001C66  6E43               	movwf	sprintf@ap^0,c
  1768   001C68  C039  F044         	movff	sprintf@s,sprintf@f
  1769   001C6C  0E00               	movlw	0
  1770   001C6E  6E48               	movwf	(sprintf@f+4)^0,c
  1771   001C70  0E00               	movlw	0
  1772   001C72  6E47               	movwf	(sprintf@f+3)^0,c
  1773   001C74  0E00               	movlw	0
  1774   001C76  6E4F               	movwf	(sprintf@f+11)^0,c
  1775   001C78  0E00               	movlw	0
  1776   001C7A  6E4E               	movwf	(sprintf@f+10)^0,c
  1777   001C7C  0E44               	movlw	low sprintf@f
  1778   001C7E  6E35               	movwf	vfprintf@fp^0,c
  1779   001C80  C03A  F036         	movff	sprintf@fmt,vfprintf@fmt
  1780   001C84  0E43               	movlw	low sprintf@ap
  1781   001C86  6E37               	movwf	vfprintf@ap^0,c
  1782   001C88  ECF6  F00D         	call	_vfprintf	;wreg free
  1783   001C8C  5039               	movf	sprintf@s^0,w,c
  1784   001C8E  2447               	addwf	(sprintf@f+3)^0,w,c
  1785   001C90  6ED9               	movwf	fsr2l,c
  1786   001C92  6ADA               	clrf	fsr2h,c
  1787   001C94  6ADF               	clrf	indf2,c
  1788   001C96  0012               	return		;funcret
  1789   001C98                     __end_of_sprintf:
  1790                           	callstack 0
  1791                           
  1792 ;; *************** function _vfprintf *****************
  1793 ;; Defined at:
  1794 ;;		line 1817 in file "C:\Program Files\Microchip\xc8\v2.46\pic\sources\c99\common\doprnt.c"
  1795 ;; Parameters:    Size  Location     Type
  1796 ;;  fp              1   12[COMRAM] PTR struct _IO_FILE
  1797 ;;		 -> sprintf@f(12), 
  1798 ;;  fmt             1   13[COMRAM] PTR const unsigned char 
  1799 ;;		 -> STR_2(9), STR_1(9), 
  1800 ;;  ap              1   14[COMRAM] PTR PTR void 
  1801 ;;		 -> sprintf@ap(1), 
  1802 ;; Auto vars:     Size  Location     Type
  1803 ;;  cfmt            1   15[COMRAM] PTR unsigned char 
  1804 ;;		 -> STR_2(9), STR_1(9), 
  1805 ;; Return value:  Size  Location     Type
  1806 ;;                  2   12[COMRAM] int 
  1807 ;; Registers used:
  1808 ;;		wreg, fsr1l, fsr1h, fsr2l, fsr2h, status,2, status,0, tblptrl, tblptrh, tblptru, cstack
  1809 ;; Tracked objects:
  1810 ;;		On entry : 0/0
  1811 ;;		On exit  : 0/0
  1812 ;;		Unchanged: 0/0
  1813 ;; Data sizes:     COMRAM   BANK0   BANK1   BANK2   BANK3   BANK4   BANK5
  1814 ;;      Params:         3       0       0       0       0       0       0
  1815 ;;      Locals:         1       0       0       0       0       0       0
  1816 ;;      Temps:          0       0       0       0       0       0       0
  1817 ;;      Totals:         4       0       0       0       0       0       0
  1818 ;;Total ram usage:        4 bytes
  1819 ;; Hardware stack levels used: 1
  1820 ;; Hardware stack levels required when called: 3
  1821 ;; This function calls:
  1822 ;;		_vfpfcnvrt
  1823 ;; This function is called by:
  1824 ;;		_sprintf
  1825 ;; This function uses a non-reentrant model
  1826 ;;
  1827                           
  1828                           	psect	text5
  1829   001BEC                     __ptext5:
  1830                           	callstack 0
  1831   001BEC                     _vfprintf:
  1832                           	callstack 25
  1833   001BEC                     
  1834                           ;C:\Program Files\Microchip\xc8\v2.46\pic\sources\c99\common\doprnt.c: 1817: int vfprint
      +                          f(FILE *fp, const char *fmt, va_list ap);C:\Program Files\Microchip\xc8\v2.46\pic\source
      +                          s\c99\common\doprnt.c: 1818: {;C:\Program Files\Microchip\xc8\v2.46\pic\sources\c99\comm
      +                          on\doprnt.c: 1820:     char *cfmt;;C:\Program Files\Microchip\xc8\v2.46\pic\sources\c99\
      +                          common\doprnt.c: 1822:     cfmt = (char *)fmt;
  1835   001BEC  C036  F038         	movff	vfprintf@fmt,vfprintf@cfmt
  1836                           
  1837                           ;C:\Program Files\Microchip\xc8\v2.46\pic\sources\c99\common\doprnt.c: 1826:     while (
      +                          *cfmt) {
  1838   001BF0  EF02  F00E         	goto	l3152
  1839   001BF4                     l3150:
  1840                           
  1841                           ;C:\Program Files\Microchip\xc8\v2.46\pic\sources\c99\common\doprnt.c: 1830:    vfpfcnvr
      +                          t(fp, &cfmt, ap);
  1842   001BF4  C035  F031         	movff	vfprintf@fp,vfpfcnvrt@fp
  1843   001BF8  0E38               	movlw	low vfprintf@cfmt
  1844   001BFA  6E32               	movwf	vfpfcnvrt@fmt^0,c
  1845   001BFC  C037  F033         	movff	vfprintf@ap,vfpfcnvrt@ap
  1846   001C00  EC0B  F00B         	call	_vfpfcnvrt	;wreg free
  1847   001C04                     l3152:
  1848                           
  1849                           ;C:\Program Files\Microchip\xc8\v2.46\pic\sources\c99\common\doprnt.c: 1826:     while (
      +                          *cfmt) {
  1850   001C04  C038  FFF6         	movff	vfprintf@cfmt,tblptrl
  1851   001C08                     	if	1	;There is more than 1 active tblptr byte
  1852   001C08  0E06               	movlw	high __smallconst
  1853   001C0A  6EF7               	movwf	tblptrh,c
  1854   001C0C                     	endif
  1855   001C0C                     	if	0	;tblptru may be non-zero
  1856   001C0C                     	endif
  1857   001C0C                     	if	0	;tblptru may be non-zero
  1858   001C0C                     	endif
  1859   001C0C  0008               	tblrd		*
  1860   001C0E  50F5               	movf	tablat,w,c
  1861   001C10  0900               	iorlw	0
  1862   001C12  A4D8               	btfss	status,2,c
  1863   001C14  EF0E  F00E         	goto	u2671
  1864   001C18  EF10  F00E         	goto	u2670
  1865   001C1C                     u2671:
  1866   001C1C  EFFA  F00D         	goto	l3150
  1867   001C20                     u2670:
  1868   001C20                     
  1869                           ;C:\Program Files\Microchip\xc8\v2.46\pic\sources\c99\common\doprnt.c: 1835:  return 0;
  1870   001C20  0E00               	movlw	0
  1871   001C22  6E36               	movwf	(?_vfprintf+1)^0,c
  1872   001C24  0E00               	movlw	0
  1873   001C26  6E35               	movwf	?_vfprintf^0,c
  1874   001C28  0012               	return		;funcret
  1875   001C2A                     __end_of_vfprintf:
  1876                           	callstack 0
  1877                           
  1878 ;; *************** function _vfpfcnvrt *****************
  1879 ;; Defined at:
  1880 ;;		line 1177 in file "C:\Program Files\Microchip\xc8\v2.46\pic\sources\c99\common\doprnt.c"
  1881 ;; Parameters:    Size  Location     Type
  1882 ;;  fp              1    8[COMRAM] PTR struct _IO_FILE
  1883 ;;		 -> sprintf@f(12), 
  1884 ;;  fmt             1    9[COMRAM] PTR PTR unsigned char 
  1885 ;;		 -> vfprintf@cfmt(1), 
  1886 ;;  ap              1   10[COMRAM] PTR PTR void 
  1887 ;;		 -> sprintf@ap(1), 
  1888 ;; Auto vars:     Size  Location     Type
  1889 ;;  cp              3    0        PTR unsigned char 
  1890 ;;  c               1   11[COMRAM] unsigned char 
  1891 ;;  done            1    0        _Bool 
  1892 ;; Return value:  Size  Location     Type
  1893 ;;                  1    wreg      void 
  1894 ;; Registers used:
  1895 ;;		wreg, fsr1l, fsr1h, fsr2l, fsr2h, status,2, status,0, tblptrl, tblptrh, tblptru, cstack
  1896 ;; Tracked objects:
  1897 ;;		On entry : 0/0
  1898 ;;		On exit  : 0/0
  1899 ;;		Unchanged: 0/0
  1900 ;; Data sizes:     COMRAM   BANK0   BANK1   BANK2   BANK3   BANK4   BANK5
  1901 ;;      Params:         3       0       0       0       0       0       0
  1902 ;;      Locals:         1       0       0       0       0       0       0
  1903 ;;      Temps:          0       0       0       0       0       0       0
  1904 ;;      Totals:         4       0       0       0       0       0       0
  1905 ;;Total ram usage:        4 bytes
  1906 ;; Hardware stack levels used: 1
  1907 ;; Hardware stack levels required when called: 2
  1908 ;; This function calls:
  1909 ;;		_fputc
  1910 ;; This function is called by:
  1911 ;;		_vfprintf
  1912 ;; This function uses a non-reentrant model
  1913 ;;
  1914                           
  1915                           	psect	text6
  1916   001616                     __ptext6:
  1917                           	callstack 0
  1918   001616                     _vfpfcnvrt:
  1919                           	callstack 25
  1920   001616                     
  1921                           ;C:\Program Files\Microchip\xc8\v2.46\pic\sources\c99\common\doprnt.c: 1177: vfpfcnvrt(F
      +                          ILE *fp, char *fmt[], va_list ap);C:\Program Files\Microchip\xc8\v2.46\pic\sources\c99\c
      +                          ommon\doprnt.c: 1178: {;C:\Program Files\Microchip\xc8\v2.46\pic\sources\c99\common\dopr
      +                          nt.c: 1179:     char c, *cp;;C:\Program Files\Microchip\xc8\v2.46\pic\sources\c99\common
      +                          \doprnt.c: 1180:     _Bool done;;C:\Program Files\Microchip\xc8\v2.46\pic\sources\c99\co
      +                          mmon\doprnt.c: 1201:     if ((*fmt)[0] == '%') {
  1922   001616  5032               	movf	vfpfcnvrt@fmt^0,w,c
  1923   001618  6ED9               	movwf	fsr2l,c
  1924   00161A  6ADA               	clrf	fsr2h,c
  1925   00161C  CFDF FFF6          	movff	indf2,tblptrl
  1926   001620                     	if	1	;There is more than 1 active tblptr byte
  1927   001620  0E06               	movlw	high __smallconst
  1928   001622  6EF7               	movwf	tblptrh,c
  1929   001624                     	endif
  1930   001624                     	if	0	;tblptru may be non-zero
  1931   001624                     	endif
  1932   001624                     	if	0	;tblptru may be non-zero
  1933   001624                     	endif
  1934   001624  0008               	tblrd		*
  1935   001626  50F5               	movf	tablat,w,c
  1936   001628  0A25               	xorlw	37
  1937   00162A  A4D8               	btfss	status,2,c
  1938   00162C  EF1A  F00B         	goto	u1921
  1939   001630  EF1C  F00B         	goto	u1920
  1940   001634                     u1921:
  1941   001634  EF56  F00B         	goto	l2674
  1942   001638                     u1920:
  1943   001638                     
  1944                           ;C:\Program Files\Microchip\xc8\v2.46\pic\sources\c99\common\doprnt.c: 1202:         ++*
      +                          fmt;
  1945   001638  5032               	movf	vfpfcnvrt@fmt^0,w,c
  1946   00163A  6ED9               	movwf	fsr2l,c
  1947   00163C  6ADA               	clrf	fsr2h,c
  1948   00163E  2ADF               	incf	indf2,f,c
  1949   001640                     
  1950                           ;C:\Program Files\Microchip\xc8\v2.46\pic\sources\c99\common\doprnt.c: 1204:         fla
      +                          gs = width = 0;
  1951   001640  0E00               	movlw	0
  1952   001642  6E51               	movwf	(_width+1)^0,c
  1953   001644  0E00               	movlw	0
  1954   001646  6E50               	movwf	_width^0,c
  1955   001648  C050  F056         	movff	_width,_flags
  1956   00164C                     
  1957                           ;C:\Program Files\Microchip\xc8\v2.46\pic\sources\c99\common\doprnt.c: 1205:         pre
      +                          c = -1;
  1958   00164C  6852               	setf	_prec^0,c
  1959   00164E  6853               	setf	(_prec+1)^0,c
  1960   001650                     
  1961                           ;C:\Program Files\Microchip\xc8\v2.46\pic\sources\c99\common\doprnt.c: 1273:         if 
      +                          ((*fmt)[0] == 'c') {
  1962   001650  5032               	movf	vfpfcnvrt@fmt^0,w,c
  1963   001652  6ED9               	movwf	fsr2l,c
  1964   001654  6ADA               	clrf	fsr2h,c
  1965   001656  CFDF FFF6          	movff	indf2,tblptrl
  1966   00165A                     	if	1	;There is more than 1 active tblptr byte
  1967   00165A  0E06               	movlw	high __smallconst
  1968   00165C  6EF7               	movwf	tblptrh,c
  1969   00165E                     	endif
  1970   00165E                     	if	0	;tblptru may be non-zero
  1971   00165E                     	endif
  1972   00165E                     	if	0	;tblptru may be non-zero
  1973   00165E                     	endif
  1974   00165E  0008               	tblrd		*
  1975   001660  50F5               	movf	tablat,w,c
  1976   001662  0A63               	xorlw	99
  1977   001664  A4D8               	btfss	status,2,c
  1978   001666  EF37  F00B         	goto	u1931
  1979   00166A  EF39  F00B         	goto	u1930
  1980   00166E                     u1931:
  1981   00166E  EF50  F00B         	goto	l2670
  1982   001672                     u1930:
  1983   001672                     
  1984                           ;C:\Program Files\Microchip\xc8\v2.46\pic\sources\c99\common\doprnt.c: 1274:            
      +                           ++*fmt;
  1985   001672  5032               	movf	vfpfcnvrt@fmt^0,w,c
  1986   001674  6ED9               	movwf	fsr2l,c
  1987   001676  6ADA               	clrf	fsr2h,c
  1988   001678  2ADF               	incf	indf2,f,c
  1989   00167A                     
  1990                           ;C:\Program Files\Microchip\xc8\v2.46\pic\sources\c99\common\doprnt.c: 1275:            
      +                           c = (unsigned char)(*(int *)__va_arg(*(int **)ap, (int)0));
  1991   00167A  5033               	movf	vfpfcnvrt@ap^0,w,c
  1992   00167C  6ED9               	movwf	fsr2l,c
  1993   00167E  6ADA               	clrf	fsr2h,c
  1994   001680  50DF               	movf	indf2,w,c
  1995   001682  2ADF               	incf	indf2,f,c
  1996   001684  2ADF               	incf	indf2,f,c
  1997   001686  6ED9               	movwf	fsr2l,c
  1998   001688  6ADA               	clrf	fsr2h,c
  1999   00168A  50DF               	movf	indf2,w,c
  2000   00168C  6E34               	movwf	vfpfcnvrt@c^0,c
  2001   00168E                     
  2002                           ;C:\Program Files\Microchip\xc8\v2.46\pic\sources\c99\common\doprnt.c: 1277:    fputc(c,
      +                           fp);
  2003   00168E  C034  F029         	movff	vfpfcnvrt@c,fputc@c
  2004   001692  6A2A               	clrf	(fputc@c+1)^0,c
  2005   001694  C031  F02B         	movff	vfpfcnvrt@fp,fputc@fp
  2006   001698  EC1E  F00C         	call	_fputc	;wreg free
  2007   00169C  EF67  F00B         	goto	l1308
  2008   0016A0                     l2670:
  2009                           
  2010                           ;C:\Program Files\Microchip\xc8\v2.46\pic\sources\c99\common\doprnt.c: 1806:         ++*
      +                          fmt;
  2011   0016A0  5032               	movf	vfpfcnvrt@fmt^0,w,c
  2012   0016A2  6ED9               	movwf	fsr2l,c
  2013   0016A4  6ADA               	clrf	fsr2h,c
  2014   0016A6  2ADF               	incf	indf2,f,c
  2015   0016A8  EF67  F00B         	goto	l1308
  2016   0016AC                     l2674:
  2017                           
  2018                           ;C:\Program Files\Microchip\xc8\v2.46\pic\sources\c99\common\doprnt.c: 1811:     fputc((
      +                          int)(*fmt)[0], fp);
  2019   0016AC  5032               	movf	vfpfcnvrt@fmt^0,w,c
  2020   0016AE  6ED9               	movwf	fsr2l,c
  2021   0016B0  6ADA               	clrf	fsr2h,c
  2022   0016B2  CFDF FFF6          	movff	indf2,tblptrl
  2023   0016B6                     	if	1	;There is more than 1 active tblptr byte
  2024   0016B6  0E06               	movlw	high __smallconst
  2025   0016B8  6EF7               	movwf	tblptrh,c
  2026   0016BA                     	endif
  2027   0016BA                     	if	0	;tblptru may be non-zero
  2028   0016BA                     	endif
  2029   0016BA                     	if	0	;tblptru may be non-zero
  2030   0016BA                     	endif
  2031   0016BA  0008               	tblrd		*
  2032   0016BC  50F5               	movf	tablat,w,c
  2033   0016BE  6E29               	movwf	fputc@c^0,c
  2034   0016C0  6A2A               	clrf	(fputc@c+1)^0,c
  2035   0016C2  C031  F02B         	movff	vfpfcnvrt@fp,fputc@fp
  2036   0016C6  EC1E  F00C         	call	_fputc	;wreg free
  2037   0016CA  EF50  F00B         	goto	l2670
  2038   0016CE                     l1308:
  2039   0016CE  0012               	return		;funcret
  2040   0016D0                     __end_of_vfpfcnvrt:
  2041                           	callstack 0
  2042                           
  2043 ;; *************** function _fputc *****************
  2044 ;; Defined at:
  2045 ;;		line 8 in file "C:\Program Files\Microchip\xc8\v2.46\pic\sources\c99\common\nf_fputc.c"
  2046 ;; Parameters:    Size  Location     Type
  2047 ;;  c               2    0[COMRAM] int 
  2048 ;;  fp              1    2[COMRAM] PTR struct _IO_FILE
  2049 ;;		 -> sprintf@f(12), 
  2050 ;; Auto vars:     Size  Location     Type
  2051 ;;		None
  2052 ;; Return value:  Size  Location     Type
  2053 ;;                  2    0[COMRAM] int 
  2054 ;; Registers used:
  2055 ;;		wreg, fsr1l, fsr1h, fsr2l, fsr2h, status,2, status,0, cstack
  2056 ;; Tracked objects:
  2057 ;;		On entry : 0/0
  2058 ;;		On exit  : 0/0
  2059 ;;		Unchanged: 0/0
  2060 ;; Data sizes:     COMRAM   BANK0   BANK1   BANK2   BANK3   BANK4   BANK5
  2061 ;;      Params:         3       0       0       0       0       0       0
  2062 ;;      Locals:         0       0       0       0       0       0       0
  2063 ;;      Temps:          5       0       0       0       0       0       0
  2064 ;;      Totals:         8       0       0       0       0       0       0
  2065 ;;Total ram usage:        8 bytes
  2066 ;; Hardware stack levels used: 1
  2067 ;; Hardware stack levels required when called: 1
  2068 ;; This function calls:
  2069 ;;		_putch
  2070 ;; This function is called by:
  2071 ;;		_vfpfcnvrt
  2072 ;; This function uses a non-reentrant model
  2073 ;;
  2074                           
  2075                           	psect	text7
  2076   00183C                     __ptext7:
  2077                           	callstack 0
  2078   00183C                     _fputc:
  2079                           	callstack 25
  2080   00183C  502B               	movf	fputc@fp^0,w,c
  2081   00183E  B4D8               	btfsc	status,2,c
  2082   001840  EF24  F00C         	goto	u1741
  2083   001844  EF26  F00C         	goto	u1740
  2084   001848                     u1741:
  2085   001848  EF2E  F00C         	goto	l2522
  2086   00184C                     u1740:
  2087   00184C  502B               	movf	fputc@fp^0,w,c
  2088   00184E  A4D8               	btfss	status,2,c
  2089   001850  EF2C  F00C         	goto	u1751
  2090   001854  EF2E  F00C         	goto	u1750
  2091   001858                     u1751:
  2092   001858  EF33  F00C         	goto	l2524
  2093   00185C                     u1750:
  2094   00185C                     l2522:
  2095   00185C  5029               	movf	fputc@c^0,w,c
  2096   00185E  ECF7  F00E         	call	_putch
  2097   001862  EF72  F00C         	goto	l1326
  2098   001866                     l2524:
  2099   001866  502B               	movf	fputc@fp^0,w,c
  2100   001868  6ED9               	movwf	fsr2l,c
  2101   00186A  6ADA               	clrf	fsr2h,c
  2102   00186C  0E0A               	movlw	10
  2103   00186E  26D9               	addwf	fsr2l,f,c
  2104   001870  50DE               	movf	postinc2,w,c
  2105   001872  10DE               	iorwf	postinc2,w,c
  2106   001874  B4D8               	btfsc	status,2,c
  2107   001876  EF3F  F00C         	goto	u1761
  2108   00187A  EF41  F00C         	goto	u1760
  2109   00187E                     u1761:
  2110   00187E  EF5A  F00C         	goto	l2528
  2111   001882                     u1760:
  2112   001882  502B               	movf	fputc@fp^0,w,c
  2113   001884  6ED9               	movwf	fsr2l,c
  2114   001886  6ADA               	clrf	fsr2h,c
  2115   001888  0E0A               	movlw	10
  2116   00188A  26D9               	addwf	fsr2l,f,c
  2117   00188C  502B               	movf	fputc@fp^0,w,c
  2118   00188E  6EE1               	movwf	fsr1l,c
  2119   001890  6AE2               	clrf	fsr1h,c
  2120   001892  0E03               	movlw	3
  2121   001894  26E1               	addwf	fsr1l,f,c
  2122   001896  50DE               	movf	postinc2,w,c
  2123   001898  5CE6               	subwf	postinc1,w,c
  2124   00189A  50E6               	movf	postinc1,w,c
  2125   00189C  0A80               	xorlw	128
  2126   00189E  6E30               	movwf	(??_fputc+4)^0,c
  2127   0018A0  50DE               	movf	postinc2,w,c
  2128   0018A2  0A80               	xorlw	128
  2129   0018A4  5830               	subwfb	(??_fputc+4)^0,w,c
  2130   0018A6  B0D8               	btfsc	status,0,c
  2131   0018A8  EF58  F00C         	goto	u1771
  2132   0018AC  EF5A  F00C         	goto	u1770
  2133   0018B0                     u1771:
  2134   0018B0  EF72  F00C         	goto	l1326
  2135   0018B4                     u1770:
  2136   0018B4                     l2528:
  2137   0018B4  502B               	movf	fputc@fp^0,w,c
  2138   0018B6  6ED9               	movwf	fsr2l,c
  2139   0018B8  6ADA               	clrf	fsr2h,c
  2140   0018BA  0E03               	movlw	3
  2141   0018BC  26D9               	addwf	fsr2l,f,c
  2142   0018BE  50DF               	movf	indf2,w,c
  2143   0018C0  6E2C               	movwf	??_fputc^0,c
  2144   0018C2  502B               	movf	fputc@fp^0,w,c
  2145   0018C4  6ED9               	movwf	fsr2l,c
  2146   0018C6  6ADA               	clrf	fsr2h,c
  2147   0018C8  50DF               	movf	indf2,w,c
  2148   0018CA  242C               	addwf	??_fputc^0,w,c
  2149   0018CC  6ED9               	movwf	fsr2l,c
  2150   0018CE  6ADA               	clrf	fsr2h,c
  2151   0018D0  C029  FFDF         	movff	fputc@c,indf2
  2152   0018D4  502B               	movf	fputc@fp^0,w,c
  2153   0018D6  6ED9               	movwf	fsr2l,c
  2154   0018D8  6ADA               	clrf	fsr2h,c
  2155   0018DA  0E03               	movlw	3
  2156   0018DC  26D9               	addwf	fsr2l,f,c
  2157   0018DE  2ADE               	incf	postinc2,f,c
  2158   0018E0  0E00               	movlw	0
  2159   0018E2  22DD               	addwfc	postdec2,f,c
  2160   0018E4                     l1326:
  2161   0018E4  0012               	return		;funcret
  2162   0018E6                     __end_of_fputc:
  2163                           	callstack 0
  2164                           
  2165 ;; *************** function _putch *****************
  2166 ;; Defined at:
  2167 ;;		line 7 in file "C:\Program Files\Microchip\xc8\v2.46\pic\sources\c99\common\putch.c"
  2168 ;; Parameters:    Size  Location     Type
  2169 ;;  c               1    wreg     unsigned char 
  2170 ;; Auto vars:     Size  Location     Type
  2171 ;;  c               1    0[COMRAM] unsigned char 
  2172 ;; Return value:  Size  Location     Type
  2173 ;;                  1    wreg      void 
  2174 ;; Registers used:
  2175 ;;		wreg
  2176 ;; Tracked objects:
  2177 ;;		On entry : 0/0
  2178 ;;		On exit  : 0/0
  2179 ;;		Unchanged: 0/0
  2180 ;; Data sizes:     COMRAM   BANK0   BANK1   BANK2   BANK3   BANK4   BANK5
  2181 ;;      Params:         0       0       0       0       0       0       0
  2182 ;;      Locals:         0       0       0       0       0       0       0
  2183 ;;      Temps:          0       0       0       0       0       0       0
  2184 ;;      Totals:         0       0       0       0       0       0       0
  2185 ;;Total ram usage:        0 bytes
  2186 ;; Hardware stack levels used: 1
  2187 ;; This function calls:
  2188 ;;		Nothing
  2189 ;; This function is called by:
  2190 ;;		_fputc
  2191 ;; This function uses a non-reentrant model
  2192 ;;
  2193                           
  2194                           	psect	text8
  2195   001DEE                     __ptext8:
  2196                           	callstack 0
  2197   001DEE                     _putch:
  2198                           	callstack 25
  2199   001DEE  0012               	return		;funcret
  2200   001DF0                     __end_of_putch:
  2201                           	callstack 0
  2202                           
  2203 ;; *************** function _set_password *****************
  2204 ;; Defined at:
  2205 ;;		line 225 in file "APP/app.c"
  2206 ;; Parameters:    Size  Location     Type
  2207 ;;		None
  2208 ;; Auto vars:     Size  Location     Type
  2209 ;;		None
  2210 ;; Return value:  Size  Location     Type
  2211 ;;                  1    wreg      void 
  2212 ;; Registers used:
  2213 ;;		wreg, fsr2l, fsr2h, status,2, status,0, cstack
  2214 ;; Tracked objects:
  2215 ;;		On entry : 0/0
  2216 ;;		On exit  : 0/0
  2217 ;;		Unchanged: 0/0
  2218 ;; Data sizes:     COMRAM   BANK0   BANK1   BANK2   BANK3   BANK4   BANK5
  2219 ;;      Params:         0       0       0       0       0       0       0
  2220 ;;      Locals:         0       0       0       0       0       0       0
  2221 ;;      Temps:          0       0       0       0       0       0       0
  2222 ;;      Totals:         0       0       0       0       0       0       0
  2223 ;;Total ram usage:        0 bytes
  2224 ;; Hardware stack levels used: 1
  2225 ;; Hardware stack levels required when called: 5
  2226 ;; This function calls:
  2227 ;;		_col5
  2228 ;;		_col6
  2229 ;;		_col7
  2230 ;;		_col8
  2231 ;;		_lcd_cmd
  2232 ;;		_lcd_data
  2233 ;;		_write_to_eeprom
  2234 ;; This function is called by:
  2235 ;;		_runApp
  2236 ;; This function uses a non-reentrant model
  2237 ;;
  2238                           
  2239                           	psect	text9
  2240   000B24                     __ptext9:
  2241                           	callstack 0
  2242   000B24                     _set_password:
  2243                           	callstack 24
  2244   000B24                     
  2245                           ;APP/app.c: 227:          for(i=0;enter_newPass_msg[i]!='\0';i++)
  2246   000B24  0E00               	movlw	0
  2247   000B26  6E55               	movwf	(_i+1)^0,c
  2248   000B28  0E00               	movlw	0
  2249   000B2A  6E54               	movwf	_i^0,c
  2250   000B2C  EFA1  F005         	goto	l3234
  2251   000B30                     l3230:
  2252                           
  2253                           ;APP/app.c: 228:          {;APP/app.c: 229:               lcd_data(enter_newPass_msg[i])
      +                          ;
  2254   000B30  5054               	movf	_i^0,w,c
  2255   000B32  0F8F               	addlw	low _enter_newPass_msg
  2256   000B34  6ED9               	movwf	fsr2l,c
  2257   000B36  6ADA               	clrf	fsr2h,c
  2258   000B38  50DF               	movf	indf2,w,c
  2259   000B3A  ECD4  F00D         	call	_lcd_data
  2260   000B3E                     
  2261                           ;APP/app.c: 230:          }
  2262   000B3E  4A54               	infsnz	_i^0,f,c
  2263   000B40  2A55               	incf	(_i+1)^0,f,c
  2264   000B42                     l3234:
  2265   000B42  5054               	movf	_i^0,w,c
  2266   000B44  0F8F               	addlw	low _enter_newPass_msg
  2267   000B46  6ED9               	movwf	fsr2l,c
  2268   000B48  6ADA               	clrf	fsr2h,c
  2269   000B4A  50DF               	movf	indf2,w,c
  2270   000B4C  A4D8               	btfss	status,2,c
  2271   000B4E  EFAB  F005         	goto	u2801
  2272   000B52  EFAD  F005         	goto	u2800
  2273   000B56                     u2801:
  2274   000B56  EF98  F005         	goto	l3230
  2275   000B5A                     u2800:
  2276   000B5A                     
  2277                           ;APP/app.c: 231:          lcd_cmd(0xc0);
  2278   000B5A  0EC0               	movlw	192
  2279   000B5C  ECB2  F00D         	call	_lcd_cmd
  2280   000B60                     
  2281                           ;APP/app.c: 232:        for(i=0;i<4;i++)
  2282   000B60  0E00               	movlw	0
  2283   000B62  6E55               	movwf	(_i+1)^0,c
  2284   000B64  0E00               	movlw	0
  2285   000B66  6E54               	movwf	_i^0,c
  2286   000B68                     l3240:
  2287   000B68  BE55               	btfsc	(_i+1)^0,7,c
  2288   000B6A  EFC0  F005         	goto	u2811
  2289   000B6E  5055               	movf	(_i+1)^0,w,c
  2290   000B70  E109               	bnz	u2810
  2291   000B72  0E04               	movlw	4
  2292   000B74  5C54               	subwf	_i^0,w,c
  2293   000B76  A0D8               	btfss	status,0,c
  2294   000B78  EFC0  F005         	goto	u2811
  2295   000B7C  EFC2  F005         	goto	u2810
  2296   000B80                     u2811:
  2297   000B80  EFC4  F005         	goto	l195
  2298   000B84                     u2810:
  2299   000B84  EF0C  F006         	goto	l3268
  2300   000B88                     l195:
  2301                           
  2302                           ;APP/app.c: 233:          {;APP/app.c: 234:              PORTBbits.RB0=PORTBbits.RB1=POR
      +                          TBbits.RB2=PORTBbits.RB3=0;
  2303   000B88  9681               	bcf	129,3,c	;volatile
  2304   000B8A  9481               	bcf	129,2,c	;volatile
  2305   000B8C  9281               	bcf	129,1,c	;volatile
  2306   000B8E  9081               	bcf	129,0,c	;volatile
  2307   000B90                     l197:
  2308   000B90  A881               	btfss	129,4,c	;volatile
  2309   000B92  EFCD  F005         	goto	u2821
  2310   000B96  EFCF  F005         	goto	u2820
  2311   000B9A                     u2821:
  2312   000B9A  EFE4  F005         	goto	l201
  2313   000B9E                     u2820:
  2314   000B9E  AA81               	btfss	129,5,c	;volatile
  2315   000BA0  EFD4  F005         	goto	u2831
  2316   000BA4  EFD6  F005         	goto	u2830
  2317   000BA8                     u2831:
  2318   000BA8  EFE4  F005         	goto	l201
  2319   000BAC                     u2830:
  2320   000BAC  AC81               	btfss	129,6,c	;volatile
  2321   000BAE  EFDB  F005         	goto	u2841
  2322   000BB2  EFDD  F005         	goto	u2840
  2323   000BB6                     u2841:
  2324   000BB6  EFE4  F005         	goto	l201
  2325   000BBA                     u2840:
  2326   000BBA  BE81               	btfsc	129,7,c	;volatile
  2327   000BBC  EFE2  F005         	goto	u2851
  2328   000BC0  EFE4  F005         	goto	u2850
  2329   000BC4                     u2851:
  2330   000BC4  EFC8  F005         	goto	l197
  2331   000BC8                     u2850:
  2332   000BC8                     l201:
  2333                           
  2334                           ;APP/app.c: 236:              if(PORTBbits.RB4==0)
  2335   000BC8  B881               	btfsc	129,4,c	;volatile
  2336   000BCA  EFE9  F005         	goto	u2861
  2337   000BCE  EFEB  F005         	goto	u2860
  2338   000BD2                     u2861:
  2339   000BD2  EFED  F005         	goto	l3252
  2340   000BD6                     u2860:
  2341   000BD6                     
  2342                           ;APP/app.c: 237:              {;APP/app.c: 238:                  col5();
  2343   000BD6  EC8D  F008         	call	_col5	;wreg free
  2344   000BDA                     l3252:
  2345                           
  2346                           ;APP/app.c: 240:              if(PORTBbits.RB5==0)
  2347   000BDA  BA81               	btfsc	129,5,c	;volatile
  2348   000BDC  EFF2  F005         	goto	u2871
  2349   000BE0  EFF4  F005         	goto	u2870
  2350   000BE4                     u2871:
  2351   000BE4  EFF6  F005         	goto	l3256
  2352   000BE8                     u2870:
  2353   000BE8                     
  2354                           ;APP/app.c: 241:              {;APP/app.c: 242:                  col6();
  2355   000BE8  EC22  F008         	call	_col6	;wreg free
  2356   000BEC                     l3256:
  2357                           
  2358                           ;APP/app.c: 244:              if(PORTBbits.RB6==0)
  2359   000BEC  BC81               	btfsc	129,6,c	;volatile
  2360   000BEE  EFFB  F005         	goto	u2881
  2361   000BF2  EFFD  F005         	goto	u2880
  2362   000BF6                     u2881:
  2363   000BF6  EFFF  F005         	goto	l3260
  2364   000BFA                     u2880:
  2365   000BFA                     
  2366                           ;APP/app.c: 245:              {;APP/app.c: 246:                  col7();
  2367   000BFA  ECB7  F007         	call	_col7	;wreg free
  2368   000BFE                     l3260:
  2369                           
  2370                           ;APP/app.c: 248:              if(PORTBbits.RB7==0)
  2371   000BFE  BE81               	btfsc	129,7,c	;volatile
  2372   000C00  EF04  F006         	goto	u2891
  2373   000C04  EF06  F006         	goto	u2890
  2374   000C08                     u2891:
  2375   000C08  EF08  F006         	goto	l3264
  2376   000C0C                     u2890:
  2377   000C0C                     
  2378                           ;APP/app.c: 249:              {;APP/app.c: 250:                  col8();
  2379   000C0C  EC39  F00A         	call	_col8	;wreg free
  2380   000C10                     l3264:
  2381                           
  2382                           ;APP/app.c: 252:           }
  2383   000C10  4A54               	infsnz	_i^0,f,c
  2384   000C12  2A55               	incf	(_i+1)^0,f,c
  2385   000C14  EFB4  F005         	goto	l3240
  2386   000C18                     l3268:
  2387                           
  2388                           ;APP/app.c: 253:        write_to_eeprom(address, set_passcode[0]);
  2389   000C18  C020  F029         	movff	_set_passcode,write_to_eeprom@data
  2390   000C1C  0E00               	movlw	0
  2391   000C1E  EC8E  F00D         	call	_write_to_eeprom
  2392                           
  2393                           ;APP/app.c: 254:        write_to_eeprom(address+1, set_passcode[1]);
  2394   000C22  C021  F029         	movff	_set_passcode+1,write_to_eeprom@data
  2395   000C26  0E01               	movlw	1
  2396   000C28  EC8E  F00D         	call	_write_to_eeprom
  2397                           
  2398                           ;APP/app.c: 255:        write_to_eeprom(address+2, set_passcode[2]);
  2399   000C2C  C022  F029         	movff	_set_passcode+2,write_to_eeprom@data
  2400   000C30  0E02               	movlw	2
  2401   000C32  EC8E  F00D         	call	_write_to_eeprom
  2402                           
  2403                           ;APP/app.c: 256:        write_to_eeprom(address+3, set_passcode[3]);
  2404   000C36  C023  F029         	movff	_set_passcode+3,write_to_eeprom@data
  2405   000C3A  0E03               	movlw	3
  2406   000C3C  EC8E  F00D         	call	_write_to_eeprom
  2407   000C40  0012               	return		;funcret
  2408   000C42                     __end_of_set_password:
  2409                           	callstack 0
  2410                           
  2411 ;; *************** function _write_to_eeprom *****************
  2412 ;; Defined at:
  2413 ;;		line 18 in file "APP/EEPROM.c"
  2414 ;; Parameters:    Size  Location     Type
  2415 ;;  address         1    wreg     unsigned char 
  2416 ;;  data            1    0[COMRAM] unsigned char 
  2417 ;; Auto vars:     Size  Location     Type
  2418 ;;  address         1    1[COMRAM] unsigned char 
  2419 ;; Return value:  Size  Location     Type
  2420 ;;                  1    wreg      void 
  2421 ;; Registers used:
  2422 ;;		wreg, status,2
  2423 ;; Tracked objects:
  2424 ;;		On entry : 0/0
  2425 ;;		On exit  : 0/0
  2426 ;;		Unchanged: 0/0
  2427 ;; Data sizes:     COMRAM   BANK0   BANK1   BANK2   BANK3   BANK4   BANK5
  2428 ;;      Params:         1       0       0       0       0       0       0
  2429 ;;      Locals:         1       0       0       0       0       0       0
  2430 ;;      Temps:          0       0       0       0       0       0       0
  2431 ;;      Totals:         2       0       0       0       0       0       0
  2432 ;;Total ram usage:        2 bytes
  2433 ;; Hardware stack levels used: 1
  2434 ;; This function calls:
  2435 ;;		Nothing
  2436 ;; This function is called by:
  2437 ;;		_set_password
  2438 ;; This function uses a non-reentrant model
  2439 ;;
  2440                           
  2441                           	psect	text10
  2442   001B1C                     __ptext10:
  2443                           	callstack 0
  2444   001B1C                     _write_to_eeprom:
  2445                           	callstack 28
  2446                           
  2447                           ;incstack = 0
  2448                           ;write_to_eeprom@address stored from wreg
  2449   001B1C  6E2A               	movwf	write_to_eeprom@address^0,c
  2450   001B1E                     l484:
  2451   001B1E  B2A6               	btfsc	166,1,c	;volsfr
  2452   001B20  EF94  F00D         	goto	u2641
  2453   001B24  EF96  F00D         	goto	u2640
  2454   001B28                     u2641:
  2455   001B28  EF8F  F00D         	goto	l484
  2456   001B2C                     u2640:
  2457   001B2C  B0A6               	btfsc	166,0,c	;volsfr
  2458   001B2E  EF9B  F00D         	goto	u2651
  2459   001B32  EF9D  F00D         	goto	u2650
  2460   001B36                     u2651:
  2461   001B36  EF8F  F00D         	goto	l484
  2462   001B3A                     u2650:
  2463   001B3A                     
  2464                           ;APP/EEPROM.c: 21:     EEADR = address;
  2465   001B3A  C02A  FFA9         	movff	write_to_eeprom@address,4009	;volatile
  2466   001B3E                     
  2467                           ;APP/EEPROM.c: 22:     EEDATA = data;
  2468   001B3E  C029  FFA8         	movff	write_to_eeprom@data,4008	;volatile
  2469   001B42                     
  2470                           ;APP/EEPROM.c: 23:     EECON1bits.EEPGD = 0;
  2471   001B42  9EA6               	bcf	166,7,c	;volsfr
  2472   001B44                     
  2473                           ;APP/EEPROM.c: 24:     EECON1bits.CFGS = 0;
  2474   001B44  9CA6               	bcf	166,6,c	;volsfr
  2475   001B46                     
  2476                           ;APP/EEPROM.c: 25:     EECON1bits.WREN = 1;
  2477   001B46  84A6               	bsf	166,2,c	;volsfr
  2478   001B48                     
  2479                           ;APP/EEPROM.c: 28:     EECON2 = 0x55;
  2480   001B48  0E55               	movlw	85
  2481   001B4A  6EA7               	movwf	167,c	;volsfr
  2482   001B4C                     
  2483                           ;APP/EEPROM.c: 29:     EECON2 = 0xAA;
  2484   001B4C  0EAA               	movlw	170
  2485   001B4E  6EA7               	movwf	167,c	;volsfr
  2486   001B50                     
  2487                           ;APP/EEPROM.c: 30:     EECON1bits.WR = 1;
  2488   001B50  82A6               	bsf	166,1,c	;volsfr
  2489   001B52                     l487:
  2490   001B52  B2A6               	btfsc	166,1,c	;volsfr
  2491   001B54  EFAE  F00D         	goto	u2661
  2492   001B58  EFB0  F00D         	goto	u2660
  2493   001B5C                     u2661:
  2494   001B5C  EFA9  F00D         	goto	l487
  2495   001B60                     u2660:
  2496   001B60                     
  2497                           ;APP/EEPROM.c: 33:     EECON1bits.WREN = 0;
  2498   001B60  94A6               	bcf	166,2,c	;volsfr
  2499   001B62  0012               	return		;funcret
  2500   001B64                     __end_of_write_to_eeprom:
  2501                           	callstack 0
  2502                           
  2503 ;; *************** function _col8 *****************
  2504 ;; Defined at:
  2505 ;;		line 352 in file "APP/keypad.c"
  2506 ;; Parameters:    Size  Location     Type
  2507 ;;		None
  2508 ;; Auto vars:     Size  Location     Type
  2509 ;;		None
  2510 ;; Return value:  Size  Location     Type
  2511 ;;                  1    wreg      void 
  2512 ;; Registers used:
  2513 ;;		wreg, fsr2l, fsr2h, status,2, status,0, cstack
  2514 ;; Tracked objects:
  2515 ;;		On entry : 0/0
  2516 ;;		On exit  : 0/0
  2517 ;;		Unchanged: 0/0
  2518 ;; Data sizes:     COMRAM   BANK0   BANK1   BANK2   BANK3   BANK4   BANK5
  2519 ;;      Params:         0       0       0       0       0       0       0
  2520 ;;      Locals:         0       0       0       0       0       0       0
  2521 ;;      Temps:          0       0       0       0       0       0       0
  2522 ;;      Totals:         0       0       0       0       0       0       0
  2523 ;;Total ram usage:        0 bytes
  2524 ;; Hardware stack levels used: 1
  2525 ;; Hardware stack levels required when called: 4
  2526 ;; This function calls:
  2527 ;;		_lcd_data
  2528 ;; This function is called by:
  2529 ;;		_set_password
  2530 ;; This function uses a non-reentrant model
  2531 ;;
  2532                           
  2533                           	psect	text11
  2534   001472                     __ptext11:
  2535                           	callstack 0
  2536   001472                     _col8:
  2537                           	callstack 24
  2538   001472                     
  2539                           ;APP/keypad.c: 354:     PORTBbits.RB0=PORTBbits.RB1=PORTBbits.RB2=PORTBbits.RB3=1;
  2540   001472  8681               	bsf	129,3,c	;volatile
  2541   001474  8481               	bsf	129,2,c	;volatile
  2542   001476  8281               	bsf	129,1,c	;volatile
  2543   001478  8081               	bsf	129,0,c	;volatile
  2544                           
  2545                           ;APP/keypad.c: 355:     PORTBbits.RB0=0;
  2546   00147A  9081               	bcf	129,0,c	;volatile
  2547                           
  2548                           ;APP/keypad.c: 356:     if(PORTBbits.RB7==0)
  2549   00147C  BE81               	btfsc	129,7,c	;volatile
  2550   00147E  EF43  F00A         	goto	u2561
  2551   001482  EF45  F00A         	goto	u2560
  2552   001486                     u2561:
  2553   001486  EF55  F00A         	goto	l3090
  2554   00148A                     u2560:
  2555   00148A                     l404:
  2556                           
  2557                           ;APP/keypad.c: 358:         while(PORTBbits.RB7==0)
  2558   00148A  AE81               	btfss	129,7,c	;volatile
  2559   00148C  EF4A  F00A         	goto	u2571
  2560   001490  EF4C  F00A         	goto	u2570
  2561   001494                     u2571:
  2562   001494  EF45  F00A         	goto	l404
  2563   001498                     u2570:
  2564   001498                     
  2565                           ;APP/keypad.c: 360:         lcd_data('*');
  2566   001498  0E2A               	movlw	42
  2567   00149A  ECD4  F00D         	call	_lcd_data
  2568   00149E                     
  2569                           ;APP/keypad.c: 362:         set_passcode[i]='A';
  2570   00149E  5054               	movf	_i^0,w,c
  2571   0014A0  0F20               	addlw	low _set_passcode
  2572   0014A2  6ED9               	movwf	fsr2l,c
  2573   0014A4  6ADA               	clrf	fsr2h,c
  2574   0014A6  0E41               	movlw	65
  2575   0014A8  6EDF               	movwf	indf2,c
  2576   0014AA                     l3090:
  2577                           
  2578                           ;APP/keypad.c: 365:     PORTBbits.RB0=1;
  2579   0014AA  8081               	bsf	129,0,c	;volatile
  2580   0014AC                     
  2581                           ;APP/keypad.c: 366:     PORTBbits.RB1=0;
  2582   0014AC  9281               	bcf	129,1,c	;volatile
  2583   0014AE                     
  2584                           ;APP/keypad.c: 367:     if(PORTBbits.RB7==0)
  2585   0014AE  BE81               	btfsc	129,7,c	;volatile
  2586   0014B0  EF5C  F00A         	goto	u2581
  2587   0014B4  EF5E  F00A         	goto	u2580
  2588   0014B8                     u2581:
  2589   0014B8  EF6E  F00A         	goto	l3102
  2590   0014BC                     u2580:
  2591   0014BC                     l408:
  2592                           
  2593                           ;APP/keypad.c: 369:         while(PORTBbits.RB7==0)
  2594   0014BC  AE81               	btfss	129,7,c	;volatile
  2595   0014BE  EF63  F00A         	goto	u2591
  2596   0014C2  EF65  F00A         	goto	u2590
  2597   0014C6                     u2591:
  2598   0014C6  EF5E  F00A         	goto	l408
  2599   0014CA                     u2590:
  2600   0014CA                     
  2601                           ;APP/keypad.c: 371:         lcd_data('*');
  2602   0014CA  0E2A               	movlw	42
  2603   0014CC  ECD4  F00D         	call	_lcd_data
  2604   0014D0                     
  2605                           ;APP/keypad.c: 373:         set_passcode[i]='B';
  2606   0014D0  5054               	movf	_i^0,w,c
  2607   0014D2  0F20               	addlw	low _set_passcode
  2608   0014D4  6ED9               	movwf	fsr2l,c
  2609   0014D6  6ADA               	clrf	fsr2h,c
  2610   0014D8  0E42               	movlw	66
  2611   0014DA  6EDF               	movwf	indf2,c
  2612   0014DC                     l3102:
  2613                           
  2614                           ;APP/keypad.c: 376:     PORTBbits.RB1=1;
  2615   0014DC  8281               	bsf	129,1,c	;volatile
  2616   0014DE                     
  2617                           ;APP/keypad.c: 377:     PORTBbits.RB2=0;
  2618   0014DE  9481               	bcf	129,2,c	;volatile
  2619   0014E0                     
  2620                           ;APP/keypad.c: 378:     if(PORTBbits.RB7==0)
  2621   0014E0  BE81               	btfsc	129,7,c	;volatile
  2622   0014E2  EF75  F00A         	goto	u2601
  2623   0014E6  EF77  F00A         	goto	u2600
  2624   0014EA                     u2601:
  2625   0014EA  EF87  F00A         	goto	l3114
  2626   0014EE                     u2600:
  2627   0014EE                     l412:
  2628                           
  2629                           ;APP/keypad.c: 380:         while(PORTBbits.RB7==0)
  2630   0014EE  AE81               	btfss	129,7,c	;volatile
  2631   0014F0  EF7C  F00A         	goto	u2611
  2632   0014F4  EF7E  F00A         	goto	u2610
  2633   0014F8                     u2611:
  2634   0014F8  EF77  F00A         	goto	l412
  2635   0014FC                     u2610:
  2636   0014FC                     
  2637                           ;APP/keypad.c: 382:         lcd_data('*');
  2638   0014FC  0E2A               	movlw	42
  2639   0014FE  ECD4  F00D         	call	_lcd_data
  2640   001502                     
  2641                           ;APP/keypad.c: 384:         set_passcode[i]='C';
  2642   001502  5054               	movf	_i^0,w,c
  2643   001504  0F20               	addlw	low _set_passcode
  2644   001506  6ED9               	movwf	fsr2l,c
  2645   001508  6ADA               	clrf	fsr2h,c
  2646   00150A  0E43               	movlw	67
  2647   00150C  6EDF               	movwf	indf2,c
  2648   00150E                     l3114:
  2649                           
  2650                           ;APP/keypad.c: 387:     PORTBbits.RB2=1;
  2651   00150E  8481               	bsf	129,2,c	;volatile
  2652   001510                     
  2653                           ;APP/keypad.c: 388:     PORTBbits.RB3=0;
  2654   001510  9681               	bcf	129,3,c	;volatile
  2655   001512                     
  2656                           ;APP/keypad.c: 389:     if(PORTBbits.RB7==0)
  2657   001512  BE81               	btfsc	129,7,c	;volatile
  2658   001514  EF8E  F00A         	goto	u2621
  2659   001518  EF90  F00A         	goto	u2620
  2660   00151C                     u2621:
  2661   00151C  EFA0  F00A         	goto	l3126
  2662   001520                     u2620:
  2663   001520                     l416:
  2664                           
  2665                           ;APP/keypad.c: 391:         while(PORTBbits.RB7==0)
  2666   001520  AE81               	btfss	129,7,c	;volatile
  2667   001522  EF95  F00A         	goto	u2631
  2668   001526  EF97  F00A         	goto	u2630
  2669   00152A                     u2631:
  2670   00152A  EF90  F00A         	goto	l416
  2671   00152E                     u2630:
  2672   00152E                     
  2673                           ;APP/keypad.c: 393:             lcd_data('*');
  2674   00152E  0E2A               	movlw	42
  2675   001530  ECD4  F00D         	call	_lcd_data
  2676   001534                     
  2677                           ;APP/keypad.c: 395:             set_passcode[i]='D';
  2678   001534  5054               	movf	_i^0,w,c
  2679   001536  0F20               	addlw	low _set_passcode
  2680   001538  6ED9               	movwf	fsr2l,c
  2681   00153A  6ADA               	clrf	fsr2h,c
  2682   00153C  0E44               	movlw	68
  2683   00153E  6EDF               	movwf	indf2,c
  2684   001540                     l3126:
  2685                           
  2686                           ;APP/keypad.c: 397:     PORTBbits.RB3=1;
  2687   001540  8681               	bsf	129,3,c	;volatile
  2688   001542  0012               	return		;funcret
  2689   001544                     __end_of_col8:
  2690                           	callstack 0
  2691                           
  2692 ;; *************** function _col7 *****************
  2693 ;; Defined at:
  2694 ;;		line 302 in file "APP/keypad.c"
  2695 ;; Parameters:    Size  Location     Type
  2696 ;;		None
  2697 ;; Auto vars:     Size  Location     Type
  2698 ;;		None
  2699 ;; Return value:  Size  Location     Type
  2700 ;;                  1    wreg      void 
  2701 ;; Registers used:
  2702 ;;		wreg, fsr2l, fsr2h, status,2, status,0, cstack
  2703 ;; Tracked objects:
  2704 ;;		On entry : 0/0
  2705 ;;		On exit  : 0/0
  2706 ;;		Unchanged: 0/0
  2707 ;; Data sizes:     COMRAM   BANK0   BANK1   BANK2   BANK3   BANK4   BANK5
  2708 ;;      Params:         0       0       0       0       0       0       0
  2709 ;;      Locals:         0       0       0       0       0       0       0
  2710 ;;      Temps:          0       0       0       0       0       0       0
  2711 ;;      Totals:         0       0       0       0       0       0       0
  2712 ;;Total ram usage:        0 bytes
  2713 ;; Hardware stack levels used: 1
  2714 ;; Hardware stack levels required when called: 4
  2715 ;; This function calls:
  2716 ;;		_lcd_data
  2717 ;; This function is called by:
  2718 ;;		_set_password
  2719 ;; This function uses a non-reentrant model
  2720 ;;
  2721                           
  2722                           	psect	text12
  2723   000F6E                     __ptext12:
  2724                           	callstack 0
  2725   000F6E                     _col7:
  2726                           	callstack 24
  2727   000F6E                     
  2728                           ;APP/keypad.c: 304:     PORTBbits.RB0=PORTBbits.RB1=PORTBbits.RB2=PORTBbits.RB3=1;
  2729   000F6E  8681               	bsf	129,3,c	;volatile
  2730   000F70  8481               	bsf	129,2,c	;volatile
  2731   000F72  8281               	bsf	129,1,c	;volatile
  2732   000F74  8081               	bsf	129,0,c	;volatile
  2733                           
  2734                           ;APP/keypad.c: 305:     PORTBbits.RB0=0;
  2735   000F76  9081               	bcf	129,0,c	;volatile
  2736                           
  2737                           ;APP/keypad.c: 306:     if(PORTBbits.RB6==0)
  2738   000F78  BC81               	btfsc	129,6,c	;volatile
  2739   000F7A  EFC1  F007         	goto	u2481
  2740   000F7E  EFC3  F007         	goto	u2480
  2741   000F82                     u2481:
  2742   000F82  EFD5  F007         	goto	l3044
  2743   000F86                     u2480:
  2744   000F86                     l385:
  2745                           
  2746                           ;APP/keypad.c: 308:         while(PORTBbits.RB6==0)
  2747   000F86  AC81               	btfss	129,6,c	;volatile
  2748   000F88  EFC8  F007         	goto	u2491
  2749   000F8C  EFCA  F007         	goto	u2490
  2750   000F90                     u2491:
  2751   000F90  EFC3  F007         	goto	l385
  2752   000F94                     u2490:
  2753   000F94                     
  2754                           ;APP/keypad.c: 310:         lcd_data('*');
  2755   000F94  0E2A               	movlw	42
  2756   000F96  ECD4  F00D         	call	_lcd_data
  2757   000F9A                     
  2758                           ;APP/keypad.c: 312:         set_passcode[i]='3';
  2759   000F9A  5054               	movf	_i^0,w,c
  2760   000F9C  0F20               	addlw	low _set_passcode
  2761   000F9E  6ED9               	movwf	fsr2l,c
  2762   000FA0  6ADA               	clrf	fsr2h,c
  2763   000FA2  0E33               	movlw	51
  2764   000FA4  6EDF               	movwf	indf2,c
  2765   000FA6                     
  2766                           ;APP/keypad.c: 313:         ch = '3';
  2767   000FA6  0E33               	movlw	51
  2768   000FA8  6E59               	movwf	_ch^0,c
  2769   000FAA                     l3044:
  2770                           
  2771                           ;APP/keypad.c: 316:     PORTBbits.RB0=1;
  2772   000FAA  8081               	bsf	129,0,c	;volatile
  2773   000FAC                     
  2774                           ;APP/keypad.c: 317:     PORTBbits.RB1=0;
  2775   000FAC  9281               	bcf	129,1,c	;volatile
  2776   000FAE                     
  2777                           ;APP/keypad.c: 318:     if(PORTBbits.RB6==0)
  2778   000FAE  BC81               	btfsc	129,6,c	;volatile
  2779   000FB0  EFDC  F007         	goto	u2501
  2780   000FB4  EFDE  F007         	goto	u2500
  2781   000FB8                     u2501:
  2782   000FB8  EFEE  F007         	goto	l3056
  2783   000FBC                     u2500:
  2784   000FBC                     l389:
  2785                           
  2786                           ;APP/keypad.c: 320:         while(PORTBbits.RB6==0)
  2787   000FBC  AC81               	btfss	129,6,c	;volatile
  2788   000FBE  EFE3  F007         	goto	u2511
  2789   000FC2  EFE5  F007         	goto	u2510
  2790   000FC6                     u2511:
  2791   000FC6  EFDE  F007         	goto	l389
  2792   000FCA                     u2510:
  2793   000FCA                     
  2794                           ;APP/keypad.c: 322:         lcd_data('*');
  2795   000FCA  0E2A               	movlw	42
  2796   000FCC  ECD4  F00D         	call	_lcd_data
  2797   000FD0                     
  2798                           ;APP/keypad.c: 324:         set_passcode[i]='6';
  2799   000FD0  5054               	movf	_i^0,w,c
  2800   000FD2  0F20               	addlw	low _set_passcode
  2801   000FD4  6ED9               	movwf	fsr2l,c
  2802   000FD6  6ADA               	clrf	fsr2h,c
  2803   000FD8  0E36               	movlw	54
  2804   000FDA  6EDF               	movwf	indf2,c
  2805   000FDC                     l3056:
  2806                           
  2807                           ;APP/keypad.c: 327:     PORTBbits.RB1=1;
  2808   000FDC  8281               	bsf	129,1,c	;volatile
  2809   000FDE                     
  2810                           ;APP/keypad.c: 328:     PORTBbits.RB2=0;
  2811   000FDE  9481               	bcf	129,2,c	;volatile
  2812   000FE0                     
  2813                           ;APP/keypad.c: 329:     if(PORTBbits.RB6==0)
  2814   000FE0  BC81               	btfsc	129,6,c	;volatile
  2815   000FE2  EFF5  F007         	goto	u2521
  2816   000FE6  EFF7  F007         	goto	u2520
  2817   000FEA                     u2521:
  2818   000FEA  EF07  F008         	goto	l3068
  2819   000FEE                     u2520:
  2820   000FEE                     l393:
  2821                           
  2822                           ;APP/keypad.c: 331:         while(PORTBbits.RB6==0)
  2823   000FEE  AC81               	btfss	129,6,c	;volatile
  2824   000FF0  EFFC  F007         	goto	u2531
  2825   000FF4  EFFE  F007         	goto	u2530
  2826   000FF8                     u2531:
  2827   000FF8  EFF7  F007         	goto	l393
  2828   000FFC                     u2530:
  2829   000FFC                     
  2830                           ;APP/keypad.c: 333:         lcd_data('*');
  2831   000FFC  0E2A               	movlw	42
  2832   000FFE  ECD4  F00D         	call	_lcd_data
  2833   001002                     
  2834                           ;APP/keypad.c: 336:         set_passcode[i]='9';
  2835   001002  5054               	movf	_i^0,w,c
  2836   001004  0F20               	addlw	low _set_passcode
  2837   001006  6ED9               	movwf	fsr2l,c
  2838   001008  6ADA               	clrf	fsr2h,c
  2839   00100A  0E39               	movlw	57
  2840   00100C  6EDF               	movwf	indf2,c
  2841   00100E                     l3068:
  2842                           
  2843                           ;APP/keypad.c: 339:     PORTBbits.RB2=1;
  2844   00100E  8481               	bsf	129,2,c	;volatile
  2845   001010                     
  2846                           ;APP/keypad.c: 340:     PORTBbits.RB3=0;
  2847   001010  9681               	bcf	129,3,c	;volatile
  2848   001012                     
  2849                           ;APP/keypad.c: 341:     if(PORTBbits.RB6==0)
  2850   001012  BC81               	btfsc	129,6,c	;volatile
  2851   001014  EF0E  F008         	goto	u2541
  2852   001018  EF10  F008         	goto	u2540
  2853   00101C                     u2541:
  2854   00101C  EF20  F008         	goto	l3080
  2855   001020                     u2540:
  2856   001020                     l397:
  2857                           
  2858                           ;APP/keypad.c: 343:         while(PORTBbits.RB6==0)
  2859   001020  AC81               	btfss	129,6,c	;volatile
  2860   001022  EF15  F008         	goto	u2551
  2861   001026  EF17  F008         	goto	u2550
  2862   00102A                     u2551:
  2863   00102A  EF10  F008         	goto	l397
  2864   00102E                     u2550:
  2865   00102E                     
  2866                           ;APP/keypad.c: 345:             lcd_data('*');
  2867   00102E  0E2A               	movlw	42
  2868   001030  ECD4  F00D         	call	_lcd_data
  2869   001034                     
  2870                           ;APP/keypad.c: 347:             set_passcode[i]='#';
  2871   001034  5054               	movf	_i^0,w,c
  2872   001036  0F20               	addlw	low _set_passcode
  2873   001038  6ED9               	movwf	fsr2l,c
  2874   00103A  6ADA               	clrf	fsr2h,c
  2875   00103C  0E23               	movlw	35
  2876   00103E  6EDF               	movwf	indf2,c
  2877   001040                     l3080:
  2878                           
  2879                           ;APP/keypad.c: 349:     PORTBbits.RB3=1;
  2880   001040  8681               	bsf	129,3,c	;volatile
  2881   001042  0012               	return		;funcret
  2882   001044                     __end_of_col7:
  2883                           	callstack 0
  2884                           
  2885 ;; *************** function _col6 *****************
  2886 ;; Defined at:
  2887 ;;		line 252 in file "APP/keypad.c"
  2888 ;; Parameters:    Size  Location     Type
  2889 ;;		None
  2890 ;; Auto vars:     Size  Location     Type
  2891 ;;		None
  2892 ;; Return value:  Size  Location     Type
  2893 ;;                  1    wreg      void 
  2894 ;; Registers used:
  2895 ;;		wreg, fsr2l, fsr2h, status,2, status,0, cstack
  2896 ;; Tracked objects:
  2897 ;;		On entry : 0/0
  2898 ;;		On exit  : 0/0
  2899 ;;		Unchanged: 0/0
  2900 ;; Data sizes:     COMRAM   BANK0   BANK1   BANK2   BANK3   BANK4   BANK5
  2901 ;;      Params:         0       0       0       0       0       0       0
  2902 ;;      Locals:         0       0       0       0       0       0       0
  2903 ;;      Temps:          0       0       0       0       0       0       0
  2904 ;;      Totals:         0       0       0       0       0       0       0
  2905 ;;Total ram usage:        0 bytes
  2906 ;; Hardware stack levels used: 1
  2907 ;; Hardware stack levels required when called: 4
  2908 ;; This function calls:
  2909 ;;		_lcd_data
  2910 ;; This function is called by:
  2911 ;;		_set_password
  2912 ;; This function uses a non-reentrant model
  2913 ;;
  2914                           
  2915                           	psect	text13
  2916   001044                     __ptext13:
  2917                           	callstack 0
  2918   001044                     _col6:
  2919                           	callstack 24
  2920   001044                     
  2921                           ;APP/keypad.c: 254:     PORTBbits.RB0=PORTBbits.RB1=PORTBbits.RB2=PORTBbits.RB3=1;
  2922   001044  8681               	bsf	129,3,c	;volatile
  2923   001046  8481               	bsf	129,2,c	;volatile
  2924   001048  8281               	bsf	129,1,c	;volatile
  2925   00104A  8081               	bsf	129,0,c	;volatile
  2926                           
  2927                           ;APP/keypad.c: 255:     PORTBbits.RB0=0;
  2928   00104C  9081               	bcf	129,0,c	;volatile
  2929                           
  2930                           ;APP/keypad.c: 256:     if(PORTBbits.RB5==0)
  2931   00104E  BA81               	btfsc	129,5,c	;volatile
  2932   001050  EF2C  F008         	goto	u2401
  2933   001054  EF2E  F008         	goto	u2400
  2934   001058                     u2401:
  2935   001058  EF40  F008         	goto	l2996
  2936   00105C                     u2400:
  2937   00105C                     l366:
  2938                           
  2939                           ;APP/keypad.c: 258:         while(PORTBbits.RB5==0)
  2940   00105C  AA81               	btfss	129,5,c	;volatile
  2941   00105E  EF33  F008         	goto	u2411
  2942   001062  EF35  F008         	goto	u2410
  2943   001066                     u2411:
  2944   001066  EF2E  F008         	goto	l366
  2945   00106A                     u2410:
  2946   00106A                     
  2947                           ;APP/keypad.c: 260:         lcd_data('*');
  2948   00106A  0E2A               	movlw	42
  2949   00106C  ECD4  F00D         	call	_lcd_data
  2950   001070                     
  2951                           ;APP/keypad.c: 262:         set_passcode[i]='2';
  2952   001070  5054               	movf	_i^0,w,c
  2953   001072  0F20               	addlw	low _set_passcode
  2954   001074  6ED9               	movwf	fsr2l,c
  2955   001076  6ADA               	clrf	fsr2h,c
  2956   001078  0E32               	movlw	50
  2957   00107A  6EDF               	movwf	indf2,c
  2958   00107C                     
  2959                           ;APP/keypad.c: 263:         ch ='2';
  2960   00107C  0E32               	movlw	50
  2961   00107E  6E59               	movwf	_ch^0,c
  2962   001080                     l2996:
  2963                           
  2964                           ;APP/keypad.c: 267:     PORTBbits.RB0=1;
  2965   001080  8081               	bsf	129,0,c	;volatile
  2966   001082                     
  2967                           ;APP/keypad.c: 268:     PORTBbits.RB1=0;
  2968   001082  9281               	bcf	129,1,c	;volatile
  2969   001084                     
  2970                           ;APP/keypad.c: 269:     if(PORTBbits.RB5==0)
  2971   001084  BA81               	btfsc	129,5,c	;volatile
  2972   001086  EF47  F008         	goto	u2421
  2973   00108A  EF49  F008         	goto	u2420
  2974   00108E                     u2421:
  2975   00108E  EF59  F008         	goto	l3008
  2976   001092                     u2420:
  2977   001092                     l370:
  2978                           
  2979                           ;APP/keypad.c: 271:         while(PORTBbits.RB5==0)
  2980   001092  AA81               	btfss	129,5,c	;volatile
  2981   001094  EF4E  F008         	goto	u2431
  2982   001098  EF50  F008         	goto	u2430
  2983   00109C                     u2431:
  2984   00109C  EF49  F008         	goto	l370
  2985   0010A0                     u2430:
  2986   0010A0                     
  2987                           ;APP/keypad.c: 273:         lcd_data('*');
  2988   0010A0  0E2A               	movlw	42
  2989   0010A2  ECD4  F00D         	call	_lcd_data
  2990   0010A6                     
  2991                           ;APP/keypad.c: 275:         set_passcode[i]='5';
  2992   0010A6  5054               	movf	_i^0,w,c
  2993   0010A8  0F20               	addlw	low _set_passcode
  2994   0010AA  6ED9               	movwf	fsr2l,c
  2995   0010AC  6ADA               	clrf	fsr2h,c
  2996   0010AE  0E35               	movlw	53
  2997   0010B0  6EDF               	movwf	indf2,c
  2998   0010B2                     l3008:
  2999                           
  3000                           ;APP/keypad.c: 278:     PORTBbits.RB1=1;
  3001   0010B2  8281               	bsf	129,1,c	;volatile
  3002   0010B4                     
  3003                           ;APP/keypad.c: 279:     PORTBbits.RB2=0;
  3004   0010B4  9481               	bcf	129,2,c	;volatile
  3005   0010B6                     
  3006                           ;APP/keypad.c: 280:     if(PORTBbits.RB5==0)
  3007   0010B6  BA81               	btfsc	129,5,c	;volatile
  3008   0010B8  EF60  F008         	goto	u2441
  3009   0010BC  EF62  F008         	goto	u2440
  3010   0010C0                     u2441:
  3011   0010C0  EF72  F008         	goto	l3020
  3012   0010C4                     u2440:
  3013   0010C4                     l374:
  3014                           
  3015                           ;APP/keypad.c: 282:         while(PORTBbits.RB5==0)
  3016   0010C4  AA81               	btfss	129,5,c	;volatile
  3017   0010C6  EF67  F008         	goto	u2451
  3018   0010CA  EF69  F008         	goto	u2450
  3019   0010CE                     u2451:
  3020   0010CE  EF62  F008         	goto	l374
  3021   0010D2                     u2450:
  3022   0010D2                     
  3023                           ;APP/keypad.c: 284:         lcd_data('*');
  3024   0010D2  0E2A               	movlw	42
  3025   0010D4  ECD4  F00D         	call	_lcd_data
  3026   0010D8                     
  3027                           ;APP/keypad.c: 287:         set_passcode[i]='8';
  3028   0010D8  5054               	movf	_i^0,w,c
  3029   0010DA  0F20               	addlw	low _set_passcode
  3030   0010DC  6ED9               	movwf	fsr2l,c
  3031   0010DE  6ADA               	clrf	fsr2h,c
  3032   0010E0  0E38               	movlw	56
  3033   0010E2  6EDF               	movwf	indf2,c
  3034   0010E4                     l3020:
  3035                           
  3036                           ;APP/keypad.c: 290:     PORTBbits.RB2=1;
  3037   0010E4  8481               	bsf	129,2,c	;volatile
  3038   0010E6                     
  3039                           ;APP/keypad.c: 291:     PORTBbits.RB3=0;
  3040   0010E6  9681               	bcf	129,3,c	;volatile
  3041   0010E8                     
  3042                           ;APP/keypad.c: 292:     if(PORTBbits.RB5==0)
  3043   0010E8  BA81               	btfsc	129,5,c	;volatile
  3044   0010EA  EF79  F008         	goto	u2461
  3045   0010EE  EF7B  F008         	goto	u2460
  3046   0010F2                     u2461:
  3047   0010F2  EF8B  F008         	goto	l3032
  3048   0010F6                     u2460:
  3049   0010F6                     l378:
  3050                           
  3051                           ;APP/keypad.c: 294:         while(PORTBbits.RB5==0)
  3052   0010F6  AA81               	btfss	129,5,c	;volatile
  3053   0010F8  EF80  F008         	goto	u2471
  3054   0010FC  EF82  F008         	goto	u2470
  3055   001100                     u2471:
  3056   001100  EF7B  F008         	goto	l378
  3057   001104                     u2470:
  3058   001104                     
  3059                           ;APP/keypad.c: 296:             lcd_data('*');
  3060   001104  0E2A               	movlw	42
  3061   001106  ECD4  F00D         	call	_lcd_data
  3062   00110A                     
  3063                           ;APP/keypad.c: 298:             set_passcode[i]='0';
  3064   00110A  5054               	movf	_i^0,w,c
  3065   00110C  0F20               	addlw	low _set_passcode
  3066   00110E  6ED9               	movwf	fsr2l,c
  3067   001110  6ADA               	clrf	fsr2h,c
  3068   001112  0E30               	movlw	48
  3069   001114  6EDF               	movwf	indf2,c
  3070   001116                     l3032:
  3071                           
  3072                           ;APP/keypad.c: 300:     PORTBbits.RB3=1;
  3073   001116  8681               	bsf	129,3,c	;volatile
  3074   001118  0012               	return		;funcret
  3075   00111A                     __end_of_col6:
  3076                           	callstack 0
  3077                           
  3078 ;; *************** function _col5 *****************
  3079 ;; Defined at:
  3080 ;;		line 203 in file "APP/keypad.c"
  3081 ;; Parameters:    Size  Location     Type
  3082 ;;		None
  3083 ;; Auto vars:     Size  Location     Type
  3084 ;;		None
  3085 ;; Return value:  Size  Location     Type
  3086 ;;                  1    wreg      void 
  3087 ;; Registers used:
  3088 ;;		wreg, fsr2l, fsr2h, status,2, status,0, cstack
  3089 ;; Tracked objects:
  3090 ;;		On entry : 0/0
  3091 ;;		On exit  : 0/0
  3092 ;;		Unchanged: 0/0
  3093 ;; Data sizes:     COMRAM   BANK0   BANK1   BANK2   BANK3   BANK4   BANK5
  3094 ;;      Params:         0       0       0       0       0       0       0
  3095 ;;      Locals:         0       0       0       0       0       0       0
  3096 ;;      Temps:          0       0       0       0       0       0       0
  3097 ;;      Totals:         0       0       0       0       0       0       0
  3098 ;;Total ram usage:        0 bytes
  3099 ;; Hardware stack levels used: 1
  3100 ;; Hardware stack levels required when called: 4
  3101 ;; This function calls:
  3102 ;;		_lcd_data
  3103 ;; This function is called by:
  3104 ;;		_set_password
  3105 ;; This function uses a non-reentrant model
  3106 ;;
  3107                           
  3108                           	psect	text14
  3109   00111A                     __ptext14:
  3110                           	callstack 0
  3111   00111A                     _col5:
  3112                           	callstack 24
  3113   00111A                     
  3114                           ;APP/keypad.c: 205:     PORTBbits.RB0=PORTBbits.RB1=PORTBbits.RB2=PORTBbits.RB3=1;
  3115   00111A  8681               	bsf	129,3,c	;volatile
  3116   00111C  8481               	bsf	129,2,c	;volatile
  3117   00111E  8281               	bsf	129,1,c	;volatile
  3118   001120  8081               	bsf	129,0,c	;volatile
  3119                           
  3120                           ;APP/keypad.c: 206:     PORTBbits.RB0=0;
  3121   001122  9081               	bcf	129,0,c	;volatile
  3122                           
  3123                           ;APP/keypad.c: 207:     if(PORTBbits.RB4==0)
  3124   001124  B881               	btfsc	129,4,c	;volatile
  3125   001126  EF97  F008         	goto	u2321
  3126   00112A  EF99  F008         	goto	u2320
  3127   00112E                     u2321:
  3128   00112E  EFAB  F008         	goto	l2948
  3129   001132                     u2320:
  3130   001132                     l347:
  3131                           
  3132                           ;APP/keypad.c: 209:         while(PORTBbits.RB4==0)
  3133   001132  A881               	btfss	129,4,c	;volatile
  3134   001134  EF9E  F008         	goto	u2331
  3135   001138  EFA0  F008         	goto	u2330
  3136   00113C                     u2331:
  3137   00113C  EF99  F008         	goto	l347
  3138   001140                     u2330:
  3139   001140                     
  3140                           ;APP/keypad.c: 211:         lcd_data('*');
  3141   001140  0E2A               	movlw	42
  3142   001142  ECD4  F00D         	call	_lcd_data
  3143   001146                     
  3144                           ;APP/keypad.c: 213:         set_passcode[i]='1';
  3145   001146  5054               	movf	_i^0,w,c
  3146   001148  0F20               	addlw	low _set_passcode
  3147   00114A  6ED9               	movwf	fsr2l,c
  3148   00114C  6ADA               	clrf	fsr2h,c
  3149   00114E  0E31               	movlw	49
  3150   001150  6EDF               	movwf	indf2,c
  3151   001152                     
  3152                           ;APP/keypad.c: 214:         ch = '1';
  3153   001152  0E31               	movlw	49
  3154   001154  6E59               	movwf	_ch^0,c
  3155   001156                     l2948:
  3156                           
  3157                           ;APP/keypad.c: 217:     PORTBbits.RB0=1;
  3158   001156  8081               	bsf	129,0,c	;volatile
  3159   001158                     
  3160                           ;APP/keypad.c: 218:     PORTBbits.RB1=0;
  3161   001158  9281               	bcf	129,1,c	;volatile
  3162   00115A                     
  3163                           ;APP/keypad.c: 219:     if(PORTBbits.RB4==0)
  3164   00115A  B881               	btfsc	129,4,c	;volatile
  3165   00115C  EFB2  F008         	goto	u2341
  3166   001160  EFB4  F008         	goto	u2340
  3167   001164                     u2341:
  3168   001164  EFC4  F008         	goto	l2960
  3169   001168                     u2340:
  3170   001168                     l351:
  3171                           
  3172                           ;APP/keypad.c: 221:         while(PORTBbits.RB4==0)
  3173   001168  A881               	btfss	129,4,c	;volatile
  3174   00116A  EFB9  F008         	goto	u2351
  3175   00116E  EFBB  F008         	goto	u2350
  3176   001172                     u2351:
  3177   001172  EFB4  F008         	goto	l351
  3178   001176                     u2350:
  3179   001176                     
  3180                           ;APP/keypad.c: 223:         lcd_data('*');
  3181   001176  0E2A               	movlw	42
  3182   001178  ECD4  F00D         	call	_lcd_data
  3183   00117C                     
  3184                           ;APP/keypad.c: 225:         set_passcode[i]='4';
  3185   00117C  5054               	movf	_i^0,w,c
  3186   00117E  0F20               	addlw	low _set_passcode
  3187   001180  6ED9               	movwf	fsr2l,c
  3188   001182  6ADA               	clrf	fsr2h,c
  3189   001184  0E34               	movlw	52
  3190   001186  6EDF               	movwf	indf2,c
  3191   001188                     l2960:
  3192                           
  3193                           ;APP/keypad.c: 228:     PORTBbits.RB1=1;
  3194   001188  8281               	bsf	129,1,c	;volatile
  3195   00118A                     
  3196                           ;APP/keypad.c: 229:     PORTBbits.RB2=0;
  3197   00118A  9481               	bcf	129,2,c	;volatile
  3198   00118C                     
  3199                           ;APP/keypad.c: 230:     if(PORTBbits.RB4==0)
  3200   00118C  B881               	btfsc	129,4,c	;volatile
  3201   00118E  EFCB  F008         	goto	u2361
  3202   001192  EFCD  F008         	goto	u2360
  3203   001196                     u2361:
  3204   001196  EFDD  F008         	goto	l2972
  3205   00119A                     u2360:
  3206   00119A                     l355:
  3207                           
  3208                           ;APP/keypad.c: 232:         while(PORTBbits.RB4==0)
  3209   00119A  A881               	btfss	129,4,c	;volatile
  3210   00119C  EFD2  F008         	goto	u2371
  3211   0011A0  EFD4  F008         	goto	u2370
  3212   0011A4                     u2371:
  3213   0011A4  EFCD  F008         	goto	l355
  3214   0011A8                     u2370:
  3215   0011A8                     
  3216                           ;APP/keypad.c: 234:         lcd_data('*');
  3217   0011A8  0E2A               	movlw	42
  3218   0011AA  ECD4  F00D         	call	_lcd_data
  3219   0011AE                     
  3220                           ;APP/keypad.c: 237:         set_passcode[i]='7';
  3221   0011AE  5054               	movf	_i^0,w,c
  3222   0011B0  0F20               	addlw	low _set_passcode
  3223   0011B2  6ED9               	movwf	fsr2l,c
  3224   0011B4  6ADA               	clrf	fsr2h,c
  3225   0011B6  0E37               	movlw	55
  3226   0011B8  6EDF               	movwf	indf2,c
  3227   0011BA                     l2972:
  3228                           
  3229                           ;APP/keypad.c: 240:     PORTBbits.RB2=1;
  3230   0011BA  8481               	bsf	129,2,c	;volatile
  3231   0011BC                     
  3232                           ;APP/keypad.c: 241:     PORTBbits.RB3=0;
  3233   0011BC  9681               	bcf	129,3,c	;volatile
  3234   0011BE                     
  3235                           ;APP/keypad.c: 242:     if(PORTBbits.RB4==0)
  3236   0011BE  B881               	btfsc	129,4,c	;volatile
  3237   0011C0  EFE4  F008         	goto	u2381
  3238   0011C4  EFE6  F008         	goto	u2380
  3239   0011C8                     u2381:
  3240   0011C8  EFF6  F008         	goto	l2984
  3241   0011CC                     u2380:
  3242   0011CC                     l359:
  3243                           
  3244                           ;APP/keypad.c: 244:         while(PORTBbits.RB4==0)
  3245   0011CC  A881               	btfss	129,4,c	;volatile
  3246   0011CE  EFEB  F008         	goto	u2391
  3247   0011D2  EFED  F008         	goto	u2390
  3248   0011D6                     u2391:
  3249   0011D6  EFE6  F008         	goto	l359
  3250   0011DA                     u2390:
  3251   0011DA                     
  3252                           ;APP/keypad.c: 246:             lcd_data('*');
  3253   0011DA  0E2A               	movlw	42
  3254   0011DC  ECD4  F00D         	call	_lcd_data
  3255   0011E0                     
  3256                           ;APP/keypad.c: 248:           set_passcode[i]='*';
  3257   0011E0  5054               	movf	_i^0,w,c
  3258   0011E2  0F20               	addlw	low _set_passcode
  3259   0011E4  6ED9               	movwf	fsr2l,c
  3260   0011E6  6ADA               	clrf	fsr2h,c
  3261   0011E8  0E2A               	movlw	42
  3262   0011EA  6EDF               	movwf	indf2,c
  3263   0011EC                     l2984:
  3264                           
  3265                           ;APP/keypad.c: 250:     PORTBbits.RB3=1;
  3266   0011EC  8681               	bsf	129,3,c	;volatile
  3267   0011EE  0012               	return		;funcret
  3268   0011F0                     __end_of_col5:
  3269                           	callstack 0
  3270                           
  3271 ;; *************** function _read_from_eeprom *****************
  3272 ;; Defined at:
  3273 ;;		line 4 in file "APP/EEPROM.c"
  3274 ;; Parameters:    Size  Location     Type
  3275 ;;  address         1    wreg     unsigned char 
  3276 ;; Auto vars:     Size  Location     Type
  3277 ;;  address         1    0[COMRAM] unsigned char 
  3278 ;; Return value:  Size  Location     Type
  3279 ;;                  1    wreg      unsigned char 
  3280 ;; Registers used:
  3281 ;;		wreg, status,2
  3282 ;; Tracked objects:
  3283 ;;		On entry : 0/0
  3284 ;;		On exit  : 0/0
  3285 ;;		Unchanged: 0/0
  3286 ;; Data sizes:     COMRAM   BANK0   BANK1   BANK2   BANK3   BANK4   BANK5
  3287 ;;      Params:         0       0       0       0       0       0       0
  3288 ;;      Locals:         1       0       0       0       0       0       0
  3289 ;;      Temps:          0       0       0       0       0       0       0
  3290 ;;      Totals:         1       0       0       0       0       0       0
  3291 ;;Total ram usage:        1 bytes
  3292 ;; Hardware stack levels used: 1
  3293 ;; This function calls:
  3294 ;;		Nothing
  3295 ;; This function is called by:
  3296 ;;		_runApp
  3297 ;; This function uses a non-reentrant model
  3298 ;;
  3299                           
  3300                           	psect	text15
  3301   001C2A                     __ptext15:
  3302                           	callstack 0
  3303   001C2A                     _read_from_eeprom:
  3304                           	callstack 29
  3305                           
  3306                           ;incstack = 0
  3307                           ;read_from_eeprom@address stored from wreg
  3308   001C2A  6E29               	movwf	read_from_eeprom@address^0,c
  3309   001C2C                     l475:
  3310   001C2C  B2A6               	btfsc	166,1,c	;volsfr
  3311   001C2E  EF1B  F00E         	goto	u2901
  3312   001C32  EF1D  F00E         	goto	u2900
  3313   001C36                     u2901:
  3314   001C36  EF16  F00E         	goto	l475
  3315   001C3A                     u2900:
  3316   001C3A  B0A6               	btfsc	166,0,c	;volsfr
  3317   001C3C  EF22  F00E         	goto	u2911
  3318   001C40  EF24  F00E         	goto	u2910
  3319   001C44                     u2911:
  3320   001C44  EF16  F00E         	goto	l475
  3321   001C48                     u2910:
  3322   001C48                     
  3323                           ;APP/EEPROM.c: 8:     EEADR = address;
  3324   001C48  C029  FFA9         	movff	read_from_eeprom@address,4009	;volatile
  3325   001C4C                     
  3326                           ;APP/EEPROM.c: 9:     EECON1bits.EEPGD = 0;
  3327   001C4C  9EA6               	bcf	166,7,c	;volsfr
  3328   001C4E                     
  3329                           ;APP/EEPROM.c: 10:     EECON1bits.CFGS = 0;
  3330   001C4E  9CA6               	bcf	166,6,c	;volsfr
  3331   001C50                     
  3332                           ;APP/EEPROM.c: 11:     EECON1bits.RD = 1;
  3333   001C50  80A6               	bsf	166,0,c	;volsfr
  3334   001C52                     l478:
  3335   001C52  B0A6               	btfsc	166,0,c	;volsfr
  3336   001C54  EF2E  F00E         	goto	u2921
  3337   001C58  EF30  F00E         	goto	u2920
  3338   001C5C                     u2921:
  3339   001C5C  EF29  F00E         	goto	l478
  3340   001C60                     u2920:
  3341   001C60                     
  3342                           ;APP/EEPROM.c: 15:     return EEDATA;
  3343   001C60  50A8               	movf	168,w,c	;volatile
  3344   001C62  0012               	return		;funcret
  3345   001C64                     __end_of_read_from_eeprom:
  3346                           	callstack 0
  3347                           
  3348 ;; *************** function _lock_door *****************
  3349 ;; Defined at:
  3350 ;;		line 192 in file "APP/app.c"
  3351 ;; Parameters:    Size  Location     Type
  3352 ;;		None
  3353 ;; Auto vars:     Size  Location     Type
  3354 ;;		None
  3355 ;; Return value:  Size  Location     Type
  3356 ;;                  1    wreg      void 
  3357 ;; Registers used:
  3358 ;;		wreg, fsr1l, fsr1h, fsr2l, fsr2h, status,2, status,0, cstack
  3359 ;; Tracked objects:
  3360 ;;		On entry : 0/0
  3361 ;;		On exit  : 0/0
  3362 ;;		Unchanged: 0/0
  3363 ;; Data sizes:     COMRAM   BANK0   BANK1   BANK2   BANK3   BANK4   BANK5
  3364 ;;      Params:         0       0       0       0       0       0       0
  3365 ;;      Locals:         0       0       0       0       0       0       0
  3366 ;;      Temps:          0       0       0       0       0       0       0
  3367 ;;      Totals:         0       0       0       0       0       0       0
  3368 ;;Total ram usage:        0 bytes
  3369 ;; Hardware stack levels used: 1
  3370 ;; Hardware stack levels required when called: 5
  3371 ;; This function calls:
  3372 ;;		_col1
  3373 ;;		_col2
  3374 ;;		_col3
  3375 ;;		_col4
  3376 ;;		_compare
  3377 ;;		_delay
  3378 ;;		_lcd_cmd
  3379 ;;		_lcd_data
  3380 ;;		_lcd_reset
  3381 ;; This function is called by:
  3382 ;;		_runApp
  3383 ;; This function uses a non-reentrant model
  3384 ;;
  3385                           
  3386                           	psect	text16
  3387   000E62                     __ptext16:
  3388                           	callstack 0
  3389   000E62                     _lock_door:
  3390                           	callstack 24
  3391   000E62                     
  3392                           ;APP/app.c: 194:         for(i=0;enter_pass_msg[i]!='\0';i++)
  3393   000E62  0E00               	movlw	0
  3394   000E64  6E55               	movwf	(_i+1)^0,c
  3395   000E66  0E00               	movlw	0
  3396   000E68  6E54               	movwf	_i^0,c
  3397   000E6A  EF40  F007         	goto	l3346
  3398   000E6E                     l3342:
  3399                           
  3400                           ;APP/app.c: 195:          {;APP/app.c: 196:               lcd_data(enter_pass_msg[i]);
  3401   000E6E  5054               	movf	_i^0,w,c
  3402   000E70  0FAD               	addlw	low _enter_pass_msg
  3403   000E72  6ED9               	movwf	fsr2l,c
  3404   000E74  6ADA               	clrf	fsr2h,c
  3405   000E76  50DF               	movf	indf2,w,c
  3406   000E78  ECD4  F00D         	call	_lcd_data
  3407   000E7C                     
  3408                           ;APP/app.c: 197:          }
  3409   000E7C  4A54               	infsnz	_i^0,f,c
  3410   000E7E  2A55               	incf	(_i+1)^0,f,c
  3411   000E80                     l3346:
  3412   000E80  5054               	movf	_i^0,w,c
  3413   000E82  0FAD               	addlw	low _enter_pass_msg
  3414   000E84  6ED9               	movwf	fsr2l,c
  3415   000E86  6ADA               	clrf	fsr2h,c
  3416   000E88  50DF               	movf	indf2,w,c
  3417   000E8A  A4D8               	btfss	status,2,c
  3418   000E8C  EF4A  F007         	goto	u3031
  3419   000E90  EF4C  F007         	goto	u3030
  3420   000E94                     u3031:
  3421   000E94  EF37  F007         	goto	l3342
  3422   000E98                     u3030:
  3423   000E98                     
  3424                           ;APP/app.c: 198:          lcd_cmd(0xc0);
  3425   000E98  0EC0               	movlw	192
  3426   000E9A  ECB2  F00D         	call	_lcd_cmd
  3427   000E9E                     
  3428                           ;APP/app.c: 200:          for(i=0;i<4;i++)
  3429   000E9E  0E00               	movlw	0
  3430   000EA0  6E55               	movwf	(_i+1)^0,c
  3431   000EA2  0E00               	movlw	0
  3432   000EA4  6E54               	movwf	_i^0,c
  3433   000EA6                     l3352:
  3434   000EA6  BE55               	btfsc	(_i+1)^0,7,c
  3435   000EA8  EF5F  F007         	goto	u3041
  3436   000EAC  5055               	movf	(_i+1)^0,w,c
  3437   000EAE  E109               	bnz	u3040
  3438   000EB0  0E04               	movlw	4
  3439   000EB2  5C54               	subwf	_i^0,w,c
  3440   000EB4  A0D8               	btfss	status,0,c
  3441   000EB6  EF5F  F007         	goto	u3041
  3442   000EBA  EF61  F007         	goto	u3040
  3443   000EBE                     u3041:
  3444   000EBE  EF63  F007         	goto	l178
  3445   000EC2                     u3040:
  3446   000EC2  EFAB  F007         	goto	l3380
  3447   000EC6                     l178:
  3448                           
  3449                           ;APP/app.c: 201:          {;APP/app.c: 202:              PORTBbits.RB0=PORTBbits.RB1=POR
      +                          TBbits.RB2=PORTBbits.RB3=0;
  3450   000EC6  9681               	bcf	129,3,c	;volatile
  3451   000EC8  9481               	bcf	129,2,c	;volatile
  3452   000ECA  9281               	bcf	129,1,c	;volatile
  3453   000ECC  9081               	bcf	129,0,c	;volatile
  3454   000ECE                     l180:
  3455   000ECE  A881               	btfss	129,4,c	;volatile
  3456   000ED0  EF6C  F007         	goto	u3051
  3457   000ED4  EF6E  F007         	goto	u3050
  3458   000ED8                     u3051:
  3459   000ED8  EF83  F007         	goto	l184
  3460   000EDC                     u3050:
  3461   000EDC  AA81               	btfss	129,5,c	;volatile
  3462   000EDE  EF73  F007         	goto	u3061
  3463   000EE2  EF75  F007         	goto	u3060
  3464   000EE6                     u3061:
  3465   000EE6  EF83  F007         	goto	l184
  3466   000EEA                     u3060:
  3467   000EEA  AC81               	btfss	129,6,c	;volatile
  3468   000EEC  EF7A  F007         	goto	u3071
  3469   000EF0  EF7C  F007         	goto	u3070
  3470   000EF4                     u3071:
  3471   000EF4  EF83  F007         	goto	l184
  3472   000EF8                     u3070:
  3473   000EF8  BE81               	btfsc	129,7,c	;volatile
  3474   000EFA  EF81  F007         	goto	u3081
  3475   000EFE  EF83  F007         	goto	u3080
  3476   000F02                     u3081:
  3477   000F02  EF67  F007         	goto	l180
  3478   000F06                     u3080:
  3479   000F06                     l184:
  3480                           
  3481                           ;APP/app.c: 204:              if(PORTBbits.RB4==0)
  3482   000F06  B881               	btfsc	129,4,c	;volatile
  3483   000F08  EF88  F007         	goto	u3091
  3484   000F0C  EF8A  F007         	goto	u3090
  3485   000F10                     u3091:
  3486   000F10  EF8C  F007         	goto	l3364
  3487   000F14                     u3090:
  3488   000F14                     
  3489                           ;APP/app.c: 205:              {;APP/app.c: 206:                  col1();
  3490   000F14  ECCE  F009         	call	_col1	;wreg free
  3491   000F18                     l3364:
  3492                           
  3493                           ;APP/app.c: 208:              if(PORTBbits.RB5==0)
  3494   000F18  BA81               	btfsc	129,5,c	;volatile
  3495   000F1A  EF91  F007         	goto	u3101
  3496   000F1E  EF93  F007         	goto	u3100
  3497   000F22                     u3101:
  3498   000F22  EF95  F007         	goto	l3368
  3499   000F26                     u3100:
  3500   000F26                     
  3501                           ;APP/app.c: 209:              {;APP/app.c: 210:                  col2();
  3502   000F26  EC63  F009         	call	_col2	;wreg free
  3503   000F2A                     l3368:
  3504                           
  3505                           ;APP/app.c: 212:              if(PORTBbits.RB6==0)
  3506   000F2A  BC81               	btfsc	129,6,c	;volatile
  3507   000F2C  EF9A  F007         	goto	u3111
  3508   000F30  EF9C  F007         	goto	u3110
  3509   000F34                     u3111:
  3510   000F34  EF9E  F007         	goto	l3372
  3511   000F38                     u3110:
  3512   000F38                     
  3513                           ;APP/app.c: 213:              {;APP/app.c: 214:                  col3();
  3514   000F38  ECF8  F008         	call	_col3	;wreg free
  3515   000F3C                     l3372:
  3516                           
  3517                           ;APP/app.c: 216:              if(PORTBbits.RB7==0)
  3518   000F3C  BE81               	btfsc	129,7,c	;volatile
  3519   000F3E  EFA3  F007         	goto	u3121
  3520   000F42  EFA5  F007         	goto	u3120
  3521   000F46                     u3121:
  3522   000F46  EFA7  F007         	goto	l3376
  3523   000F4A                     u3120:
  3524   000F4A                     
  3525                           ;APP/app.c: 217:              {;APP/app.c: 218:                  col4();
  3526   000F4A  ECA2  F00A         	call	_col4	;wreg free
  3527   000F4E                     l3376:
  3528                           
  3529                           ;APP/app.c: 220:           }
  3530   000F4E  4A54               	infsnz	_i^0,f,c
  3531   000F50  2A55               	incf	(_i+1)^0,f,c
  3532   000F52  EF53  F007         	goto	l3352
  3533   000F56                     l3380:
  3534                           
  3535                           ;APP/app.c: 221:          compare(c);
  3536   000F56  5058               	movf	_c^0,w,c
  3537   000F58  ECD6  F004         	call	_compare
  3538   000F5C                     
  3539                           ;APP/app.c: 222:          delay(2000);
  3540   000F5C  0E07               	movlw	7
  3541   000F5E  6E2A               	movwf	(delay@a+1)^0,c
  3542   000F60  0ED0               	movlw	208
  3543   000F62  6E29               	movwf	delay@a^0,c
  3544   000F64  EC13  F00D         	call	_delay	;wreg free
  3545   000F68                     
  3546                           ;APP/app.c: 223:          lcd_reset();
  3547   000F68  ECB6  F00E         	call	_lcd_reset	;wreg free
  3548   000F6C  0012               	return		;funcret
  3549   000F6E                     __end_of_lock_door:
  3550                           	callstack 0
  3551                           
  3552 ;; *************** function _lcd_reset *****************
  3553 ;; Defined at:
  3554 ;;		line 4 in file "APP/lcd.c"
  3555 ;; Parameters:    Size  Location     Type
  3556 ;;		None
  3557 ;; Auto vars:     Size  Location     Type
  3558 ;;		None
  3559 ;; Return value:  Size  Location     Type
  3560 ;;                  1    wreg      void 
  3561 ;; Registers used:
  3562 ;;		wreg, status,2, status,0, cstack
  3563 ;; Tracked objects:
  3564 ;;		On entry : 0/0
  3565 ;;		On exit  : 0/0
  3566 ;;		Unchanged: 0/0
  3567 ;; Data sizes:     COMRAM   BANK0   BANK1   BANK2   BANK3   BANK4   BANK5
  3568 ;;      Params:         0       0       0       0       0       0       0
  3569 ;;      Locals:         0       0       0       0       0       0       0
  3570 ;;      Temps:          0       0       0       0       0       0       0
  3571 ;;      Totals:         0       0       0       0       0       0       0
  3572 ;;Total ram usage:        0 bytes
  3573 ;; Hardware stack levels used: 1
  3574 ;; Hardware stack levels required when called: 4
  3575 ;; This function calls:
  3576 ;;		_lcd_cmd
  3577 ;; This function is called by:
  3578 ;;		_runApp
  3579 ;;		_unlock_door
  3580 ;;		_lock_door
  3581 ;; This function uses a non-reentrant model
  3582 ;;
  3583                           
  3584                           	psect	text17
  3585   001D6C                     __ptext17:
  3586                           	callstack 0
  3587   001D6C                     _lcd_reset:
  3588                           	callstack 24
  3589   001D6C                     
  3590                           ;APP/lcd.c: 6:  lcd_cmd(0x02);
  3591   001D6C  0E02               	movlw	2
  3592   001D6E  ECB2  F00D         	call	_lcd_cmd
  3593                           
  3594                           ;APP/lcd.c: 7:  lcd_cmd(0x0e);
  3595   001D72  0E0E               	movlw	14
  3596   001D74  ECB2  F00D         	call	_lcd_cmd
  3597                           
  3598                           ;APP/lcd.c: 8:  lcd_cmd(0x01);
  3599   001D78  0E01               	movlw	1
  3600   001D7A  ECB2  F00D         	call	_lcd_cmd
  3601                           
  3602                           ;APP/lcd.c: 9:  lcd_cmd(0x28);
  3603   001D7E  0E28               	movlw	40
  3604   001D80  ECB2  F00D         	call	_lcd_cmd
  3605                           
  3606                           ;APP/lcd.c: 10:  lcd_cmd(0x80);
  3607   001D84  0E80               	movlw	128
  3608   001D86  ECB2  F00D         	call	_lcd_cmd
  3609   001D8A  0012               	return		;funcret
  3610   001D8C                     __end_of_lcd_reset:
  3611                           	callstack 0
  3612                           
  3613 ;; *************** function _compare *****************
  3614 ;; Defined at:
  3615 ;;		line 258 in file "APP/app.c"
  3616 ;; Parameters:    Size  Location     Type
  3617 ;;  c               1    wreg     unsigned char 
  3618 ;; Auto vars:     Size  Location     Type
  3619 ;;  c               1   13[COMRAM] unsigned char 
  3620 ;;  q               3    0        PTR unsigned char 
  3621 ;;  p               2   14[COMRAM] PTR unsigned char 
  3622 ;;		 -> type_passcode(5), NULL(0), 
  3623 ;; Return value:  Size  Location     Type
  3624 ;;                  1    wreg      void 
  3625 ;; Registers used:
  3626 ;;		wreg, fsr1l, fsr1h, fsr2l, fsr2h, status,2, status,0, cstack
  3627 ;; Tracked objects:
  3628 ;;		On entry : 0/0
  3629 ;;		On exit  : 0/0
  3630 ;;		Unchanged: 0/0
  3631 ;; Data sizes:     COMRAM   BANK0   BANK1   BANK2   BANK3   BANK4   BANK5
  3632 ;;      Params:         0       0       0       0       0       0       0
  3633 ;;      Locals:         3       0       0       0       0       0       0
  3634 ;;      Temps:          0       0       0       0       0       0       0
  3635 ;;      Totals:         3       0       0       0       0       0       0
  3636 ;;Total ram usage:        3 bytes
  3637 ;; Hardware stack levels used: 1
  3638 ;; Hardware stack levels required when called: 4
  3639 ;; This function calls:
  3640 ;;		_delay
  3641 ;;		_lcd_cmd
  3642 ;;		_lcd_data
  3643 ;;		_motor_forward
  3644 ;;		_motor_off
  3645 ;;		_motor_reverse
  3646 ;;		_strstr
  3647 ;; This function is called by:
  3648 ;;		_unlock_door
  3649 ;;		_lock_door
  3650 ;; This function uses a non-reentrant model
  3651 ;;
  3652                           
  3653                           	psect	text18
  3654   0009AC                     __ptext18:
  3655                           	callstack 0
  3656   0009AC                     _compare:
  3657                           	callstack 24
  3658                           
  3659                           ;incstack = 0
  3660                           ;compare@c stored from wreg
  3661   0009AC  6E36               	movwf	compare@c^0,c
  3662   0009AE                     
  3663                           ;APP/app.c: 258:     void compare(char c);APP/app.c: 259:     {;APP/app.c: 260:       ch
      +                          ar *p,*q;;APP/app.c: 261:       p=strstr((char*)type_passcode,(char*)old_password);
  3664   0009AE  0E24               	movlw	low _type_passcode
  3665   0009B0  6E30               	movwf	strstr@h^0,c
  3666   0009B2  6A31               	clrf	(strstr@h+1)^0,c
  3667   0009B4  0E5A               	movlw	low _old_password
  3668   0009B6  6E32               	movwf	strstr@n^0,c
  3669   0009B8  EC68  F00B         	call	_strstr	;wreg free
  3670   0009BC  C030  F037         	movff	?_strstr,compare@p
  3671   0009C0  C031  F038         	movff	?_strstr+1,compare@p+1
  3672                           
  3673                           ;APP/app.c: 262:       switch(c)
  3674   0009C4  EF86  F005         	goto	l2936
  3675   0009C8                     l2874:
  3676                           
  3677                           ;APP/app.c: 265:             if(p!=((void*)0))
  3678   0009C8  5037               	movf	compare@p^0,w,c
  3679   0009CA  1038               	iorwf	(compare@p+1)^0,w,c
  3680   0009CC  B4D8               	btfsc	status,2,c
  3681   0009CE  EFEB  F004         	goto	u2261
  3682   0009D2  EFED  F004         	goto	u2260
  3683   0009D6                     u2261:
  3684   0009D6  EF17  F005         	goto	l2892
  3685   0009DA                     u2260:
  3686   0009DA                     
  3687                           ;APP/app.c: 266:             {;APP/app.c: 268:             lcd_cmd(0x01);
  3688   0009DA  0E01               	movlw	1
  3689   0009DC  ECB2  F00D         	call	_lcd_cmd
  3690   0009E0                     
  3691                           ;APP/app.c: 269:             for(i=0;s2[i]!='\0';i++)
  3692   0009E0  0E00               	movlw	0
  3693   0009E2  6E55               	movwf	(_i+1)^0,c
  3694   0009E4  0E00               	movlw	0
  3695   0009E6  6E54               	movwf	_i^0,c
  3696   0009E8  EF01  F005         	goto	l2886
  3697   0009EC                     l2880:
  3698                           
  3699                           ;APP/app.c: 270:             {;APP/app.c: 271:               lcd_data(s2[i]);
  3700   0009EC  5054               	movf	_i^0,w,c
  3701   0009EE  0FBC               	addlw	low _s2
  3702   0009F0  6ED9               	movwf	fsr2l,c
  3703   0009F2  6ADA               	clrf	fsr2h,c
  3704   0009F4  50DF               	movf	indf2,w,c
  3705   0009F6  ECD4  F00D         	call	_lcd_data
  3706   0009FA                     
  3707                           ;APP/app.c: 272:               motor_forward();
  3708   0009FA  ECF1  F00E         	call	_motor_forward	;wreg free
  3709   0009FE                     
  3710                           ;APP/app.c: 273:             }
  3711   0009FE  4A54               	infsnz	_i^0,f,c
  3712   000A00  2A55               	incf	(_i+1)^0,f,c
  3713   000A02                     l2886:
  3714   000A02  5054               	movf	_i^0,w,c
  3715   000A04  0FBC               	addlw	low _s2
  3716   000A06  6ED9               	movwf	fsr2l,c
  3717   000A08  6ADA               	clrf	fsr2h,c
  3718   000A0A  50DF               	movf	indf2,w,c
  3719   000A0C  A4D8               	btfss	status,2,c
  3720   000A0E  EF0B  F005         	goto	u2271
  3721   000A12  EF0D  F005         	goto	u2270
  3722   000A16                     u2271:
  3723   000A16  EFF6  F004         	goto	l2880
  3724   000A1A                     u2270:
  3725   000A1A                     l2888:
  3726                           
  3727                           ;APP/app.c: 274:             delay(10000);
  3728   000A1A  0E27               	movlw	39
  3729   000A1C  6E2A               	movwf	(delay@a+1)^0,c
  3730   000A1E  0E10               	movlw	16
  3731   000A20  6E29               	movwf	delay@a^0,c
  3732   000A22  EC13  F00D         	call	_delay	;wreg free
  3733   000A26                     
  3734                           ;APP/app.c: 275:             motor_off();
  3735   000A26  ECEE  F00E         	call	_motor_off	;wreg free
  3736                           
  3737                           ;APP/app.c: 276:              }
  3738   000A2A  EF91  F005         	goto	l229
  3739   000A2E                     l2892:
  3740                           
  3741                           ;APP/app.c: 278:             {;APP/app.c: 279:             lcd_cmd(0x01);
  3742   000A2E  0E01               	movlw	1
  3743   000A30  ECB2  F00D         	call	_lcd_cmd
  3744   000A34                     
  3745                           ;APP/app.c: 281:             for(i=0;s3[i]!='\0';i++)
  3746   000A34  0E00               	movlw	0
  3747   000A36  6E55               	movwf	(_i+1)^0,c
  3748   000A38  0E00               	movlw	0
  3749   000A3A  6E54               	movwf	_i^0,c
  3750   000A3C  EF2B  F005         	goto	l2902
  3751   000A40                     l2896:
  3752                           
  3753                           ;APP/app.c: 282:             {;APP/app.c: 283:               lcd_data(s3[i]);
  3754   000A40  5054               	movf	_i^0,w,c
  3755   000A42  0F01               	addlw	low _s3
  3756   000A44  6ED9               	movwf	fsr2l,c
  3757   000A46  6ADA               	clrf	fsr2h,c
  3758   000A48  50DF               	movf	indf2,w,c
  3759   000A4A  ECD4  F00D         	call	_lcd_data
  3760   000A4E                     
  3761                           ;APP/app.c: 284:               motor_off();
  3762   000A4E  ECEE  F00E         	call	_motor_off	;wreg free
  3763   000A52                     
  3764                           ;APP/app.c: 285:             }
  3765   000A52  4A54               	infsnz	_i^0,f,c
  3766   000A54  2A55               	incf	(_i+1)^0,f,c
  3767   000A56                     l2902:
  3768   000A56  5054               	movf	_i^0,w,c
  3769   000A58  0F01               	addlw	low _s3
  3770   000A5A  6ED9               	movwf	fsr2l,c
  3771   000A5C  6ADA               	clrf	fsr2h,c
  3772   000A5E  50DF               	movf	indf2,w,c
  3773   000A60  A4D8               	btfss	status,2,c
  3774   000A62  EF35  F005         	goto	u2281
  3775   000A66  EF37  F005         	goto	u2280
  3776   000A6A                     u2281:
  3777   000A6A  EF20  F005         	goto	l2896
  3778   000A6E                     u2280:
  3779   000A6E  EF91  F005         	goto	l229
  3780   000A72                     l2904:
  3781                           
  3782                           ;APP/app.c: 289:             if(p!=((void*)0))
  3783   000A72  5037               	movf	compare@p^0,w,c
  3784   000A74  1038               	iorwf	(compare@p+1)^0,w,c
  3785   000A76  B4D8               	btfsc	status,2,c
  3786   000A78  EF40  F005         	goto	u2291
  3787   000A7C  EF42  F005         	goto	u2290
  3788   000A80                     u2291:
  3789   000A80  EF64  F005         	goto	l2922
  3790   000A84                     u2290:
  3791   000A84                     
  3792                           ;APP/app.c: 290:             {;APP/app.c: 292:             lcd_cmd(0x01);
  3793   000A84  0E01               	movlw	1
  3794   000A86  ECB2  F00D         	call	_lcd_cmd
  3795   000A8A                     
  3796                           ;APP/app.c: 293:             for(i=0;s2[i]!='\0';i++)
  3797   000A8A  0E00               	movlw	0
  3798   000A8C  6E55               	movwf	(_i+1)^0,c
  3799   000A8E  0E00               	movlw	0
  3800   000A90  6E54               	movwf	_i^0,c
  3801   000A92  EF56  F005         	goto	l2916
  3802   000A96                     l2910:
  3803                           
  3804                           ;APP/app.c: 294:             {;APP/app.c: 295:               lcd_data(s2[i]);
  3805   000A96  5054               	movf	_i^0,w,c
  3806   000A98  0FBC               	addlw	low _s2
  3807   000A9A  6ED9               	movwf	fsr2l,c
  3808   000A9C  6ADA               	clrf	fsr2h,c
  3809   000A9E  50DF               	movf	indf2,w,c
  3810   000AA0  ECD4  F00D         	call	_lcd_data
  3811   000AA4                     
  3812                           ;APP/app.c: 296:               motor_reverse();
  3813   000AA4  ECEB  F00E         	call	_motor_reverse	;wreg free
  3814   000AA8                     
  3815                           ;APP/app.c: 297:             }
  3816   000AA8  4A54               	infsnz	_i^0,f,c
  3817   000AAA  2A55               	incf	(_i+1)^0,f,c
  3818   000AAC                     l2916:
  3819   000AAC  5054               	movf	_i^0,w,c
  3820   000AAE  0FBC               	addlw	low _s2
  3821   000AB0  6ED9               	movwf	fsr2l,c
  3822   000AB2  6ADA               	clrf	fsr2h,c
  3823   000AB4  50DF               	movf	indf2,w,c
  3824   000AB6  A4D8               	btfss	status,2,c
  3825   000AB8  EF60  F005         	goto	u2301
  3826   000ABC  EF62  F005         	goto	u2300
  3827   000AC0                     u2301:
  3828   000AC0  EF4B  F005         	goto	l2910
  3829   000AC4                     u2300:
  3830   000AC4  EF0D  F005         	goto	l2888
  3831   000AC8                     l2922:
  3832                           
  3833                           ;APP/app.c: 302:             {;APP/app.c: 303:             lcd_cmd(0x01);
  3834   000AC8  0E01               	movlw	1
  3835   000ACA  ECB2  F00D         	call	_lcd_cmd
  3836   000ACE                     
  3837                           ;APP/app.c: 305:             for(i=0;s3[i]!='\0';i++)
  3838   000ACE  0E00               	movlw	0
  3839   000AD0  6E55               	movwf	(_i+1)^0,c
  3840   000AD2  0E00               	movlw	0
  3841   000AD4  6E54               	movwf	_i^0,c
  3842   000AD6  EF78  F005         	goto	l2932
  3843   000ADA                     l2926:
  3844                           
  3845                           ;APP/app.c: 306:             {;APP/app.c: 307:               lcd_data(s3[i]);
  3846   000ADA  5054               	movf	_i^0,w,c
  3847   000ADC  0F01               	addlw	low _s3
  3848   000ADE  6ED9               	movwf	fsr2l,c
  3849   000AE0  6ADA               	clrf	fsr2h,c
  3850   000AE2  50DF               	movf	indf2,w,c
  3851   000AE4  ECD4  F00D         	call	_lcd_data
  3852   000AE8                     
  3853                           ;APP/app.c: 308:               motor_off();
  3854   000AE8  ECEE  F00E         	call	_motor_off	;wreg free
  3855   000AEC                     
  3856                           ;APP/app.c: 309:             }
  3857   000AEC  4A54               	infsnz	_i^0,f,c
  3858   000AEE  2A55               	incf	(_i+1)^0,f,c
  3859   000AF0                     l2932:
  3860   000AF0  5054               	movf	_i^0,w,c
  3861   000AF2  0F01               	addlw	low _s3
  3862   000AF4  6ED9               	movwf	fsr2l,c
  3863   000AF6  6ADA               	clrf	fsr2h,c
  3864   000AF8  50DF               	movf	indf2,w,c
  3865   000AFA  A4D8               	btfss	status,2,c
  3866   000AFC  EF82  F005         	goto	u2311
  3867   000B00  EF84  F005         	goto	u2310
  3868   000B04                     u2311:
  3869   000B04  EF6D  F005         	goto	l2926
  3870   000B08                     u2310:
  3871   000B08  EF91  F005         	goto	l229
  3872   000B0C                     l2936:
  3873   000B0C  5036               	movf	compare@c^0,w,c
  3874                           
  3875                           ; Switch size 1, requested type "simple"
  3876                           ; Number of cases is 2, Range of values is 49 to 50
  3877                           ; switch strategies available:
  3878                           ; Name         Instructions Cycles
  3879                           ; simple_byte            7     4 (average)
  3880                           ;	Chosen strategy is simple_byte
  3881   000B0E  0A31               	xorlw	49	; case 49
  3882   000B10  B4D8               	btfsc	status,2,c
  3883   000B12  EFE4  F004         	goto	l2874
  3884   000B16  0A03               	xorlw	3	; case 50
  3885   000B18  B4D8               	btfsc	status,2,c
  3886   000B1A  EF39  F005         	goto	l2904
  3887   000B1E  EF91  F005         	goto	l229
  3888   000B22                     l229:
  3889   000B22  0012               	return		;funcret
  3890   000B24                     __end_of_compare:
  3891                           	callstack 0
  3892                           
  3893 ;; *************** function _strstr *****************
  3894 ;; Defined at:
  3895 ;;		line 4 in file "C:\Program Files\Microchip\xc8\v2.46\pic\sources\c99\common\strstr.c"
  3896 ;; Parameters:    Size  Location     Type
  3897 ;;  h               2    7[COMRAM] PTR const unsigned char 
  3898 ;;		 -> type_passcode(5), NULL(0), 
  3899 ;;  n               1    9[COMRAM] PTR const unsigned char 
  3900 ;;		 -> old_password(4), 
  3901 ;; Auto vars:     Size  Location     Type
  3902 ;;  nl              2   11[COMRAM] unsigned int 
  3903 ;; Return value:  Size  Location     Type
  3904 ;;                  2    7[COMRAM] PTR unsigned char 
  3905 ;; Registers used:
  3906 ;;		wreg, fsr1l, fsr1h, fsr2l, fsr2h, status,2, status,0, cstack
  3907 ;; Tracked objects:
  3908 ;;		On entry : 0/0
  3909 ;;		On exit  : 0/0
  3910 ;;		Unchanged: 0/0
  3911 ;; Data sizes:     COMRAM   BANK0   BANK1   BANK2   BANK3   BANK4   BANK5
  3912 ;;      Params:         3       0       0       0       0       0       0
  3913 ;;      Locals:         2       0       0       0       0       0       0
  3914 ;;      Temps:          1       0       0       0       0       0       0
  3915 ;;      Totals:         6       0       0       0       0       0       0
  3916 ;;Total ram usage:        6 bytes
  3917 ;; Hardware stack levels used: 1
  3918 ;; Hardware stack levels required when called: 1
  3919 ;; This function calls:
  3920 ;;		_strchr
  3921 ;;		_strlen
  3922 ;;		_strncmp
  3923 ;; This function is called by:
  3924 ;;		_user_validation
  3925 ;;		_compare
  3926 ;; This function uses a non-reentrant model
  3927 ;;
  3928                           
  3929                           	psect	text19
  3930   0016D0                     __ptext19:
  3931                           	callstack 0
  3932   0016D0                     _strstr:
  3933                           	callstack 27
  3934   0016D0  5032               	movf	strstr@n^0,w,c
  3935   0016D2  B4D8               	btfsc	status,2,c
  3936   0016D4  EF6E  F00B         	goto	u1881
  3937   0016D8  EF70  F00B         	goto	u1880
  3938   0016DC                     u1881:
  3939   0016DC  EFBE  F00B         	goto	l2642
  3940   0016E0                     u1880:
  3941   0016E0  C032  F029         	movff	strstr@n,strlen@s
  3942   0016E4  EC4C  F00E         	call	_strlen	;wreg free
  3943   0016E8  C029  F034         	movff	?_strlen,strstr@nl
  3944   0016EC  C02A  F035         	movff	?_strlen+1,strstr@nl+1
  3945   0016F0  EFA9  F00B         	goto	l2638
  3946   0016F4                     l2630:
  3947   0016F4  C030  F029         	movff	strstr@h,strncmp@l
  3948   0016F8  C031  F02A         	movff	strstr@h+1,strncmp@l+1
  3949   0016FC  C032  F02B         	movff	strstr@n,strncmp@r
  3950   001700  C034  F02C         	movff	strstr@nl,strncmp@n
  3951   001704  C035  F02D         	movff	strstr@nl+1,strncmp@n+1
  3952   001708  ECC3  F00B         	call	_strncmp	;wreg free
  3953   00170C  5029               	movf	?_strncmp^0,w,c
  3954   00170E  102A               	iorwf	(?_strncmp+1)^0,w,c
  3955   001710  A4D8               	btfss	status,2,c
  3956   001712  EF8D  F00B         	goto	u1891
  3957   001716  EF8F  F00B         	goto	u1890
  3958   00171A                     u1891:
  3959   00171A  EF95  F00B         	goto	l2636
  3960   00171E                     u1890:
  3961   00171E  C030  F030         	movff	strstr@h,?_strstr
  3962   001722  C031  F031         	movff	strstr@h+1,?_strstr+1
  3963   001726  EFC2  F00B         	goto	l1350
  3964   00172A                     l2636:
  3965   00172A  0E01               	movlw	1
  3966   00172C  2430               	addwf	strstr@h^0,w,c
  3967   00172E  6E29               	movwf	strchr@s^0,c
  3968   001730  0E00               	movlw	0
  3969   001732  2031               	addwfc	(strstr@h+1)^0,w,c
  3970   001734  6E2A               	movwf	(strchr@s+1)^0,c
  3971   001736  5032               	movf	strstr@n^0,w,c
  3972   001738  6ED9               	movwf	fsr2l,c
  3973   00173A  6ADA               	clrf	fsr2h,c
  3974   00173C  50DF               	movf	indf2,w,c
  3975   00173E  6E33               	movwf	??_strstr^0,c
  3976   001740  5033               	movf	??_strstr^0,w,c
  3977   001742  6E2B               	movwf	strchr@c^0,c
  3978   001744  6A2C               	clrf	(strchr@c+1)^0,c
  3979   001746  EC68  F00D         	call	_strchr	;wreg free
  3980   00174A  C029  F030         	movff	?_strchr,strstr@h
  3981   00174E  C02A  F031         	movff	?_strchr+1,strstr@h+1
  3982   001752                     l2638:
  3983   001752  5030               	movf	strstr@h^0,w,c
  3984   001754  1031               	iorwf	(strstr@h+1)^0,w,c
  3985   001756  B4D8               	btfsc	status,2,c
  3986   001758  EFB0  F00B         	goto	u1901
  3987   00175C  EFB2  F00B         	goto	u1900
  3988   001760                     u1901:
  3989   001760  EFBE  F00B         	goto	l2642
  3990   001764                     u1900:
  3991   001764  C030  FFD9         	movff	strstr@h,fsr2l
  3992   001768  C031  FFDA         	movff	strstr@h+1,fsr2h
  3993   00176C  50DF               	movf	indf2,w,c
  3994   00176E  A4D8               	btfss	status,2,c
  3995   001770  EFBC  F00B         	goto	u1911
  3996   001774  EFBE  F00B         	goto	u1910
  3997   001778                     u1911:
  3998   001778  EF7A  F00B         	goto	l2630
  3999   00177C                     u1910:
  4000   00177C                     l2642:
  4001   00177C  0E00               	movlw	0
  4002   00177E  6E30               	movwf	?_strstr^0,c
  4003   001780  0E00               	movlw	0
  4004   001782  6E31               	movwf	(?_strstr+1)^0,c
  4005   001784                     l1350:
  4006   001784  0012               	return		;funcret
  4007   001786                     __end_of_strstr:
  4008                           	callstack 0
  4009                           
  4010 ;; *************** function _strncmp *****************
  4011 ;; Defined at:
  4012 ;;		line 3 in file "C:\Program Files\Microchip\xc8\v2.46\pic\sources\c99\common\strncmp.c"
  4013 ;; Parameters:    Size  Location     Type
  4014 ;;  l               2    0[COMRAM] PTR const unsigned char 
  4015 ;;		 -> type_passcode(5), NULL(0), 
  4016 ;;  r               1    2[COMRAM] PTR const unsigned char 
  4017 ;;		 -> old_password(4), 
  4018 ;;  n               2    3[COMRAM] unsigned int 
  4019 ;; Auto vars:     Size  Location     Type
  4020 ;;		None
  4021 ;; Return value:  Size  Location     Type
  4022 ;;                  2    0[COMRAM] int 
  4023 ;; Registers used:
  4024 ;;		wreg, fsr1l, fsr1h, fsr2l, fsr2h, status,2, status,0
  4025 ;; Tracked objects:
  4026 ;;		On entry : 0/0
  4027 ;;		On exit  : 0/0
  4028 ;;		Unchanged: 0/0
  4029 ;; Data sizes:     COMRAM   BANK0   BANK1   BANK2   BANK3   BANK4   BANK5
  4030 ;;      Params:         5       0       0       0       0       0       0
  4031 ;;      Locals:         0       0       0       0       0       0       0
  4032 ;;      Temps:          2       0       0       0       0       0       0
  4033 ;;      Totals:         7       0       0       0       0       0       0
  4034 ;;Total ram usage:        7 bytes
  4035 ;; Hardware stack levels used: 1
  4036 ;; This function calls:
  4037 ;;		Nothing
  4038 ;; This function is called by:
  4039 ;;		_strstr
  4040 ;; This function uses a non-reentrant model
  4041 ;;
  4042                           
  4043                           	psect	text20
  4044   001786                     __ptext20:
  4045                           	callstack 0
  4046   001786                     _strncmp:
  4047                           	callstack 27
  4048   001786  062C               	decf	strncmp@n^0,f,c
  4049   001788  A0D8               	btfss	status,0,c
  4050   00178A  062D               	decf	(strncmp@n+1)^0,f,c
  4051   00178C  282C               	incf	strncmp@n^0,w,c
  4052   00178E  E106               	bnz	u1791
  4053   001790  282D               	incf	(strncmp@n+1)^0,w,c
  4054   001792  A4D8               	btfss	status,2,c
  4055   001794  EFCE  F00B         	goto	u1791
  4056   001798  EFD0  F00B         	goto	u1790
  4057   00179C                     u1791:
  4058   00179C  EFDC  F00B         	goto	l2550
  4059   0017A0                     u1790:
  4060   0017A0  0E00               	movlw	0
  4061   0017A2  6E2A               	movwf	(?_strncmp+1)^0,c
  4062   0017A4  0E00               	movlw	0
  4063   0017A6  6E29               	movwf	?_strncmp^0,c
  4064   0017A8  EF1D  F00C         	goto	l1369
  4065   0017AC                     l2548:
  4066   0017AC  4A29               	infsnz	strncmp@l^0,f,c
  4067   0017AE  2A2A               	incf	(strncmp@l+1)^0,f,c
  4068   0017B0  2A2B               	incf	strncmp@r^0,f,c
  4069   0017B2  062C               	decf	strncmp@n^0,f,c
  4070   0017B4  A0D8               	btfss	status,0,c
  4071   0017B6  062D               	decf	(strncmp@n+1)^0,f,c
  4072   0017B8                     l2550:
  4073   0017B8  C029  FFD9         	movff	strncmp@l,fsr2l
  4074   0017BC  C02A  FFDA         	movff	strncmp@l+1,fsr2h
  4075   0017C0  50DF               	movf	indf2,w,c
  4076   0017C2  B4D8               	btfsc	status,2,c
  4077   0017C4  EFE6  F00B         	goto	u1801
  4078   0017C8  EFE8  F00B         	goto	u1800
  4079   0017CC                     u1801:
  4080   0017CC  EF0C  F00C         	goto	l2558
  4081   0017D0                     u1800:
  4082   0017D0  502B               	movf	strncmp@r^0,w,c
  4083   0017D2  6ED9               	movwf	fsr2l,c
  4084   0017D4  6ADA               	clrf	fsr2h,c
  4085   0017D6  50DF               	movf	indf2,w,c
  4086   0017D8  B4D8               	btfsc	status,2,c
  4087   0017DA  EFF1  F00B         	goto	u1811
  4088   0017DE  EFF3  F00B         	goto	u1810
  4089   0017E2                     u1811:
  4090   0017E2  EF0C  F00C         	goto	l2558
  4091   0017E6                     u1810:
  4092   0017E6  502C               	movf	strncmp@n^0,w,c
  4093   0017E8  102D               	iorwf	(strncmp@n+1)^0,w,c
  4094   0017EA  B4D8               	btfsc	status,2,c
  4095   0017EC  EFFA  F00B         	goto	u1821
  4096   0017F0  EFFC  F00B         	goto	u1820
  4097   0017F4                     u1821:
  4098   0017F4  EF0C  F00C         	goto	l2558
  4099   0017F8                     u1820:
  4100   0017F8  502B               	movf	strncmp@r^0,w,c
  4101   0017FA  6ED9               	movwf	fsr2l,c
  4102   0017FC  6ADA               	clrf	fsr2h,c
  4103   0017FE  C029  FFE1         	movff	strncmp@l,fsr1l
  4104   001802  C02A  FFE2         	movff	strncmp@l+1,fsr1h
  4105   001806  50DE               	movf	postinc2,w,c
  4106   001808  18E6               	xorwf	postinc1,w,c
  4107   00180A  B4D8               	btfsc	status,2,c
  4108   00180C  EF0A  F00C         	goto	u1831
  4109   001810  EF0C  F00C         	goto	u1830
  4110   001814                     u1831:
  4111   001814  EFD6  F00B         	goto	l2548
  4112   001818                     u1830:
  4113   001818                     l2558:
  4114   001818  C029  FFD9         	movff	strncmp@l,fsr2l
  4115   00181C  C02A  FFDA         	movff	strncmp@l+1,fsr2h
  4116   001820  50DF               	movf	indf2,w,c
  4117   001822  6E2E               	movwf	??_strncmp^0,c
  4118   001824  502B               	movf	strncmp@r^0,w,c
  4119   001826  6ED9               	movwf	fsr2l,c
  4120   001828  6ADA               	clrf	fsr2h,c
  4121   00182A  50DF               	movf	indf2,w,c
  4122   00182C  6E2F               	movwf	(??_strncmp+1)^0,c
  4123   00182E  502F               	movf	(??_strncmp+1)^0,w,c
  4124   001830  5C2E               	subwf	??_strncmp^0,w,c
  4125   001832  6E29               	movwf	?_strncmp^0,c
  4126   001834  6A2A               	clrf	(?_strncmp+1)^0,c
  4127   001836  A0D8               	btfss	status,0,c
  4128   001838  062A               	decf	(?_strncmp+1)^0,f,c
  4129   00183A                     l1369:
  4130   00183A  0012               	return		;funcret
  4131   00183C                     __end_of_strncmp:
  4132                           	callstack 0
  4133                           
  4134 ;; *************** function _strlen *****************
  4135 ;; Defined at:
  4136 ;;		line 5 in file "C:\Program Files\Microchip\xc8\v2.46\pic\sources\c99\common\strlen.c"
  4137 ;; Parameters:    Size  Location     Type
  4138 ;;  s               1    0[COMRAM] PTR const unsigned char 
  4139 ;;		 -> old_password(4), 
  4140 ;; Auto vars:     Size  Location     Type
  4141 ;;  a               1    2[COMRAM] PTR const unsigned char 
  4142 ;;		 -> old_password(4), 
  4143 ;; Return value:  Size  Location     Type
  4144 ;;                  2    0[COMRAM] unsigned int 
  4145 ;; Registers used:
  4146 ;;		wreg, fsr2l, fsr2h, status,2, status,0
  4147 ;; Tracked objects:
  4148 ;;		On entry : 0/0
  4149 ;;		On exit  : 0/0
  4150 ;;		Unchanged: 0/0
  4151 ;; Data sizes:     COMRAM   BANK0   BANK1   BANK2   BANK3   BANK4   BANK5
  4152 ;;      Params:         2       0       0       0       0       0       0
  4153 ;;      Locals:         1       0       0       0       0       0       0
  4154 ;;      Temps:          0       0       0       0       0       0       0
  4155 ;;      Totals:         3       0       0       0       0       0       0
  4156 ;;Total ram usage:        3 bytes
  4157 ;; Hardware stack levels used: 1
  4158 ;; This function calls:
  4159 ;;		Nothing
  4160 ;; This function is called by:
  4161 ;;		_strstr
  4162 ;; This function uses a non-reentrant model
  4163 ;;
  4164                           
  4165                           	psect	text21
  4166   001C98                     __ptext21:
  4167                           	callstack 0
  4168   001C98                     _strlen:
  4169                           	callstack 27
  4170   001C98  C029  F02B         	movff	strlen@s,strlen@a
  4171   001C9C  EF51  F00E         	goto	l2536
  4172   001CA0                     l2534:
  4173   001CA0  2A29               	incf	strlen@s^0,f,c
  4174   001CA2                     l2536:
  4175   001CA2  5029               	movf	strlen@s^0,w,c
  4176   001CA4  6ED9               	movwf	fsr2l,c
  4177   001CA6  6ADA               	clrf	fsr2h,c
  4178   001CA8  50DF               	movf	indf2,w,c
  4179   001CAA  A4D8               	btfss	status,2,c
  4180   001CAC  EF5A  F00E         	goto	u1781
  4181   001CB0  EF5C  F00E         	goto	u1780
  4182   001CB4                     u1781:
  4183   001CB4  EF50  F00E         	goto	l2534
  4184   001CB8                     u1780:
  4185   001CB8  502B               	movf	strlen@a^0,w,c
  4186   001CBA  5C29               	subwf	strlen@s^0,w,c
  4187   001CBC  6E29               	movwf	?_strlen^0,c
  4188   001CBE  6A2A               	clrf	(?_strlen+1)^0,c
  4189   001CC0  BE29               	btfsc	?_strlen^0,7,c
  4190   001CC2  062A               	decf	(?_strlen+1)^0,f,c
  4191   001CC4  0012               	return		;funcret
  4192   001CC6                     __end_of_strlen:
  4193                           	callstack 0
  4194                           
  4195 ;; *************** function _strchr *****************
  4196 ;; Defined at:
  4197 ;;		line 3 in file "C:\Program Files\Microchip\xc8\v2.46\pic\sources\c99\common\strchr.c"
  4198 ;; Parameters:    Size  Location     Type
  4199 ;;  s               2    0[COMRAM] PTR const unsigned char 
  4200 ;;		 -> type_passcode(5), NULL(0), 
  4201 ;;  c               2    2[COMRAM] int 
  4202 ;; Auto vars:     Size  Location     Type
  4203 ;;		None
  4204 ;; Return value:  Size  Location     Type
  4205 ;;                  2    0[COMRAM] PTR unsigned char 
  4206 ;; Registers used:
  4207 ;;		wreg, fsr2l, fsr2h, status,2, status,0
  4208 ;; Tracked objects:
  4209 ;;		On entry : 0/0
  4210 ;;		On exit  : 0/0
  4211 ;;		Unchanged: 0/0
  4212 ;; Data sizes:     COMRAM   BANK0   BANK1   BANK2   BANK3   BANK4   BANK5
  4213 ;;      Params:         4       0       0       0       0       0       0
  4214 ;;      Locals:         0       0       0       0       0       0       0
  4215 ;;      Temps:          1       0       0       0       0       0       0
  4216 ;;      Totals:         5       0       0       0       0       0       0
  4217 ;;Total ram usage:        5 bytes
  4218 ;; Hardware stack levels used: 1
  4219 ;; This function calls:
  4220 ;;		Nothing
  4221 ;; This function is called by:
  4222 ;;		_strstr
  4223 ;; This function uses a non-reentrant model
  4224 ;;
  4225                           
  4226                           	psect	text22
  4227   001AD0                     __ptext22:
  4228                           	callstack 0
  4229   001AD0                     _strchr:
  4230                           	callstack 27
  4231   001AD0                     l1356:
  4232   001AD0  C029  FFD9         	movff	strchr@s,fsr2l
  4233   001AD4  C02A  FFDA         	movff	strchr@s+1,fsr2h
  4234   001AD8  502B               	movf	strchr@c^0,w,c
  4235   001ADA  18DE               	xorwf	postinc2,w,c
  4236   001ADC  A4D8               	btfss	status,2,c
  4237   001ADE  EF73  F00D         	goto	u1841
  4238   001AE2  EF75  F00D         	goto	u1840
  4239   001AE6                     u1841:
  4240   001AE6  EF7B  F00D         	goto	l2568
  4241   001AEA                     u1840:
  4242   001AEA  C029  F029         	movff	strchr@s,?_strchr
  4243   001AEE  C02A  F02A         	movff	strchr@s+1,?_strchr+1
  4244   001AF2  EF8D  F00D         	goto	l1358
  4245   001AF6                     l2568:
  4246   001AF6  C029  FFD9         	movff	strchr@s,fsr2l
  4247   001AFA  C02A  FFDA         	movff	strchr@s+1,fsr2h
  4248   001AFE  4A29               	infsnz	strchr@s^0,f,c
  4249   001B00  2A2A               	incf	(strchr@s+1)^0,f,c
  4250   001B02  50DF               	movf	indf2,w,c
  4251   001B04  A4D8               	btfss	status,2,c
  4252   001B06  EF87  F00D         	goto	u1851
  4253   001B0A  EF89  F00D         	goto	u1850
  4254   001B0E                     u1851:
  4255   001B0E  EF68  F00D         	goto	l1356
  4256   001B12                     u1850:
  4257   001B12  0E00               	movlw	0
  4258   001B14  6E29               	movwf	?_strchr^0,c
  4259   001B16  0E00               	movlw	0
  4260   001B18  6E2A               	movwf	(?_strchr+1)^0,c
  4261   001B1A                     l1358:
  4262   001B1A  0012               	return		;funcret
  4263   001B1C                     __end_of_strchr:
  4264                           	callstack 0
  4265                           
  4266 ;; *************** function _motor_reverse *****************
  4267 ;; Defined at:
  4268 ;;		line 8 in file "APP/l293d.c"
  4269 ;; Parameters:    Size  Location     Type
  4270 ;;		None
  4271 ;; Auto vars:     Size  Location     Type
  4272 ;;		None
  4273 ;; Return value:  Size  Location     Type
  4274 ;;                  1    wreg      void 
  4275 ;; Registers used:
  4276 ;;		None
  4277 ;; Tracked objects:
  4278 ;;		On entry : 0/0
  4279 ;;		On exit  : 0/0
  4280 ;;		Unchanged: 0/0
  4281 ;; Data sizes:     COMRAM   BANK0   BANK1   BANK2   BANK3   BANK4   BANK5
  4282 ;;      Params:         0       0       0       0       0       0       0
  4283 ;;      Locals:         0       0       0       0       0       0       0
  4284 ;;      Temps:          0       0       0       0       0       0       0
  4285 ;;      Totals:         0       0       0       0       0       0       0
  4286 ;;Total ram usage:        0 bytes
  4287 ;; Hardware stack levels used: 1
  4288 ;; This function calls:
  4289 ;;		Nothing
  4290 ;; This function is called by:
  4291 ;;		_compare
  4292 ;; This function uses a non-reentrant model
  4293 ;;
  4294                           
  4295                           	psect	text23
  4296   001DD6                     __ptext23:
  4297                           	callstack 0
  4298   001DD6                     _motor_reverse:
  4299                           	callstack 27
  4300   001DD6                     
  4301                           ;APP/l293d.c: 10:     PORTDbits.RD3 = 0;
  4302   001DD6  9683               	bcf	131,3,c	;volatile
  4303                           
  4304                           ;APP/l293d.c: 11:     PORTDbits.RD4 = 1;
  4305   001DD8  8883               	bsf	131,4,c	;volatile
  4306   001DDA  0012               	return		;funcret
  4307   001DDC                     __end_of_motor_reverse:
  4308                           	callstack 0
  4309                           
  4310 ;; *************** function _motor_off *****************
  4311 ;; Defined at:
  4312 ;;		line 13 in file "APP/l293d.c"
  4313 ;; Parameters:    Size  Location     Type
  4314 ;;		None
  4315 ;; Auto vars:     Size  Location     Type
  4316 ;;		None
  4317 ;; Return value:  Size  Location     Type
  4318 ;;                  1    wreg      void 
  4319 ;; Registers used:
  4320 ;;		None
  4321 ;; Tracked objects:
  4322 ;;		On entry : 0/0
  4323 ;;		On exit  : 0/0
  4324 ;;		Unchanged: 0/0
  4325 ;; Data sizes:     COMRAM   BANK0   BANK1   BANK2   BANK3   BANK4   BANK5
  4326 ;;      Params:         0       0       0       0       0       0       0
  4327 ;;      Locals:         0       0       0       0       0       0       0
  4328 ;;      Temps:          0       0       0       0       0       0       0
  4329 ;;      Totals:         0       0       0       0       0       0       0
  4330 ;;Total ram usage:        0 bytes
  4331 ;; Hardware stack levels used: 1
  4332 ;; This function calls:
  4333 ;;		Nothing
  4334 ;; This function is called by:
  4335 ;;		_compare
  4336 ;; This function uses a non-reentrant model
  4337 ;;
  4338                           
  4339                           	psect	text24
  4340   001DDC                     __ptext24:
  4341                           	callstack 0
  4342   001DDC                     _motor_off:
  4343                           	callstack 27
  4344   001DDC                     
  4345                           ;APP/l293d.c: 15:     PORTDbits.RD3 = 0;
  4346   001DDC  9683               	bcf	131,3,c	;volatile
  4347                           
  4348                           ;APP/l293d.c: 16:     PORTDbits.RD4 = 0;
  4349   001DDE  9883               	bcf	131,4,c	;volatile
  4350   001DE0  0012               	return		;funcret
  4351   001DE2                     __end_of_motor_off:
  4352                           	callstack 0
  4353                           
  4354 ;; *************** function _motor_forward *****************
  4355 ;; Defined at:
  4356 ;;		line 3 in file "APP/l293d.c"
  4357 ;; Parameters:    Size  Location     Type
  4358 ;;		None
  4359 ;; Auto vars:     Size  Location     Type
  4360 ;;		None
  4361 ;; Return value:  Size  Location     Type
  4362 ;;                  1    wreg      void 
  4363 ;; Registers used:
  4364 ;;		None
  4365 ;; Tracked objects:
  4366 ;;		On entry : 0/0
  4367 ;;		On exit  : 0/0
  4368 ;;		Unchanged: 0/0
  4369 ;; Data sizes:     COMRAM   BANK0   BANK1   BANK2   BANK3   BANK4   BANK5
  4370 ;;      Params:         0       0       0       0       0       0       0
  4371 ;;      Locals:         0       0       0       0       0       0       0
  4372 ;;      Temps:          0       0       0       0       0       0       0
  4373 ;;      Totals:         0       0       0       0       0       0       0
  4374 ;;Total ram usage:        0 bytes
  4375 ;; Hardware stack levels used: 1
  4376 ;; This function calls:
  4377 ;;		Nothing
  4378 ;; This function is called by:
  4379 ;;		_compare
  4380 ;; This function uses a non-reentrant model
  4381 ;;
  4382                           
  4383                           	psect	text25
  4384   001DE2                     __ptext25:
  4385                           	callstack 0
  4386   001DE2                     _motor_forward:
  4387                           	callstack 27
  4388   001DE2                     
  4389                           ;APP/l293d.c: 5:     PORTDbits.RD3 = 1;
  4390   001DE2  8683               	bsf	131,3,c	;volatile
  4391                           
  4392                           ;APP/l293d.c: 6:     PORTDbits.RD4 = 0;
  4393   001DE4  9883               	bcf	131,4,c	;volatile
  4394   001DE6  0012               	return		;funcret
  4395   001DE8                     __end_of_motor_forward:
  4396                           	callstack 0
  4397                           
  4398 ;; *************** function _lcd_cmd *****************
  4399 ;; Defined at:
  4400 ;;		line 12 in file "APP/lcd.c"
  4401 ;; Parameters:    Size  Location     Type
  4402 ;;  data            1    wreg     unsigned char 
  4403 ;; Auto vars:     Size  Location     Type
  4404 ;;  data            1    4[COMRAM] unsigned char 
  4405 ;;  data_u          1    6[COMRAM] unsigned char 
  4406 ;;  data_l          1    5[COMRAM] unsigned char 
  4407 ;; Return value:  Size  Location     Type
  4408 ;;                  1    wreg      void 
  4409 ;; Registers used:
  4410 ;;		wreg, status,2, status,0, cstack
  4411 ;; Tracked objects:
  4412 ;;		On entry : 0/0
  4413 ;;		On exit  : 0/0
  4414 ;;		Unchanged: 0/0
  4415 ;; Data sizes:     COMRAM   BANK0   BANK1   BANK2   BANK3   BANK4   BANK5
  4416 ;;      Params:         0       0       0       0       0       0       0
  4417 ;;      Locals:         3       0       0       0       0       0       0
  4418 ;;      Temps:          0       0       0       0       0       0       0
  4419 ;;      Totals:         3       0       0       0       0       0       0
  4420 ;;Total ram usage:        3 bytes
  4421 ;; Hardware stack levels used: 1
  4422 ;; Hardware stack levels required when called: 3
  4423 ;; This function calls:
  4424 ;;		_I2C_Start
  4425 ;;		_I2C_Stop
  4426 ;;		_I2C_Write
  4427 ;;		_delay1
  4428 ;; This function is called by:
  4429 ;;		_runApp
  4430 ;;		_user_validation
  4431 ;;		_unlock_door
  4432 ;;		_lock_door
  4433 ;;		_set_password
  4434 ;;		_compare
  4435 ;;		_lcd_reset
  4436 ;; This function uses a non-reentrant model
  4437 ;;
  4438                           
  4439                           	psect	text26
  4440   001B64                     __ptext26:
  4441                           	callstack 0
  4442   001B64                     _lcd_cmd:
  4443                           	callstack 25
  4444                           
  4445                           ;incstack = 0
  4446                           ;lcd_cmd@data stored from wreg
  4447   001B64  6E2D               	movwf	lcd_cmd@data^0,c
  4448   001B66                     
  4449                           ;APP/lcd.c: 12: void lcd_cmd(unsigned char data);APP/lcd.c: 13: {;APP/lcd.c: 14:  unsign
      +                          ed char data_l, data_u;;APP/lcd.c: 15:  data_l = (data<<4)&0xf0;
  4450   001B66  382D               	swapf	lcd_cmd@data^0,w,c
  4451   001B68  0BF0               	andlw	240
  4452   001B6A  0BF0               	andlw	240
  4453   001B6C  6E2E               	movwf	lcd_cmd@data_l^0,c
  4454                           
  4455                           ;APP/lcd.c: 16:  data_u = data&0xf0;
  4456   001B6E  502D               	movf	lcd_cmd@data^0,w,c
  4457   001B70  0BF0               	andlw	240
  4458   001B72  6E2F               	movwf	lcd_cmd@data_u^0,c
  4459   001B74                     
  4460                           ;APP/lcd.c: 18:  I2C_Start(0x27<<1);
  4461   001B74  0E4E               	movlw	78
  4462   001B76  EC63  F00E         	call	_I2C_Start
  4463   001B7A                     
  4464                           ;APP/lcd.c: 20:  I2C_Write (data_u|0x0C);
  4465   001B7A  502F               	movf	lcd_cmd@data_u^0,w,c
  4466   001B7C  090C               	iorlw	12
  4467   001B7E  ECA5  F00E         	call	_I2C_Write
  4468   001B82                     
  4469                           ;APP/lcd.c: 21:  delay1();
  4470   001B82  EC3F  F00D         	call	_delay1	;wreg free
  4471   001B86                     
  4472                           ;APP/lcd.c: 22:  I2C_Write (data_u|0x08);
  4473   001B86  502F               	movf	lcd_cmd@data_u^0,w,c
  4474   001B88  0908               	iorlw	8
  4475   001B8A  ECA5  F00E         	call	_I2C_Write
  4476   001B8E                     
  4477                           ;APP/lcd.c: 24:  I2C_Write (data_l|0x0C);
  4478   001B8E  502E               	movf	lcd_cmd@data_l^0,w,c
  4479   001B90  090C               	iorlw	12
  4480   001B92  ECA5  F00E         	call	_I2C_Write
  4481   001B96                     
  4482                           ;APP/lcd.c: 25:  delay1();
  4483   001B96  EC3F  F00D         	call	_delay1	;wreg free
  4484   001B9A                     
  4485                           ;APP/lcd.c: 26:  I2C_Write (data_l|0x08);
  4486   001B9A  502E               	movf	lcd_cmd@data_l^0,w,c
  4487   001B9C  0908               	iorlw	8
  4488   001B9E  ECA5  F00E         	call	_I2C_Write
  4489   001BA2                     
  4490                           ;APP/lcd.c: 28:  I2C_Stop();
  4491   001BA2  ECC6  F00E         	call	_I2C_Stop	;wreg free
  4492   001BA6  0012               	return		;funcret
  4493   001BA8                     __end_of_lcd_cmd:
  4494                           	callstack 0
  4495                           
  4496 ;; *************** function _delay *****************
  4497 ;; Defined at:
  4498 ;;		line 84 in file "APP/lcd.c"
  4499 ;; Parameters:    Size  Location     Type
  4500 ;;  a               2    0[COMRAM] int 
  4501 ;; Auto vars:     Size  Location     Type
  4502 ;;  i               2    5[COMRAM] int 
  4503 ;;  j               2    3[COMRAM] int 
  4504 ;; Return value:  Size  Location     Type
  4505 ;;                  1    wreg      void 
  4506 ;; Registers used:
  4507 ;;		wreg, status,2, status,0
  4508 ;; Tracked objects:
  4509 ;;		On entry : 0/0
  4510 ;;		On exit  : 0/0
  4511 ;;		Unchanged: 0/0
  4512 ;; Data sizes:     COMRAM   BANK0   BANK1   BANK2   BANK3   BANK4   BANK5
  4513 ;;      Params:         2       0       0       0       0       0       0
  4514 ;;      Locals:         4       0       0       0       0       0       0
  4515 ;;      Temps:          1       0       0       0       0       0       0
  4516 ;;      Totals:         7       0       0       0       0       0       0
  4517 ;;Total ram usage:        7 bytes
  4518 ;; Hardware stack levels used: 1
  4519 ;; This function calls:
  4520 ;;		Nothing
  4521 ;; This function is called by:
  4522 ;;		_runApp
  4523 ;;		_unlock_door
  4524 ;;		_lock_door
  4525 ;;		_compare
  4526 ;; This function uses a non-reentrant model
  4527 ;;
  4528                           
  4529                           	psect	text27
  4530   001A26                     __ptext27:
  4531                           	callstack 0
  4532   001A26                     _delay:
  4533                           	callstack 28
  4534   001A26                     
  4535                           ;APP/lcd.c: 84: void delay(int a);APP/lcd.c: 85: {;APP/lcd.c: 86:     int i,j;;APP/lcd.c
      +                          : 87:     for(i = 0; i<100;i++)
  4536   001A26  0E00               	movlw	0
  4537   001A28  6E2F               	movwf	(delay@i+1)^0,c
  4538   001A2A  0E00               	movlw	0
  4539   001A2C  6E2E               	movwf	delay@i^0,c
  4540   001A2E                     l2580:
  4541                           
  4542                           ;APP/lcd.c: 88:         for(j = 0;j<a;j++);
  4543   001A2E  0E00               	movlw	0
  4544   001A30  6E2D               	movwf	(delay@j+1)^0,c
  4545   001A32  0E00               	movlw	0
  4546   001A34  6E2C               	movwf	delay@j^0,c
  4547   001A36  EF1F  F00D         	goto	l2584
  4548   001A3A                     l2582:
  4549   001A3A  4A2C               	infsnz	delay@j^0,f,c
  4550   001A3C  2A2D               	incf	(delay@j+1)^0,f,c
  4551   001A3E                     l2584:
  4552   001A3E  5029               	movf	delay@a^0,w,c
  4553   001A40  5C2C               	subwf	delay@j^0,w,c
  4554   001A42  502D               	movf	(delay@j+1)^0,w,c
  4555   001A44  0A80               	xorlw	128
  4556   001A46  6E2B               	movwf	??_delay^0,c
  4557   001A48  502A               	movf	(delay@a+1)^0,w,c
  4558   001A4A  0A80               	xorlw	128
  4559   001A4C  582B               	subwfb	??_delay^0,w,c
  4560   001A4E  A0D8               	btfss	status,0,c
  4561   001A50  EF2C  F00D         	goto	u1861
  4562   001A54  EF2E  F00D         	goto	u1860
  4563   001A58                     u1861:
  4564   001A58  EF1D  F00D         	goto	l2582
  4565   001A5C                     u1860:
  4566   001A5C  4A2E               	infsnz	delay@i^0,f,c
  4567   001A5E  2A2F               	incf	(delay@i+1)^0,f,c
  4568   001A60  BE2F               	btfsc	(delay@i+1)^0,7,c
  4569   001A62  EF3C  F00D         	goto	u1871
  4570   001A66  502F               	movf	(delay@i+1)^0,w,c
  4571   001A68  E109               	bnz	u1870
  4572   001A6A  0E64               	movlw	100
  4573   001A6C  5C2E               	subwf	delay@i^0,w,c
  4574   001A6E  A0D8               	btfss	status,0,c
  4575   001A70  EF3C  F00D         	goto	u1871
  4576   001A74  EF3E  F00D         	goto	u1870
  4577   001A78                     u1871:
  4578   001A78  EF17  F00D         	goto	l2580
  4579   001A7C                     u1870:
  4580   001A7C  0012               	return		;funcret
  4581   001A7E                     __end_of_delay:
  4582                           	callstack 0
  4583                           
  4584 ;; *************** function _col4 *****************
  4585 ;; Defined at:
  4586 ;;		line 156 in file "APP/keypad.c"
  4587 ;; Parameters:    Size  Location     Type
  4588 ;;		None
  4589 ;; Auto vars:     Size  Location     Type
  4590 ;;		None
  4591 ;; Return value:  Size  Location     Type
  4592 ;;                  1    wreg      void 
  4593 ;; Registers used:
  4594 ;;		wreg, fsr2l, fsr2h, status,2, status,0, cstack
  4595 ;; Tracked objects:
  4596 ;;		On entry : 0/0
  4597 ;;		On exit  : 0/0
  4598 ;;		Unchanged: 0/0
  4599 ;; Data sizes:     COMRAM   BANK0   BANK1   BANK2   BANK3   BANK4   BANK5
  4600 ;;      Params:         0       0       0       0       0       0       0
  4601 ;;      Locals:         0       0       0       0       0       0       0
  4602 ;;      Temps:          0       0       0       0       0       0       0
  4603 ;;      Totals:         0       0       0       0       0       0       0
  4604 ;;Total ram usage:        0 bytes
  4605 ;; Hardware stack levels used: 1
  4606 ;; Hardware stack levels required when called: 4
  4607 ;; This function calls:
  4608 ;;		_lcd_data
  4609 ;; This function is called by:
  4610 ;;		_user_validation
  4611 ;;		_unlock_door
  4612 ;;		_lock_door
  4613 ;; This function uses a non-reentrant model
  4614 ;;
  4615                           
  4616                           	psect	text28
  4617   001544                     __ptext28:
  4618                           	callstack 0
  4619   001544                     _col4:
  4620                           	callstack 24
  4621   001544                     
  4622                           ;APP/keypad.c: 158:     PORTBbits.RB0=PORTBbits.RB1=PORTBbits.RB2=PORTBbits.RB3=1;
  4623   001544  8681               	bsf	129,3,c	;volatile
  4624   001546  8481               	bsf	129,2,c	;volatile
  4625   001548  8281               	bsf	129,1,c	;volatile
  4626   00154A  8081               	bsf	129,0,c	;volatile
  4627                           
  4628                           ;APP/keypad.c: 159:     PORTBbits.RB0=0;
  4629   00154C  9081               	bcf	129,0,c	;volatile
  4630                           
  4631                           ;APP/keypad.c: 160:     if(PORTBbits.RB7==0)
  4632   00154E  BE81               	btfsc	129,7,c	;volatile
  4633   001550  EFAC  F00A         	goto	u2181
  4634   001554  EFAE  F00A         	goto	u2180
  4635   001558                     u2181:
  4636   001558  EFBE  F00A         	goto	l2834
  4637   00155C                     u2180:
  4638   00155C                     l328:
  4639                           
  4640                           ;APP/keypad.c: 162:         while(PORTBbits.RB7==0)
  4641   00155C  AE81               	btfss	129,7,c	;volatile
  4642   00155E  EFB3  F00A         	goto	u2191
  4643   001562  EFB5  F00A         	goto	u2190
  4644   001566                     u2191:
  4645   001566  EFAE  F00A         	goto	l328
  4646   00156A                     u2190:
  4647   00156A                     
  4648                           ;APP/keypad.c: 164:         lcd_data('*');
  4649   00156A  0E2A               	movlw	42
  4650   00156C  ECD4  F00D         	call	_lcd_data
  4651   001570                     
  4652                           ;APP/keypad.c: 166:         type_passcode[i]='A';
  4653   001570  5054               	movf	_i^0,w,c
  4654   001572  0F24               	addlw	low _type_passcode
  4655   001574  6ED9               	movwf	fsr2l,c
  4656   001576  6ADA               	clrf	fsr2h,c
  4657   001578  0E41               	movlw	65
  4658   00157A  6EDF               	movwf	indf2,c
  4659   00157C                     l2834:
  4660                           
  4661                           ;APP/keypad.c: 169:     PORTBbits.RB0=1;
  4662   00157C  8081               	bsf	129,0,c	;volatile
  4663   00157E                     
  4664                           ;APP/keypad.c: 170:     PORTBbits.RB1=0;
  4665   00157E  9281               	bcf	129,1,c	;volatile
  4666   001580                     
  4667                           ;APP/keypad.c: 171:     if(PORTBbits.RB7==0)
  4668   001580  BE81               	btfsc	129,7,c	;volatile
  4669   001582  EFC5  F00A         	goto	u2201
  4670   001586  EFC7  F00A         	goto	u2200
  4671   00158A                     u2201:
  4672   00158A  EFD7  F00A         	goto	l2846
  4673   00158E                     u2200:
  4674   00158E                     l332:
  4675                           
  4676                           ;APP/keypad.c: 173:         while(PORTBbits.RB7==0)
  4677   00158E  AE81               	btfss	129,7,c	;volatile
  4678   001590  EFCC  F00A         	goto	u2211
  4679   001594  EFCE  F00A         	goto	u2210
  4680   001598                     u2211:
  4681   001598  EFC7  F00A         	goto	l332
  4682   00159C                     u2210:
  4683   00159C                     
  4684                           ;APP/keypad.c: 175:         lcd_data('*');
  4685   00159C  0E2A               	movlw	42
  4686   00159E  ECD4  F00D         	call	_lcd_data
  4687   0015A2                     
  4688                           ;APP/keypad.c: 177:         type_passcode[i]='B';
  4689   0015A2  5054               	movf	_i^0,w,c
  4690   0015A4  0F24               	addlw	low _type_passcode
  4691   0015A6  6ED9               	movwf	fsr2l,c
  4692   0015A8  6ADA               	clrf	fsr2h,c
  4693   0015AA  0E42               	movlw	66
  4694   0015AC  6EDF               	movwf	indf2,c
  4695   0015AE                     l2846:
  4696                           
  4697                           ;APP/keypad.c: 180:     PORTBbits.RB1=1;
  4698   0015AE  8281               	bsf	129,1,c	;volatile
  4699   0015B0                     
  4700                           ;APP/keypad.c: 181:     PORTBbits.RB2=0;
  4701   0015B0  9481               	bcf	129,2,c	;volatile
  4702   0015B2                     
  4703                           ;APP/keypad.c: 182:     if(PORTBbits.RB7==0)
  4704   0015B2  BE81               	btfsc	129,7,c	;volatile
  4705   0015B4  EFDE  F00A         	goto	u2221
  4706   0015B8  EFE0  F00A         	goto	u2220
  4707   0015BC                     u2221:
  4708   0015BC  EFF0  F00A         	goto	l2858
  4709   0015C0                     u2220:
  4710   0015C0                     l336:
  4711                           
  4712                           ;APP/keypad.c: 184:         while(PORTBbits.RB7==0)
  4713   0015C0  AE81               	btfss	129,7,c	;volatile
  4714   0015C2  EFE5  F00A         	goto	u2231
  4715   0015C6  EFE7  F00A         	goto	u2230
  4716   0015CA                     u2231:
  4717   0015CA  EFE0  F00A         	goto	l336
  4718   0015CE                     u2230:
  4719   0015CE                     
  4720                           ;APP/keypad.c: 186:         lcd_data('*');
  4721   0015CE  0E2A               	movlw	42
  4722   0015D0  ECD4  F00D         	call	_lcd_data
  4723   0015D4                     
  4724                           ;APP/keypad.c: 188:         type_passcode[i]='C';
  4725   0015D4  5054               	movf	_i^0,w,c
  4726   0015D6  0F24               	addlw	low _type_passcode
  4727   0015D8  6ED9               	movwf	fsr2l,c
  4728   0015DA  6ADA               	clrf	fsr2h,c
  4729   0015DC  0E43               	movlw	67
  4730   0015DE  6EDF               	movwf	indf2,c
  4731   0015E0                     l2858:
  4732                           
  4733                           ;APP/keypad.c: 191:     PORTBbits.RB2=1;
  4734   0015E0  8481               	bsf	129,2,c	;volatile
  4735   0015E2                     
  4736                           ;APP/keypad.c: 192:     PORTBbits.RB3=0;
  4737   0015E2  9681               	bcf	129,3,c	;volatile
  4738   0015E4                     
  4739                           ;APP/keypad.c: 193:     if(PORTBbits.RB7==0)
  4740   0015E4  BE81               	btfsc	129,7,c	;volatile
  4741   0015E6  EFF7  F00A         	goto	u2241
  4742   0015EA  EFF9  F00A         	goto	u2240
  4743   0015EE                     u2241:
  4744   0015EE  EF09  F00B         	goto	l2870
  4745   0015F2                     u2240:
  4746   0015F2                     l340:
  4747                           
  4748                           ;APP/keypad.c: 195:         while(PORTBbits.RB7==0)
  4749   0015F2  AE81               	btfss	129,7,c	;volatile
  4750   0015F4  EFFE  F00A         	goto	u2251
  4751   0015F8  EF00  F00B         	goto	u2250
  4752   0015FC                     u2251:
  4753   0015FC  EFF9  F00A         	goto	l340
  4754   001600                     u2250:
  4755   001600                     
  4756                           ;APP/keypad.c: 197:             lcd_data('*');
  4757   001600  0E2A               	movlw	42
  4758   001602  ECD4  F00D         	call	_lcd_data
  4759   001606                     
  4760                           ;APP/keypad.c: 199:             type_passcode[i]='D';
  4761   001606  5054               	movf	_i^0,w,c
  4762   001608  0F24               	addlw	low _type_passcode
  4763   00160A  6ED9               	movwf	fsr2l,c
  4764   00160C  6ADA               	clrf	fsr2h,c
  4765   00160E  0E44               	movlw	68
  4766   001610  6EDF               	movwf	indf2,c
  4767   001612                     l2870:
  4768                           
  4769                           ;APP/keypad.c: 201:     PORTBbits.RB3=1;
  4770   001612  8681               	bsf	129,3,c	;volatile
  4771   001614  0012               	return		;funcret
  4772   001616                     __end_of_col4:
  4773                           	callstack 0
  4774                           
  4775 ;; *************** function _col3 *****************
  4776 ;; Defined at:
  4777 ;;		line 106 in file "APP/keypad.c"
  4778 ;; Parameters:    Size  Location     Type
  4779 ;;		None
  4780 ;; Auto vars:     Size  Location     Type
  4781 ;;		None
  4782 ;; Return value:  Size  Location     Type
  4783 ;;                  1    wreg      void 
  4784 ;; Registers used:
  4785 ;;		wreg, fsr2l, fsr2h, status,2, status,0, cstack
  4786 ;; Tracked objects:
  4787 ;;		On entry : 0/0
  4788 ;;		On exit  : 0/0
  4789 ;;		Unchanged: 0/0
  4790 ;; Data sizes:     COMRAM   BANK0   BANK1   BANK2   BANK3   BANK4   BANK5
  4791 ;;      Params:         0       0       0       0       0       0       0
  4792 ;;      Locals:         0       0       0       0       0       0       0
  4793 ;;      Temps:          0       0       0       0       0       0       0
  4794 ;;      Totals:         0       0       0       0       0       0       0
  4795 ;;Total ram usage:        0 bytes
  4796 ;; Hardware stack levels used: 1
  4797 ;; Hardware stack levels required when called: 4
  4798 ;; This function calls:
  4799 ;;		_lcd_data
  4800 ;; This function is called by:
  4801 ;;		_runApp
  4802 ;;		_user_validation
  4803 ;;		_unlock_door
  4804 ;;		_lock_door
  4805 ;; This function uses a non-reentrant model
  4806 ;;
  4807                           
  4808                           	psect	text29
  4809   0011F0                     __ptext29:
  4810                           	callstack 0
  4811   0011F0                     _col3:
  4812                           	callstack 24
  4813   0011F0                     
  4814                           ;APP/keypad.c: 108:     PORTBbits.RB0=PORTBbits.RB1=PORTBbits.RB2=PORTBbits.RB3=1;
  4815   0011F0  8681               	bsf	129,3,c	;volatile
  4816   0011F2  8481               	bsf	129,2,c	;volatile
  4817   0011F4  8281               	bsf	129,1,c	;volatile
  4818   0011F6  8081               	bsf	129,0,c	;volatile
  4819                           
  4820                           ;APP/keypad.c: 109:     PORTBbits.RB0=0;
  4821   0011F8  9081               	bcf	129,0,c	;volatile
  4822                           
  4823                           ;APP/keypad.c: 110:     if(PORTBbits.RB6==0)
  4824   0011FA  BC81               	btfsc	129,6,c	;volatile
  4825   0011FC  EF02  F009         	goto	u2101
  4826   001200  EF04  F009         	goto	u2100
  4827   001204                     u2101:
  4828   001204  EF16  F009         	goto	l2788
  4829   001208                     u2100:
  4830   001208                     l309:
  4831                           
  4832                           ;APP/keypad.c: 112:         while(PORTBbits.RB6==0)
  4833   001208  AC81               	btfss	129,6,c	;volatile
  4834   00120A  EF09  F009         	goto	u2111
  4835   00120E  EF0B  F009         	goto	u2110
  4836   001212                     u2111:
  4837   001212  EF04  F009         	goto	l309
  4838   001216                     u2110:
  4839   001216                     
  4840                           ;APP/keypad.c: 114:         lcd_data('*');
  4841   001216  0E2A               	movlw	42
  4842   001218  ECD4  F00D         	call	_lcd_data
  4843   00121C                     
  4844                           ;APP/keypad.c: 116:         type_passcode[i]='3';
  4845   00121C  5054               	movf	_i^0,w,c
  4846   00121E  0F24               	addlw	low _type_passcode
  4847   001220  6ED9               	movwf	fsr2l,c
  4848   001222  6ADA               	clrf	fsr2h,c
  4849   001224  0E33               	movlw	51
  4850   001226  6EDF               	movwf	indf2,c
  4851   001228                     
  4852                           ;APP/keypad.c: 117:         ch = '3';
  4853   001228  0E33               	movlw	51
  4854   00122A  6E59               	movwf	_ch^0,c
  4855   00122C                     l2788:
  4856                           
  4857                           ;APP/keypad.c: 120:     PORTBbits.RB0=1;
  4858   00122C  8081               	bsf	129,0,c	;volatile
  4859   00122E                     
  4860                           ;APP/keypad.c: 121:     PORTBbits.RB1=0;
  4861   00122E  9281               	bcf	129,1,c	;volatile
  4862   001230                     
  4863                           ;APP/keypad.c: 122:     if(PORTBbits.RB6==0)
  4864   001230  BC81               	btfsc	129,6,c	;volatile
  4865   001232  EF1D  F009         	goto	u2121
  4866   001236  EF1F  F009         	goto	u2120
  4867   00123A                     u2121:
  4868   00123A  EF2F  F009         	goto	l2800
  4869   00123E                     u2120:
  4870   00123E                     l313:
  4871                           
  4872                           ;APP/keypad.c: 124:         while(PORTBbits.RB6==0)
  4873   00123E  AC81               	btfss	129,6,c	;volatile
  4874   001240  EF24  F009         	goto	u2131
  4875   001244  EF26  F009         	goto	u2130
  4876   001248                     u2131:
  4877   001248  EF1F  F009         	goto	l313
  4878   00124C                     u2130:
  4879   00124C                     
  4880                           ;APP/keypad.c: 126:         lcd_data('*');
  4881   00124C  0E2A               	movlw	42
  4882   00124E  ECD4  F00D         	call	_lcd_data
  4883   001252                     
  4884                           ;APP/keypad.c: 128:         type_passcode[i]='6';
  4885   001252  5054               	movf	_i^0,w,c
  4886   001254  0F24               	addlw	low _type_passcode
  4887   001256  6ED9               	movwf	fsr2l,c
  4888   001258  6ADA               	clrf	fsr2h,c
  4889   00125A  0E36               	movlw	54
  4890   00125C  6EDF               	movwf	indf2,c
  4891   00125E                     l2800:
  4892                           
  4893                           ;APP/keypad.c: 131:     PORTBbits.RB1=1;
  4894   00125E  8281               	bsf	129,1,c	;volatile
  4895   001260                     
  4896                           ;APP/keypad.c: 132:     PORTBbits.RB2=0;
  4897   001260  9481               	bcf	129,2,c	;volatile
  4898   001262                     
  4899                           ;APP/keypad.c: 133:     if(PORTBbits.RB6==0)
  4900   001262  BC81               	btfsc	129,6,c	;volatile
  4901   001264  EF36  F009         	goto	u2141
  4902   001268  EF38  F009         	goto	u2140
  4903   00126C                     u2141:
  4904   00126C  EF48  F009         	goto	l2812
  4905   001270                     u2140:
  4906   001270                     l317:
  4907                           
  4908                           ;APP/keypad.c: 135:         while(PORTBbits.RB6==0)
  4909   001270  AC81               	btfss	129,6,c	;volatile
  4910   001272  EF3D  F009         	goto	u2151
  4911   001276  EF3F  F009         	goto	u2150
  4912   00127A                     u2151:
  4913   00127A  EF38  F009         	goto	l317
  4914   00127E                     u2150:
  4915   00127E                     
  4916                           ;APP/keypad.c: 137:         lcd_data('*');
  4917   00127E  0E2A               	movlw	42
  4918   001280  ECD4  F00D         	call	_lcd_data
  4919   001284                     
  4920                           ;APP/keypad.c: 140:         type_passcode[i]='9';
  4921   001284  5054               	movf	_i^0,w,c
  4922   001286  0F24               	addlw	low _type_passcode
  4923   001288  6ED9               	movwf	fsr2l,c
  4924   00128A  6ADA               	clrf	fsr2h,c
  4925   00128C  0E39               	movlw	57
  4926   00128E  6EDF               	movwf	indf2,c
  4927   001290                     l2812:
  4928                           
  4929                           ;APP/keypad.c: 143:     PORTBbits.RB2=1;
  4930   001290  8481               	bsf	129,2,c	;volatile
  4931   001292                     
  4932                           ;APP/keypad.c: 144:     PORTBbits.RB3=0;
  4933   001292  9681               	bcf	129,3,c	;volatile
  4934   001294                     
  4935                           ;APP/keypad.c: 145:     if(PORTBbits.RB6==0)
  4936   001294  BC81               	btfsc	129,6,c	;volatile
  4937   001296  EF4F  F009         	goto	u2161
  4938   00129A  EF51  F009         	goto	u2160
  4939   00129E                     u2161:
  4940   00129E  EF61  F009         	goto	l2824
  4941   0012A2                     u2160:
  4942   0012A2                     l321:
  4943                           
  4944                           ;APP/keypad.c: 147:         while(PORTBbits.RB6==0)
  4945   0012A2  AC81               	btfss	129,6,c	;volatile
  4946   0012A4  EF56  F009         	goto	u2171
  4947   0012A8  EF58  F009         	goto	u2170
  4948   0012AC                     u2171:
  4949   0012AC  EF51  F009         	goto	l321
  4950   0012B0                     u2170:
  4951   0012B0                     
  4952                           ;APP/keypad.c: 149:             lcd_data('*');
  4953   0012B0  0E2A               	movlw	42
  4954   0012B2  ECD4  F00D         	call	_lcd_data
  4955   0012B6                     
  4956                           ;APP/keypad.c: 151:             type_passcode[i]='#';
  4957   0012B6  5054               	movf	_i^0,w,c
  4958   0012B8  0F24               	addlw	low _type_passcode
  4959   0012BA  6ED9               	movwf	fsr2l,c
  4960   0012BC  6ADA               	clrf	fsr2h,c
  4961   0012BE  0E23               	movlw	35
  4962   0012C0  6EDF               	movwf	indf2,c
  4963   0012C2                     l2824:
  4964                           
  4965                           ;APP/keypad.c: 153:     PORTBbits.RB3=1;
  4966   0012C2  8681               	bsf	129,3,c	;volatile
  4967   0012C4  0012               	return		;funcret
  4968   0012C6                     __end_of_col3:
  4969                           	callstack 0
  4970                           
  4971 ;; *************** function _col2 *****************
  4972 ;; Defined at:
  4973 ;;		line 56 in file "APP/keypad.c"
  4974 ;; Parameters:    Size  Location     Type
  4975 ;;		None
  4976 ;; Auto vars:     Size  Location     Type
  4977 ;;		None
  4978 ;; Return value:  Size  Location     Type
  4979 ;;                  1    wreg      void 
  4980 ;; Registers used:
  4981 ;;		wreg, fsr2l, fsr2h, status,2, status,0, cstack
  4982 ;; Tracked objects:
  4983 ;;		On entry : 0/0
  4984 ;;		On exit  : 0/0
  4985 ;;		Unchanged: 0/0
  4986 ;; Data sizes:     COMRAM   BANK0   BANK1   BANK2   BANK3   BANK4   BANK5
  4987 ;;      Params:         0       0       0       0       0       0       0
  4988 ;;      Locals:         0       0       0       0       0       0       0
  4989 ;;      Temps:          0       0       0       0       0       0       0
  4990 ;;      Totals:         0       0       0       0       0       0       0
  4991 ;;Total ram usage:        0 bytes
  4992 ;; Hardware stack levels used: 1
  4993 ;; Hardware stack levels required when called: 4
  4994 ;; This function calls:
  4995 ;;		_lcd_data
  4996 ;; This function is called by:
  4997 ;;		_runApp
  4998 ;;		_user_validation
  4999 ;;		_unlock_door
  5000 ;;		_lock_door
  5001 ;; This function uses a non-reentrant model
  5002 ;;
  5003                           
  5004                           	psect	text30
  5005   0012C6                     __ptext30:
  5006                           	callstack 0
  5007   0012C6                     _col2:
  5008                           	callstack 24
  5009   0012C6                     
  5010                           ;APP/keypad.c: 58:     PORTBbits.RB0=PORTBbits.RB1=PORTBbits.RB2=PORTBbits.RB3=1;
  5011   0012C6  8681               	bsf	129,3,c	;volatile
  5012   0012C8  8481               	bsf	129,2,c	;volatile
  5013   0012CA  8281               	bsf	129,1,c	;volatile
  5014   0012CC  8081               	bsf	129,0,c	;volatile
  5015                           
  5016                           ;APP/keypad.c: 59:     PORTBbits.RB0=0;
  5017   0012CE  9081               	bcf	129,0,c	;volatile
  5018                           
  5019                           ;APP/keypad.c: 60:     if(PORTBbits.RB5==0)
  5020   0012D0  BA81               	btfsc	129,5,c	;volatile
  5021   0012D2  EF6D  F009         	goto	u2021
  5022   0012D6  EF6F  F009         	goto	u2020
  5023   0012DA                     u2021:
  5024   0012DA  EF81  F009         	goto	l2740
  5025   0012DE                     u2020:
  5026   0012DE                     l290:
  5027                           
  5028                           ;APP/keypad.c: 62:         while(PORTBbits.RB5==0)
  5029   0012DE  AA81               	btfss	129,5,c	;volatile
  5030   0012E0  EF74  F009         	goto	u2031
  5031   0012E4  EF76  F009         	goto	u2030
  5032   0012E8                     u2031:
  5033   0012E8  EF6F  F009         	goto	l290
  5034   0012EC                     u2030:
  5035   0012EC                     
  5036                           ;APP/keypad.c: 64:         lcd_data('*');
  5037   0012EC  0E2A               	movlw	42
  5038   0012EE  ECD4  F00D         	call	_lcd_data
  5039   0012F2                     
  5040                           ;APP/keypad.c: 66:         type_passcode[i]='2';
  5041   0012F2  5054               	movf	_i^0,w,c
  5042   0012F4  0F24               	addlw	low _type_passcode
  5043   0012F6  6ED9               	movwf	fsr2l,c
  5044   0012F8  6ADA               	clrf	fsr2h,c
  5045   0012FA  0E32               	movlw	50
  5046   0012FC  6EDF               	movwf	indf2,c
  5047   0012FE                     
  5048                           ;APP/keypad.c: 67:         ch ='2';
  5049   0012FE  0E32               	movlw	50
  5050   001300  6E59               	movwf	_ch^0,c
  5051   001302                     l2740:
  5052                           
  5053                           ;APP/keypad.c: 71:     PORTBbits.RB0=1;
  5054   001302  8081               	bsf	129,0,c	;volatile
  5055   001304                     
  5056                           ;APP/keypad.c: 72:     PORTBbits.RB1=0;
  5057   001304  9281               	bcf	129,1,c	;volatile
  5058   001306                     
  5059                           ;APP/keypad.c: 73:     if(PORTBbits.RB5==0)
  5060   001306  BA81               	btfsc	129,5,c	;volatile
  5061   001308  EF88  F009         	goto	u2041
  5062   00130C  EF8A  F009         	goto	u2040
  5063   001310                     u2041:
  5064   001310  EF9A  F009         	goto	l2752
  5065   001314                     u2040:
  5066   001314                     l294:
  5067                           
  5068                           ;APP/keypad.c: 75:         while(PORTBbits.RB5==0)
  5069   001314  AA81               	btfss	129,5,c	;volatile
  5070   001316  EF8F  F009         	goto	u2051
  5071   00131A  EF91  F009         	goto	u2050
  5072   00131E                     u2051:
  5073   00131E  EF8A  F009         	goto	l294
  5074   001322                     u2050:
  5075   001322                     
  5076                           ;APP/keypad.c: 77:         lcd_data('*');
  5077   001322  0E2A               	movlw	42
  5078   001324  ECD4  F00D         	call	_lcd_data
  5079   001328                     
  5080                           ;APP/keypad.c: 79:         type_passcode[i]='5';
  5081   001328  5054               	movf	_i^0,w,c
  5082   00132A  0F24               	addlw	low _type_passcode
  5083   00132C  6ED9               	movwf	fsr2l,c
  5084   00132E  6ADA               	clrf	fsr2h,c
  5085   001330  0E35               	movlw	53
  5086   001332  6EDF               	movwf	indf2,c
  5087   001334                     l2752:
  5088                           
  5089                           ;APP/keypad.c: 82:     PORTBbits.RB1=1;
  5090   001334  8281               	bsf	129,1,c	;volatile
  5091   001336                     
  5092                           ;APP/keypad.c: 83:     PORTBbits.RB2=0;
  5093   001336  9481               	bcf	129,2,c	;volatile
  5094   001338                     
  5095                           ;APP/keypad.c: 84:     if(PORTBbits.RB5==0)
  5096   001338  BA81               	btfsc	129,5,c	;volatile
  5097   00133A  EFA1  F009         	goto	u2061
  5098   00133E  EFA3  F009         	goto	u2060
  5099   001342                     u2061:
  5100   001342  EFB3  F009         	goto	l2764
  5101   001346                     u2060:
  5102   001346                     l298:
  5103                           
  5104                           ;APP/keypad.c: 86:         while(PORTBbits.RB5==0)
  5105   001346  AA81               	btfss	129,5,c	;volatile
  5106   001348  EFA8  F009         	goto	u2071
  5107   00134C  EFAA  F009         	goto	u2070
  5108   001350                     u2071:
  5109   001350  EFA3  F009         	goto	l298
  5110   001354                     u2070:
  5111   001354                     
  5112                           ;APP/keypad.c: 88:         lcd_data('*');
  5113   001354  0E2A               	movlw	42
  5114   001356  ECD4  F00D         	call	_lcd_data
  5115   00135A                     
  5116                           ;APP/keypad.c: 91:         type_passcode[i]='8';
  5117   00135A  5054               	movf	_i^0,w,c
  5118   00135C  0F24               	addlw	low _type_passcode
  5119   00135E  6ED9               	movwf	fsr2l,c
  5120   001360  6ADA               	clrf	fsr2h,c
  5121   001362  0E38               	movlw	56
  5122   001364  6EDF               	movwf	indf2,c
  5123   001366                     l2764:
  5124                           
  5125                           ;APP/keypad.c: 94:     PORTBbits.RB2=1;
  5126   001366  8481               	bsf	129,2,c	;volatile
  5127   001368                     
  5128                           ;APP/keypad.c: 95:     PORTBbits.RB3=0;
  5129   001368  9681               	bcf	129,3,c	;volatile
  5130   00136A                     
  5131                           ;APP/keypad.c: 96:     if(PORTBbits.RB5==0)
  5132   00136A  BA81               	btfsc	129,5,c	;volatile
  5133   00136C  EFBA  F009         	goto	u2081
  5134   001370  EFBC  F009         	goto	u2080
  5135   001374                     u2081:
  5136   001374  EFCC  F009         	goto	l2776
  5137   001378                     u2080:
  5138   001378                     l302:
  5139                           
  5140                           ;APP/keypad.c: 98:         while(PORTBbits.RB5==0)
  5141   001378  AA81               	btfss	129,5,c	;volatile
  5142   00137A  EFC1  F009         	goto	u2091
  5143   00137E  EFC3  F009         	goto	u2090
  5144   001382                     u2091:
  5145   001382  EFBC  F009         	goto	l302
  5146   001386                     u2090:
  5147   001386                     
  5148                           ;APP/keypad.c: 100:             lcd_data('*');
  5149   001386  0E2A               	movlw	42
  5150   001388  ECD4  F00D         	call	_lcd_data
  5151   00138C                     
  5152                           ;APP/keypad.c: 102:             type_passcode[i]='0';
  5153   00138C  5054               	movf	_i^0,w,c
  5154   00138E  0F24               	addlw	low _type_passcode
  5155   001390  6ED9               	movwf	fsr2l,c
  5156   001392  6ADA               	clrf	fsr2h,c
  5157   001394  0E30               	movlw	48
  5158   001396  6EDF               	movwf	indf2,c
  5159   001398                     l2776:
  5160                           
  5161                           ;APP/keypad.c: 104:     PORTBbits.RB3=1;
  5162   001398  8681               	bsf	129,3,c	;volatile
  5163   00139A  0012               	return		;funcret
  5164   00139C                     __end_of_col2:
  5165                           	callstack 0
  5166                           
  5167 ;; *************** function _col1 *****************
  5168 ;; Defined at:
  5169 ;;		line 7 in file "APP/keypad.c"
  5170 ;; Parameters:    Size  Location     Type
  5171 ;;		None
  5172 ;; Auto vars:     Size  Location     Type
  5173 ;;		None
  5174 ;; Return value:  Size  Location     Type
  5175 ;;                  1    wreg      void 
  5176 ;; Registers used:
  5177 ;;		wreg, fsr2l, fsr2h, status,2, status,0, cstack
  5178 ;; Tracked objects:
  5179 ;;		On entry : 0/0
  5180 ;;		On exit  : 0/0
  5181 ;;		Unchanged: 0/0
  5182 ;; Data sizes:     COMRAM   BANK0   BANK1   BANK2   BANK3   BANK4   BANK5
  5183 ;;      Params:         0       0       0       0       0       0       0
  5184 ;;      Locals:         0       0       0       0       0       0       0
  5185 ;;      Temps:          0       0       0       0       0       0       0
  5186 ;;      Totals:         0       0       0       0       0       0       0
  5187 ;;Total ram usage:        0 bytes
  5188 ;; Hardware stack levels used: 1
  5189 ;; Hardware stack levels required when called: 4
  5190 ;; This function calls:
  5191 ;;		_lcd_data
  5192 ;; This function is called by:
  5193 ;;		_runApp
  5194 ;;		_user_validation
  5195 ;;		_unlock_door
  5196 ;;		_lock_door
  5197 ;; This function uses a non-reentrant model
  5198 ;;
  5199                           
  5200                           	psect	text31
  5201   00139C                     __ptext31:
  5202                           	callstack 0
  5203   00139C                     _col1:
  5204                           	callstack 24
  5205   00139C                     
  5206                           ;APP/keypad.c: 9:     PORTBbits.RB0=PORTBbits.RB1=PORTBbits.RB2=PORTBbits.RB3=1;
  5207   00139C  8681               	bsf	129,3,c	;volatile
  5208   00139E  8481               	bsf	129,2,c	;volatile
  5209   0013A0  8281               	bsf	129,1,c	;volatile
  5210   0013A2  8081               	bsf	129,0,c	;volatile
  5211                           
  5212                           ;APP/keypad.c: 10:     PORTBbits.RB0=0;
  5213   0013A4  9081               	bcf	129,0,c	;volatile
  5214                           
  5215                           ;APP/keypad.c: 11:     if(PORTBbits.RB4==0)
  5216   0013A6  B881               	btfsc	129,4,c	;volatile
  5217   0013A8  EFD8  F009         	goto	u1941
  5218   0013AC  EFDA  F009         	goto	u1940
  5219   0013B0                     u1941:
  5220   0013B0  EFEC  F009         	goto	l2692
  5221   0013B4                     u1940:
  5222   0013B4                     l271:
  5223                           
  5224                           ;APP/keypad.c: 13:         while(PORTBbits.RB4==0)
  5225   0013B4  A881               	btfss	129,4,c	;volatile
  5226   0013B6  EFDF  F009         	goto	u1951
  5227   0013BA  EFE1  F009         	goto	u1950
  5228   0013BE                     u1951:
  5229   0013BE  EFDA  F009         	goto	l271
  5230   0013C2                     u1950:
  5231   0013C2                     
  5232                           ;APP/keypad.c: 15:         lcd_data('*');
  5233   0013C2  0E2A               	movlw	42
  5234   0013C4  ECD4  F00D         	call	_lcd_data
  5235   0013C8                     
  5236                           ;APP/keypad.c: 17:         type_passcode[i]='1';
  5237   0013C8  5054               	movf	_i^0,w,c
  5238   0013CA  0F24               	addlw	low _type_passcode
  5239   0013CC  6ED9               	movwf	fsr2l,c
  5240   0013CE  6ADA               	clrf	fsr2h,c
  5241   0013D0  0E31               	movlw	49
  5242   0013D2  6EDF               	movwf	indf2,c
  5243   0013D4                     
  5244                           ;APP/keypad.c: 18:         ch = '1';
  5245   0013D4  0E31               	movlw	49
  5246   0013D6  6E59               	movwf	_ch^0,c
  5247   0013D8                     l2692:
  5248                           
  5249                           ;APP/keypad.c: 21:     PORTBbits.RB0=1;
  5250   0013D8  8081               	bsf	129,0,c	;volatile
  5251   0013DA                     
  5252                           ;APP/keypad.c: 22:     PORTBbits.RB1=0;
  5253   0013DA  9281               	bcf	129,1,c	;volatile
  5254   0013DC                     
  5255                           ;APP/keypad.c: 23:     if(PORTBbits.RB4==0)
  5256   0013DC  B881               	btfsc	129,4,c	;volatile
  5257   0013DE  EFF3  F009         	goto	u1961
  5258   0013E2  EFF5  F009         	goto	u1960
  5259   0013E6                     u1961:
  5260   0013E6  EF05  F00A         	goto	l2704
  5261   0013EA                     u1960:
  5262   0013EA                     l275:
  5263                           
  5264                           ;APP/keypad.c: 25:         while(PORTBbits.RB4==0)
  5265   0013EA  A881               	btfss	129,4,c	;volatile
  5266   0013EC  EFFA  F009         	goto	u1971
  5267   0013F0  EFFC  F009         	goto	u1970
  5268   0013F4                     u1971:
  5269   0013F4  EFF5  F009         	goto	l275
  5270   0013F8                     u1970:
  5271   0013F8                     
  5272                           ;APP/keypad.c: 27:         lcd_data('*');
  5273   0013F8  0E2A               	movlw	42
  5274   0013FA  ECD4  F00D         	call	_lcd_data
  5275   0013FE                     
  5276                           ;APP/keypad.c: 29:         type_passcode[i]='4';
  5277   0013FE  5054               	movf	_i^0,w,c
  5278   001400  0F24               	addlw	low _type_passcode
  5279   001402  6ED9               	movwf	fsr2l,c
  5280   001404  6ADA               	clrf	fsr2h,c
  5281   001406  0E34               	movlw	52
  5282   001408  6EDF               	movwf	indf2,c
  5283   00140A                     l2704:
  5284                           
  5285                           ;APP/keypad.c: 32:     PORTBbits.RB1=1;
  5286   00140A  8281               	bsf	129,1,c	;volatile
  5287   00140C                     
  5288                           ;APP/keypad.c: 33:     PORTBbits.RB2=0;
  5289   00140C  9481               	bcf	129,2,c	;volatile
  5290   00140E                     
  5291                           ;APP/keypad.c: 34:     if(PORTBbits.RB4==0)
  5292   00140E  B881               	btfsc	129,4,c	;volatile
  5293   001410  EF0C  F00A         	goto	u1981
  5294   001414  EF0E  F00A         	goto	u1980
  5295   001418                     u1981:
  5296   001418  EF1E  F00A         	goto	l2716
  5297   00141C                     u1980:
  5298   00141C                     l279:
  5299                           
  5300                           ;APP/keypad.c: 36:         while(PORTBbits.RB4==0)
  5301   00141C  A881               	btfss	129,4,c	;volatile
  5302   00141E  EF13  F00A         	goto	u1991
  5303   001422  EF15  F00A         	goto	u1990
  5304   001426                     u1991:
  5305   001426  EF0E  F00A         	goto	l279
  5306   00142A                     u1990:
  5307   00142A                     
  5308                           ;APP/keypad.c: 38:         lcd_data('*');
  5309   00142A  0E2A               	movlw	42
  5310   00142C  ECD4  F00D         	call	_lcd_data
  5311   001430                     
  5312                           ;APP/keypad.c: 41:         type_passcode[i]='7';
  5313   001430  5054               	movf	_i^0,w,c
  5314   001432  0F24               	addlw	low _type_passcode
  5315   001434  6ED9               	movwf	fsr2l,c
  5316   001436  6ADA               	clrf	fsr2h,c
  5317   001438  0E37               	movlw	55
  5318   00143A  6EDF               	movwf	indf2,c
  5319   00143C                     l2716:
  5320                           
  5321                           ;APP/keypad.c: 44:     PORTBbits.RB2=1;
  5322   00143C  8481               	bsf	129,2,c	;volatile
  5323   00143E                     
  5324                           ;APP/keypad.c: 45:     PORTBbits.RB3=0;
  5325   00143E  9681               	bcf	129,3,c	;volatile
  5326   001440                     
  5327                           ;APP/keypad.c: 46:     if(PORTBbits.RB4==0)
  5328   001440  B881               	btfsc	129,4,c	;volatile
  5329   001442  EF25  F00A         	goto	u2001
  5330   001446  EF27  F00A         	goto	u2000
  5331   00144A                     u2001:
  5332   00144A  EF37  F00A         	goto	l2728
  5333   00144E                     u2000:
  5334   00144E                     l283:
  5335                           
  5336                           ;APP/keypad.c: 48:         while(PORTBbits.RB4==0)
  5337   00144E  A881               	btfss	129,4,c	;volatile
  5338   001450  EF2C  F00A         	goto	u2011
  5339   001454  EF2E  F00A         	goto	u2010
  5340   001458                     u2011:
  5341   001458  EF27  F00A         	goto	l283
  5342   00145C                     u2010:
  5343   00145C                     
  5344                           ;APP/keypad.c: 50:             lcd_data('*');
  5345   00145C  0E2A               	movlw	42
  5346   00145E  ECD4  F00D         	call	_lcd_data
  5347   001462                     
  5348                           ;APP/keypad.c: 52:           type_passcode[i]='*';
  5349   001462  5054               	movf	_i^0,w,c
  5350   001464  0F24               	addlw	low _type_passcode
  5351   001466  6ED9               	movwf	fsr2l,c
  5352   001468  6ADA               	clrf	fsr2h,c
  5353   00146A  0E2A               	movlw	42
  5354   00146C  6EDF               	movwf	indf2,c
  5355   00146E                     l2728:
  5356                           
  5357                           ;APP/keypad.c: 54:     PORTBbits.RB3=1;
  5358   00146E  8681               	bsf	129,3,c	;volatile
  5359   001470  0012               	return		;funcret
  5360   001472                     __end_of_col1:
  5361                           	callstack 0
  5362                           
  5363 ;; *************** function _lcd_data *****************
  5364 ;; Defined at:
  5365 ;;		line 30 in file "APP/lcd.c"
  5366 ;; Parameters:    Size  Location     Type
  5367 ;;  data            1    wreg     unsigned char 
  5368 ;; Auto vars:     Size  Location     Type
  5369 ;;  data            1    4[COMRAM] unsigned char 
  5370 ;;  data_u          1    6[COMRAM] unsigned char 
  5371 ;;  data_l          1    5[COMRAM] unsigned char 
  5372 ;; Return value:  Size  Location     Type
  5373 ;;                  1    wreg      void 
  5374 ;; Registers used:
  5375 ;;		wreg, status,2, status,0, cstack
  5376 ;; Tracked objects:
  5377 ;;		On entry : 0/0
  5378 ;;		On exit  : 0/0
  5379 ;;		Unchanged: 0/0
  5380 ;; Data sizes:     COMRAM   BANK0   BANK1   BANK2   BANK3   BANK4   BANK5
  5381 ;;      Params:         0       0       0       0       0       0       0
  5382 ;;      Locals:         3       0       0       0       0       0       0
  5383 ;;      Temps:          0       0       0       0       0       0       0
  5384 ;;      Totals:         3       0       0       0       0       0       0
  5385 ;;Total ram usage:        3 bytes
  5386 ;; Hardware stack levels used: 1
  5387 ;; Hardware stack levels required when called: 3
  5388 ;; This function calls:
  5389 ;;		_I2C_Start
  5390 ;;		_I2C_Stop
  5391 ;;		_I2C_Write
  5392 ;;		_delay1
  5393 ;; This function is called by:
  5394 ;;		_runApp
  5395 ;;		_user_validation
  5396 ;;		_unlock_door
  5397 ;;		_lock_door
  5398 ;;		_set_password
  5399 ;;		_compare
  5400 ;;		_col1
  5401 ;;		_col2
  5402 ;;		_col3
  5403 ;;		_col4
  5404 ;;		_col5
  5405 ;;		_col6
  5406 ;;		_col7
  5407 ;;		_col8
  5408 ;; This function uses a non-reentrant model
  5409 ;;
  5410                           
  5411                           	psect	text32
  5412   001BA8                     __ptext32:
  5413                           	callstack 0
  5414   001BA8                     _lcd_data:
  5415                           	callstack 25
  5416                           
  5417                           ;incstack = 0
  5418                           ;lcd_data@data stored from wreg
  5419   001BA8  6E2D               	movwf	lcd_data@data^0,c
  5420   001BAA                     
  5421                           ;APP/lcd.c: 30: void lcd_data(unsigned char data);APP/lcd.c: 31: {;APP/lcd.c: 32: unsign
      +                          ed char data_l, data_u;;APP/lcd.c: 33:  data_l = (data<<4)&0xf0;
  5422   001BAA  382D               	swapf	lcd_data@data^0,w,c
  5423   001BAC  0BF0               	andlw	240
  5424   001BAE  0BF0               	andlw	240
  5425   001BB0  6E2E               	movwf	lcd_data@data_l^0,c
  5426                           
  5427                           ;APP/lcd.c: 34:  data_u = data&0xf0;
  5428   001BB2  502D               	movf	lcd_data@data^0,w,c
  5429   001BB4  0BF0               	andlw	240
  5430   001BB6  6E2F               	movwf	lcd_data@data_u^0,c
  5431   001BB8                     
  5432                           ;APP/lcd.c: 36:  I2C_Start(0x27<<1);
  5433   001BB8  0E4E               	movlw	78
  5434   001BBA  EC63  F00E         	call	_I2C_Start
  5435   001BBE                     
  5436                           ;APP/lcd.c: 38:  I2C_Write (data_u|0x0D);
  5437   001BBE  502F               	movf	lcd_data@data_u^0,w,c
  5438   001BC0  090D               	iorlw	13
  5439   001BC2  ECA5  F00E         	call	_I2C_Write
  5440   001BC6                     
  5441                           ;APP/lcd.c: 39:  delay1();
  5442   001BC6  EC3F  F00D         	call	_delay1	;wreg free
  5443   001BCA                     
  5444                           ;APP/lcd.c: 40:  I2C_Write (data_u|0x09);
  5445   001BCA  502F               	movf	lcd_data@data_u^0,w,c
  5446   001BCC  0909               	iorlw	9
  5447   001BCE  ECA5  F00E         	call	_I2C_Write
  5448   001BD2                     
  5449                           ;APP/lcd.c: 42:  I2C_Write (data_l|0x0D);
  5450   001BD2  502E               	movf	lcd_data@data_l^0,w,c
  5451   001BD4  090D               	iorlw	13
  5452   001BD6  ECA5  F00E         	call	_I2C_Write
  5453   001BDA                     
  5454                           ;APP/lcd.c: 43:  delay1();
  5455   001BDA  EC3F  F00D         	call	_delay1	;wreg free
  5456   001BDE                     
  5457                           ;APP/lcd.c: 44:  I2C_Write (data_l|0x09);
  5458   001BDE  502E               	movf	lcd_data@data_l^0,w,c
  5459   001BE0  0909               	iorlw	9
  5460   001BE2  ECA5  F00E         	call	_I2C_Write
  5461   001BE6                     
  5462                           ;APP/lcd.c: 46:  I2C_Stop();
  5463   001BE6  ECC6  F00E         	call	_I2C_Stop	;wreg free
  5464   001BEA  0012               	return		;funcret
  5465   001BEC                     __end_of_lcd_data:
  5466                           	callstack 0
  5467                           
  5468 ;; *************** function _delay1 *****************
  5469 ;; Defined at:
  5470 ;;		line 48 in file "APP/lcd.c"
  5471 ;; Parameters:    Size  Location     Type
  5472 ;;		None
  5473 ;; Auto vars:     Size  Location     Type
  5474 ;;  j               2    2[COMRAM] int 
  5475 ;;  i               2    0[COMRAM] int 
  5476 ;; Return value:  Size  Location     Type
  5477 ;;                  1    wreg      void 
  5478 ;; Registers used:
  5479 ;;		wreg, status,2, status,0
  5480 ;; Tracked objects:
  5481 ;;		On entry : 0/0
  5482 ;;		On exit  : 0/0
  5483 ;;		Unchanged: 0/0
  5484 ;; Data sizes:     COMRAM   BANK0   BANK1   BANK2   BANK3   BANK4   BANK5
  5485 ;;      Params:         0       0       0       0       0       0       0
  5486 ;;      Locals:         4       0       0       0       0       0       0
  5487 ;;      Temps:          0       0       0       0       0       0       0
  5488 ;;      Totals:         4       0       0       0       0       0       0
  5489 ;;Total ram usage:        4 bytes
  5490 ;; Hardware stack levels used: 1
  5491 ;; This function calls:
  5492 ;;		Nothing
  5493 ;; This function is called by:
  5494 ;;		_lcd_cmd
  5495 ;;		_lcd_data
  5496 ;; This function uses a non-reentrant model
  5497 ;;
  5498                           
  5499                           	psect	text33
  5500   001A7E                     __ptext33:
  5501                           	callstack 0
  5502   001A7E                     _delay1:
  5503                           	callstack 27
  5504   001A7E                     
  5505                           ;APP/lcd.c: 50:  int i,j;;APP/lcd.c: 51:  for(i=0;i<100;i++)
  5506   001A7E  0E00               	movlw	0
  5507   001A80  6E2A               	movwf	(delay1@i+1)^0,c
  5508   001A82  0E00               	movlw	0
  5509   001A84  6E29               	movwf	delay1@i^0,c
  5510   001A86                     l2498:
  5511                           
  5512                           ;APP/lcd.c: 52:   for(j=0;j<50;j++);
  5513   001A86  0E00               	movlw	0
  5514   001A88  6E2C               	movwf	(delay1@j+1)^0,c
  5515   001A8A  0E00               	movlw	0
  5516   001A8C  6E2B               	movwf	delay1@j^0,c
  5517   001A8E                     l2504:
  5518   001A8E  4A2B               	infsnz	delay1@j^0,f,c
  5519   001A90  2A2C               	incf	(delay1@j+1)^0,f,c
  5520   001A92  BE2C               	btfsc	(delay1@j+1)^0,7,c
  5521   001A94  EF55  F00D         	goto	u1711
  5522   001A98  502C               	movf	(delay1@j+1)^0,w,c
  5523   001A9A  E109               	bnz	u1710
  5524   001A9C  0E32               	movlw	50
  5525   001A9E  5C2B               	subwf	delay1@j^0,w,c
  5526   001AA0  A0D8               	btfss	status,0,c
  5527   001AA2  EF55  F00D         	goto	u1711
  5528   001AA6  EF57  F00D         	goto	u1710
  5529   001AAA                     u1711:
  5530   001AAA  EF47  F00D         	goto	l2504
  5531   001AAE                     u1710:
  5532   001AAE  4A29               	infsnz	delay1@i^0,f,c
  5533   001AB0  2A2A               	incf	(delay1@i+1)^0,f,c
  5534   001AB2  BE2A               	btfsc	(delay1@i+1)^0,7,c
  5535   001AB4  EF65  F00D         	goto	u1721
  5536   001AB8  502A               	movf	(delay1@i+1)^0,w,c
  5537   001ABA  E109               	bnz	u1720
  5538   001ABC  0E64               	movlw	100
  5539   001ABE  5C29               	subwf	delay1@i^0,w,c
  5540   001AC0  A0D8               	btfss	status,0,c
  5541   001AC2  EF65  F00D         	goto	u1721
  5542   001AC6  EF67  F00D         	goto	u1720
  5543   001ACA                     u1721:
  5544   001ACA  EF43  F00D         	goto	l2498
  5545   001ACE                     u1720:
  5546   001ACE  0012               	return		;funcret
  5547   001AD0                     __end_of_delay1:
  5548                           	callstack 0
  5549                           
  5550 ;; *************** function _I2C_Stop *****************
  5551 ;; Defined at:
  5552 ;;		line 38 in file "APP/I2C_.c"
  5553 ;; Parameters:    Size  Location     Type
  5554 ;;		None
  5555 ;; Auto vars:     Size  Location     Type
  5556 ;;		None
  5557 ;; Return value:  Size  Location     Type
  5558 ;;                  1    wreg      unsigned char 
  5559 ;; Registers used:
  5560 ;;		wreg, cstack
  5561 ;; Tracked objects:
  5562 ;;		On entry : 0/0
  5563 ;;		On exit  : 0/0
  5564 ;;		Unchanged: 0/0
  5565 ;; Data sizes:     COMRAM   BANK0   BANK1   BANK2   BANK3   BANK4   BANK5
  5566 ;;      Params:         0       0       0       0       0       0       0
  5567 ;;      Locals:         0       0       0       0       0       0       0
  5568 ;;      Temps:          0       0       0       0       0       0       0
  5569 ;;      Totals:         0       0       0       0       0       0       0
  5570 ;;Total ram usage:        0 bytes
  5571 ;; Hardware stack levels used: 1
  5572 ;; Hardware stack levels required when called: 1
  5573 ;; This function calls:
  5574 ;;		_I2C_Ready
  5575 ;; This function is called by:
  5576 ;;		_lcd_cmd
  5577 ;;		_lcd_data
  5578 ;; This function uses a non-reentrant model
  5579 ;;
  5580                           
  5581                           	psect	text34
  5582   001D8C                     __ptext34:
  5583                           	callstack 0
  5584   001D8C                     _I2C_Stop:
  5585                           	callstack 26
  5586   001D8C                     
  5587                           ;APP/I2C_.c: 40:  I2C_Ready();
  5588   001D8C  EC7A  F00E         	call	_I2C_Ready	;wreg free
  5589   001D90                     
  5590                           ;APP/I2C_.c: 41:  SSPCON2bits.PEN = 1;
  5591   001D90  84C5               	bsf	197,2,c	;volatile
  5592   001D92                     l535:
  5593   001D92  B4C5               	btfsc	197,2,c	;volatile
  5594   001D94  EFCE  F00E         	goto	u1731
  5595   001D98  EFD0  F00E         	goto	u1730
  5596   001D9C                     u1731:
  5597   001D9C  EFC9  F00E         	goto	l535
  5598   001DA0                     u1730:
  5599   001DA0                     
  5600                           ;APP/I2C_.c: 43:  PIR1bits.SSPIF = 0;
  5601   001DA0  969E               	bcf	158,3,c	;volatile
  5602                           
  5603                           ;APP/I2C_.c: 44:  if(!SSPSTATbits.P)
  5604   001DA2  50C7               	movf	199,w,c	;volatile
  5605   001DA4  0012               	return		;funcret
  5606   001DA6                     __end_of_I2C_Stop:
  5607                           	callstack 0
  5608                           
  5609 ;; *************** function _I2C_Start *****************
  5610 ;; Defined at:
  5611 ;;		line 29 in file "APP/I2C_.c"
  5612 ;; Parameters:    Size  Location     Type
  5613 ;;  slave_write_    1    wreg     unsigned char 
  5614 ;; Auto vars:     Size  Location     Type
  5615 ;;  slave_write_    1    1[COMRAM] unsigned char 
  5616 ;; Return value:  Size  Location     Type
  5617 ;;                  1    wreg      unsigned char 
  5618 ;; Registers used:
  5619 ;;		wreg, status,2, cstack
  5620 ;; Tracked objects:
  5621 ;;		On entry : 0/0
  5622 ;;		On exit  : 0/0
  5623 ;;		Unchanged: 0/0
  5624 ;; Data sizes:     COMRAM   BANK0   BANK1   BANK2   BANK3   BANK4   BANK5
  5625 ;;      Params:         0       0       0       0       0       0       0
  5626 ;;      Locals:         1       0       0       0       0       0       0
  5627 ;;      Temps:          0       0       0       0       0       0       0
  5628 ;;      Totals:         1       0       0       0       0       0       0
  5629 ;;Total ram usage:        1 bytes
  5630 ;; Hardware stack levels used: 1
  5631 ;; Hardware stack levels required when called: 2
  5632 ;; This function calls:
  5633 ;;		_I2C_Write
  5634 ;; This function is called by:
  5635 ;;		_lcd_cmd
  5636 ;;		_lcd_data
  5637 ;; This function uses a non-reentrant model
  5638 ;;
  5639                           
  5640                           	psect	text35
  5641   001CC6                     __ptext35:
  5642                           	callstack 0
  5643   001CC6                     _I2C_Start:
  5644                           	callstack 25
  5645                           
  5646                           ;incstack = 0
  5647                           ;I2C_Start@slave_write_address stored from wreg
  5648   001CC6  6E2A               	movwf	I2C_Start@slave_write_address^0,c
  5649   001CC8                     
  5650                           ;APP/I2C_.c: 29: char I2C_Start(char slave_write_address);APP/I2C_.c: 30: {;APP/I2C_.c: 
      +                          31:  SSPCON2bits.SEN = 1;
  5651   001CC8  80C5               	bsf	197,0,c	;volatile
  5652   001CCA                     l528:
  5653   001CCA  B0C5               	btfsc	197,0,c	;volatile
  5654   001CCC  EF6A  F00E         	goto	u1691
  5655   001CD0  EF6C  F00E         	goto	u1690
  5656   001CD4                     u1691:
  5657   001CD4  EF65  F00E         	goto	l528
  5658   001CD8                     u1690:
  5659   001CD8                     
  5660                           ;APP/I2C_.c: 33:  PIR1bits.SSPIF = 0;
  5661   001CD8  969E               	bcf	158,3,c	;volatile
  5662                           
  5663                           ;APP/I2C_.c: 34:  if(!SSPSTATbits.S)
  5664   001CDA  B6C7               	btfsc	199,3,c	;volatile
  5665   001CDC  EF72  F00E         	goto	u1701
  5666   001CE0  EF74  F00E         	goto	u1700
  5667   001CE4                     u1701:
  5668   001CE4  EF76  F00E         	goto	l2488
  5669   001CE8                     u1700:
  5670   001CE8  EF79  F00E         	goto	l532
  5671   001CEC                     l2488:
  5672                           
  5673                           ;APP/I2C_.c: 36:  return (I2C_Write(slave_write_address));;	Return value of _I2C_Start i
      +                          s never used
  5674   001CEC  502A               	movf	I2C_Start@slave_write_address^0,w,c
  5675   001CEE  ECA5  F00E         	call	_I2C_Write
  5676   001CF2                     l532:
  5677   001CF2  0012               	return		;funcret
  5678   001CF4                     __end_of_I2C_Start:
  5679                           	callstack 0
  5680                           
  5681 ;; *************** function _I2C_Write *****************
  5682 ;; Defined at:
  5683 ;;		line 19 in file "APP/I2C_.c"
  5684 ;; Parameters:    Size  Location     Type
  5685 ;;  data            1    wreg     unsigned char 
  5686 ;; Auto vars:     Size  Location     Type
  5687 ;;  data            1    0[COMRAM] unsigned char 
  5688 ;; Return value:  Size  Location     Type
  5689 ;;                  1    wreg      unsigned char 
  5690 ;; Registers used:
  5691 ;;		wreg, cstack
  5692 ;; Tracked objects:
  5693 ;;		On entry : 0/0
  5694 ;;		On exit  : 0/0
  5695 ;;		Unchanged: 0/0
  5696 ;; Data sizes:     COMRAM   BANK0   BANK1   BANK2   BANK3   BANK4   BANK5
  5697 ;;      Params:         0       0       0       0       0       0       0
  5698 ;;      Locals:         1       0       0       0       0       0       0
  5699 ;;      Temps:          0       0       0       0       0       0       0
  5700 ;;      Totals:         1       0       0       0       0       0       0
  5701 ;;Total ram usage:        1 bytes
  5702 ;; Hardware stack levels used: 1
  5703 ;; Hardware stack levels required when called: 1
  5704 ;; This function calls:
  5705 ;;		_I2C_Ready
  5706 ;; This function is called by:
  5707 ;;		_lcd_cmd
  5708 ;;		_lcd_data
  5709 ;;		_I2C_Start
  5710 ;; This function uses a non-reentrant model
  5711 ;;
  5712                           
  5713                           	psect	text36
  5714   001D4A                     __ptext36:
  5715                           	callstack 0
  5716   001D4A                     _I2C_Write:
  5717                           	callstack 26
  5718                           
  5719                           ;incstack = 0
  5720                           ;I2C_Write@data stored from wreg
  5721   001D4A  6E29               	movwf	I2C_Write@data^0,c
  5722   001D4C                     
  5723                           ;APP/I2C_.c: 19: char I2C_Write(unsigned char data);APP/I2C_.c: 20: {;APP/I2C_.c: 21:  S
      +                          SPBUF = data;
  5724   001D4C  C029  FFC9         	movff	I2C_Write@data,4041	;volatile
  5725   001D50                     
  5726                           ;APP/I2C_.c: 22:  I2C_Ready();
  5727   001D50  EC7A  F00E         	call	_I2C_Ready	;wreg free
  5728   001D54                     
  5729                           ;APP/I2C_.c: 23:  if(SSPCON2bits.ACKSTAT)
  5730   001D54  ACC5               	btfss	197,6,c	;volatile
  5731   001D56  EFAF  F00E         	goto	u1681
  5732   001D5A  EFB1  F00E         	goto	u1680
  5733   001D5E                     u1681:
  5734   001D5E  EFB4  F00E         	goto	l2480
  5735   001D62                     u1680:
  5736   001D62                     
  5737                           ;APP/I2C_.c: 24:  return 1;
  5738   001D62  0E01               	movlw	1
  5739   001D64  EFB5  F00E         	goto	l524
  5740   001D68                     l2480:
  5741                           
  5742                           ;APP/I2C_.c: 26:  return 0;
  5743   001D68  0E00               	movlw	0
  5744   001D6A                     l524:
  5745   001D6A  0012               	return		;funcret
  5746   001D6C                     __end_of_I2C_Write:
  5747                           	callstack 0
  5748                           
  5749 ;; *************** function _I2C_Ready *****************
  5750 ;; Defined at:
  5751 ;;		line 13 in file "APP/I2C_.c"
  5752 ;; Parameters:    Size  Location     Type
  5753 ;;		None
  5754 ;; Auto vars:     Size  Location     Type
  5755 ;;		None
  5756 ;; Return value:  Size  Location     Type
  5757 ;;                  1    wreg      void 
  5758 ;; Registers used:
  5759 ;;		None
  5760 ;; Tracked objects:
  5761 ;;		On entry : 0/0
  5762 ;;		On exit  : 0/0
  5763 ;;		Unchanged: 0/0
  5764 ;; Data sizes:     COMRAM   BANK0   BANK1   BANK2   BANK3   BANK4   BANK5
  5765 ;;      Params:         0       0       0       0       0       0       0
  5766 ;;      Locals:         0       0       0       0       0       0       0
  5767 ;;      Temps:          0       0       0       0       0       0       0
  5768 ;;      Totals:         0       0       0       0       0       0       0
  5769 ;;Total ram usage:        0 bytes
  5770 ;; Hardware stack levels used: 1
  5771 ;; This function calls:
  5772 ;;		Nothing
  5773 ;; This function is called by:
  5774 ;;		_runApp
  5775 ;;		_I2C_Write
  5776 ;;		_I2C_Stop
  5777 ;; This function uses a non-reentrant model
  5778 ;;
  5779                           
  5780                           	psect	text37
  5781   001CF4                     __ptext37:
  5782                           	callstack 0
  5783   001CF4                     _I2C_Ready:
  5784                           	callstack 26
  5785   001CF4                     l514:
  5786   001CF4  B6A1               	btfsc	161,3,c	;volatile
  5787   001CF6  EF7F  F00E         	goto	u1651
  5788   001CFA  EF81  F00E         	goto	u1650
  5789   001CFE                     u1651:
  5790   001CFE  EF7A  F00E         	goto	l514
  5791   001D02                     u1650:
  5792   001D02                     l517:
  5793   001D02  B0C7               	btfsc	199,0,c	;volatile
  5794   001D04  EF86  F00E         	goto	u1661
  5795   001D08  EF88  F00E         	goto	u1660
  5796   001D0C                     u1661:
  5797   001D0C  EF81  F00E         	goto	l517
  5798   001D10                     u1660:
  5799   001D10  B4C7               	btfsc	199,2,c	;volatile
  5800   001D12  EF8D  F00E         	goto	u1671
  5801   001D16  EF8F  F00E         	goto	u1670
  5802   001D1A                     u1671:
  5803   001D1A  EF81  F00E         	goto	l517
  5804   001D1E                     u1670:
  5805   001D1E                     
  5806                           ;APP/I2C_.c: 17:  PIR1bits.SSPIF = 0;
  5807   001D1E  969E               	bcf	158,3,c	;volatile
  5808   001D20  0012               	return		;funcret
  5809   001D22                     __end_of_I2C_Ready:
  5810                           	callstack 0
  5811                           
  5812 ;; *************** function _delay2 *****************
  5813 ;; Defined at:
  5814 ;;		line 47 in file "APP/I2C_.c"
  5815 ;; Parameters:    Size  Location     Type
  5816 ;;  a               2    0[COMRAM] int 
  5817 ;; Auto vars:     Size  Location     Type
  5818 ;;  j               2    4[COMRAM] int 
  5819 ;;  i               2    2[COMRAM] int 
  5820 ;; Return value:  Size  Location     Type
  5821 ;;                  1    wreg      void 
  5822 ;; Registers used:
  5823 ;;		wreg, status,2, status,0
  5824 ;; Tracked objects:
  5825 ;;		On entry : 0/0
  5826 ;;		On exit  : 0/0
  5827 ;;		Unchanged: 0/0
  5828 ;; Data sizes:     COMRAM   BANK0   BANK1   BANK2   BANK3   BANK4   BANK5
  5829 ;;      Params:         2       0       0       0       0       0       0
  5830 ;;      Locals:         4       0       0       0       0       0       0
  5831 ;;      Temps:          0       0       0       0       0       0       0
  5832 ;;      Totals:         6       0       0       0       0       0       0
  5833 ;;Total ram usage:        6 bytes
  5834 ;; Hardware stack levels used: 1
  5835 ;; This function calls:
  5836 ;;		Nothing
  5837 ;; This function is called by:
  5838 ;;		_runApp
  5839 ;; This function uses a non-reentrant model
  5840 ;;
  5841                           
  5842                           	psect	text38
  5843   0019CC                     __ptext38:
  5844                           	callstack 0
  5845   0019CC                     _delay2:
  5846                           	callstack 29
  5847   0019CC                     
  5848                           ;APP/I2C_.c: 47: void delay2(int a);APP/I2C_.c: 48: {;APP/I2C_.c: 49:  int i,j;;APP/I2C_
      +                          .c: 50:  for(i=a;i<345;i++)
  5849   0019CC  C029  F02B         	movff	delay2@a,delay2@i
  5850   0019D0  C02A  F02C         	movff	delay2@a+1,delay2@i+1
  5851   0019D4                     l3164:
  5852   0019D4  BE2C               	btfsc	(delay2@i+1)^0,7,c
  5853   0019D6  EFF6  F00C         	goto	u2681
  5854   0019DA  0E59               	movlw	89
  5855   0019DC  5C2B               	subwf	delay2@i^0,w,c
  5856   0019DE  0E01               	movlw	1
  5857   0019E0  582C               	subwfb	(delay2@i+1)^0,w,c
  5858   0019E2  A0D8               	btfss	status,0,c
  5859   0019E4  EFF6  F00C         	goto	u2681
  5860   0019E8  EFF8  F00C         	goto	u2680
  5861   0019EC                     u2681:
  5862   0019EC  EFFA  F00C         	goto	l3168
  5863   0019F0                     u2680:
  5864   0019F0  EF12  F00D         	goto	l546
  5865   0019F4                     l3168:
  5866                           
  5867                           ;APP/I2C_.c: 51:  for(j=0;j<12;j++);
  5868   0019F4  0E00               	movlw	0
  5869   0019F6  6E2E               	movwf	(delay2@j+1)^0,c
  5870   0019F8  0E00               	movlw	0
  5871   0019FA  6E2D               	movwf	delay2@j^0,c
  5872   0019FC                     l3174:
  5873   0019FC  4A2D               	infsnz	delay2@j^0,f,c
  5874   0019FE  2A2E               	incf	(delay2@j+1)^0,f,c
  5875   001A00  BE2E               	btfsc	(delay2@j+1)^0,7,c
  5876   001A02  EF0C  F00D         	goto	u2691
  5877   001A06  502E               	movf	(delay2@j+1)^0,w,c
  5878   001A08  E109               	bnz	u2690
  5879   001A0A  0E0C               	movlw	12
  5880   001A0C  5C2D               	subwf	delay2@j^0,w,c
  5881   001A0E  A0D8               	btfss	status,0,c
  5882   001A10  EF0C  F00D         	goto	u2691
  5883   001A14  EF0E  F00D         	goto	u2690
  5884   001A18                     u2691:
  5885   001A18  EFFE  F00C         	goto	l3174
  5886   001A1C                     u2690:
  5887   001A1C  4A2B               	infsnz	delay2@i^0,f,c
  5888   001A1E  2A2C               	incf	(delay2@i+1)^0,f,c
  5889   001A20  EFEA  F00C         	goto	l3164
  5890   001A24                     l546:
  5891   001A24  0012               	return		;funcret
  5892   001A26                     __end_of_delay2:
  5893                           	callstack 0
  5894                           
  5895 ;; *************** function _I2C_Init *****************
  5896 ;; Defined at:
  5897 ;;		line 3 in file "APP/I2C_.c"
  5898 ;; Parameters:    Size  Location     Type
  5899 ;;		None
  5900 ;; Auto vars:     Size  Location     Type
  5901 ;;		None
  5902 ;; Return value:  Size  Location     Type
  5903 ;;                  1    wreg      void 
  5904 ;; Registers used:
  5905 ;;		wreg, status,2
  5906 ;; Tracked objects:
  5907 ;;		On entry : 0/0
  5908 ;;		On exit  : 0/0
  5909 ;;		Unchanged: 0/0
  5910 ;; Data sizes:     COMRAM   BANK0   BANK1   BANK2   BANK3   BANK4   BANK5
  5911 ;;      Params:         0       0       0       0       0       0       0
  5912 ;;      Locals:         0       0       0       0       0       0       0
  5913 ;;      Temps:          0       0       0       0       0       0       0
  5914 ;;      Totals:         0       0       0       0       0       0       0
  5915 ;;Total ram usage:        0 bytes
  5916 ;; Hardware stack levels used: 1
  5917 ;; This function calls:
  5918 ;;		Nothing
  5919 ;; This function is called by:
  5920 ;;		_runApp
  5921 ;; This function uses a non-reentrant model
  5922 ;;
  5923                           
  5924                           	psect	text39
  5925   001DA6                     __ptext39:
  5926                           	callstack 0
  5927   001DA6                     _I2C_Init:
  5928                           	callstack 29
  5929   001DA6                     
  5930                           ;APP/I2C_.c: 5:  SSPSTAT = 0x80;
  5931   001DA6  0E80               	movlw	128
  5932   001DA8  6EC7               	movwf	199,c	;volatile
  5933                           
  5934                           ;APP/I2C_.c: 6:  SSPCON1 = 0x28;
  5935   001DAA  0E28               	movlw	40
  5936   001DAC  6EC6               	movwf	198,c	;volatile
  5937                           
  5938                           ;APP/I2C_.c: 8:  SSPCON2 = 0x00;
  5939   001DAE  0E00               	movlw	0
  5940   001DB0  6EC5               	movwf	197,c	;volatile
  5941                           
  5942                           ;APP/I2C_.c: 9:  SSPADD = 100;
  5943   001DB2  0E64               	movlw	100
  5944   001DB4  6EC8               	movwf	200,c	;volatile
  5945   001DB6                     
  5946                           ;APP/I2C_.c: 10:  PIR1bits.SSPIF = 0;
  5947   001DB6  969E               	bcf	158,3,c	;volatile
  5948   001DB8  0012               	return		;funcret
  5949   001DBA                     __end_of_I2C_Init:
  5950                           	callstack 0
  5951                           
  5952 ;; *************** function _initBIOS *****************
  5953 ;; Defined at:
  5954 ;;		line 4 in file "BIOS/bios.c"
  5955 ;; Parameters:    Size  Location     Type
  5956 ;;		None
  5957 ;; Auto vars:     Size  Location     Type
  5958 ;;		None
  5959 ;; Return value:  Size  Location     Type
  5960 ;;                  1    wreg      void 
  5961 ;; Registers used:
  5962 ;;		wreg, status,2, cstack
  5963 ;; Tracked objects:
  5964 ;;		On entry : 0/0
  5965 ;;		On exit  : 0/0
  5966 ;;		Unchanged: 0/0
  5967 ;; Data sizes:     COMRAM   BANK0   BANK1   BANK2   BANK3   BANK4   BANK5
  5968 ;;      Params:         0       0       0       0       0       0       0
  5969 ;;      Locals:         0       0       0       0       0       0       0
  5970 ;;      Temps:          0       0       0       0       0       0       0
  5971 ;;      Totals:         0       0       0       0       0       0       0
  5972 ;;Total ram usage:        0 bytes
  5973 ;; Hardware stack levels used: 1
  5974 ;; Hardware stack levels required when called: 1
  5975 ;; This function calls:
  5976 ;;		_initPinmap
  5977 ;; This function is called by:
  5978 ;;		_main
  5979 ;; This function uses a non-reentrant model
  5980 ;;
  5981                           
  5982                           	psect	text40
  5983   001DE8                     __ptext40:
  5984                           	callstack 0
  5985   001DE8                     _initBIOS:
  5986                           	callstack 29
  5987   001DE8                     
  5988                           ;BIOS/bios.c: 6:     initPinmap();
  5989   001DE8  ECDD  F00E         	call	_initPinmap	;wreg free
  5990   001DEC  0012               	return		;funcret
  5991   001DEE                     __end_of_initBIOS:
  5992                           	callstack 0
  5993                           
  5994 ;; *************** function _initPinmap *****************
  5995 ;; Defined at:
  5996 ;;		line 10 in file "BIOS/pinmap.c"
  5997 ;; Parameters:    Size  Location     Type
  5998 ;;		None
  5999 ;; Auto vars:     Size  Location     Type
  6000 ;;		None
  6001 ;; Return value:  Size  Location     Type
  6002 ;;                  1    wreg      void 
  6003 ;; Registers used:
  6004 ;;		wreg, status,2
  6005 ;; Tracked objects:
  6006 ;;		On entry : 0/0
  6007 ;;		On exit  : 0/0
  6008 ;;		Unchanged: 0/0
  6009 ;; Data sizes:     COMRAM   BANK0   BANK1   BANK2   BANK3   BANK4   BANK5
  6010 ;;      Params:         0       0       0       0       0       0       0
  6011 ;;      Locals:         0       0       0       0       0       0       0
  6012 ;;      Temps:          0       0       0       0       0       0       0
  6013 ;;      Totals:         0       0       0       0       0       0       0
  6014 ;;Total ram usage:        0 bytes
  6015 ;; Hardware stack levels used: 1
  6016 ;; This function calls:
  6017 ;;		Nothing
  6018 ;; This function is called by:
  6019 ;;		_initBIOS
  6020 ;; This function uses a non-reentrant model
  6021 ;;
  6022                           
  6023                           	psect	text41
  6024   001DBA                     __ptext41:
  6025                           	callstack 0
  6026   001DBA                     _initPinmap:
  6027                           	callstack 29
  6028   001DBA                     
  6029                           ;BIOS/pinmap.c: 12:     ADCON1 = 0x0F;
  6030   001DBA  0E0F               	movlw	15
  6031   001DBC  6EC1               	movwf	193,c	;volatile
  6032                           
  6033                           ;BIOS/pinmap.c: 14:     TRISD = 0x00;
  6034   001DBE  0E00               	movlw	0
  6035   001DC0  6E95               	movwf	149,c	;volatile
  6036                           
  6037                           ;BIOS/pinmap.c: 15:     TRISB = 0xF0;
  6038   001DC2  0EF0               	movlw	240
  6039   001DC4  6E93               	movwf	147,c	;volatile
  6040   001DC6                     
  6041                           ;BIOS/pinmap.c: 18:     INTCON2bits.RBPU = 0;
  6042   001DC6  9EF1               	bcf	241,7,c	;volatile
  6043   001DC8  0012               	return		;funcret
  6044   001DCA                     __end_of_initPinmap:
  6045                           	callstack 0
  6046                           
  6047                           	psect	rparam
  6048   000000                     tosu	equ	0xFFF
  6049                           tosh	equ	0xFFE
  6050                           tosl	equ	0xFFD
  6051                           stkptr	equ	0xFFC
  6052                           pclatu	equ	0xFFB
  6053                           pclath	equ	0xFFA
  6054                           pcl	equ	0xFF9
  6055                           tblptru	equ	0xFF8
  6056                           tblptrh	equ	0xFF7
  6057                           tblptrl	equ	0xFF6
  6058                           tablat	equ	0xFF5
  6059                           prodh	equ	0xFF4
  6060                           prodl	equ	0xFF3
  6061                           indf0	equ	0xFEF
  6062                           postinc0	equ	0xFEE
  6063                           postdec0	equ	0xFED
  6064                           preinc0	equ	0xFEC
  6065                           plusw0	equ	0xFEB
  6066                           fsr0h	equ	0xFEA
  6067                           fsr0l	equ	0xFE9
  6068                           wreg	equ	0xFE8
  6069                           indf1	equ	0xFE7
  6070                           postinc1	equ	0xFE6
  6071                           postdec1	equ	0xFE5
  6072                           preinc1	equ	0xFE4
  6073                           plusw1	equ	0xFE3
  6074                           fsr1h	equ	0xFE2
  6075                           fsr1l	equ	0xFE1
  6076                           bsr	equ	0xFE0
  6077                           indf2	equ	0xFDF
  6078                           postinc2	equ	0xFDE
  6079                           postdec2	equ	0xFDD
  6080                           preinc2	equ	0xFDC
  6081                           plusw2	equ	0xFDB
  6082                           fsr2h	equ	0xFDA
  6083                           fsr2l	equ	0xFD9
  6084                           status	equ	0xFD8

Data Sizes:
    Strings     9
    Constant    0
    Data        171
    BSS         46
    Persistent  0
    Stack       0

Auto Spaces:
    Space          Size  Autos    Used
    COMRAM           95     39      93
    BANK0           160      0     131
    BANK1           256      0      32
    BANK2           256      0       0
    BANK3           256      0       0
    BANK4           256      0       0
    BANK5           256      0       0

Pointer List with Targets:

    compare@p	PTR unsigned char  size(2) Largest target is 5
		 -> type_passcode(COMRAM[5]), NULL(NULL[0]), 

    f$.$buffer	PTR unsigned char  size(2) Largest target is 0

    f$.$source	PTR const unsigned char  size(2) Largest target is 0

    fputc@fp	PTR struct _IO_FILE size(1) Largest target is 12
		 -> sprintf@f(COMRAM[12]), 

    fputc@fp$.$buffer	PTR unsigned char  size(2) Largest target is 0

    fputc@fp$.$source	PTR const unsigned char  size(2) Largest target is 0

    S1269$buffer	PTR unsigned char  size(2) Largest target is 0

    S1269$source	PTR const unsigned char  size(2) Largest target is 0

    sp__strchr	PTR unsigned char  size(2) Largest target is 5
		 -> type_passcode(COMRAM[5]), NULL(NULL[0]), 

    sp__strstr	PTR unsigned char  size(2) Largest target is 5
		 -> type_passcode(COMRAM[5]), NULL(NULL[0]), 

    sp__user_validation	PTR unsigned char  size(2) Largest target is 5
		 -> type_passcode(COMRAM[5]), NULL(NULL[0]), 

    sprintf@ap	PTR void [1] size(1) Largest target is 2
		 -> ?_sprintf(COMRAM[2]), 

    sprintf@fmt	PTR const unsigned char  size(1) Largest target is 9
		 -> STR_1(CODE[9]), STR_2(CODE[9]), 

    sprintf@s	PTR unsigned char  size(1) Largest target is 4
		 -> old_password(COMRAM[4]), 

    strchr@s	PTR const unsigned char  size(2) Largest target is 5
		 -> type_passcode(COMRAM[5]), NULL(NULL[0]), 

    strlen@a	PTR const unsigned char  size(1) Largest target is 4
		 -> old_password(COMRAM[4]), 

    strlen@s	PTR const unsigned char  size(1) Largest target is 4
		 -> old_password(COMRAM[4]), 

    strncmp@l	PTR const unsigned char  size(2) Largest target is 5
		 -> type_passcode(COMRAM[5]), NULL(NULL[0]), 

    strncmp@r	PTR const unsigned char  size(1) Largest target is 4
		 -> old_password(COMRAM[4]), 

    strstr@h	PTR const unsigned char  size(2) Largest target is 5
		 -> type_passcode(COMRAM[5]), NULL(NULL[0]), 

    strstr@n	PTR const unsigned char  size(1) Largest target is 4
		 -> old_password(COMRAM[4]), 

    user_validation@p	PTR unsigned char  size(2) Largest target is 5
		 -> type_passcode(COMRAM[5]), NULL(NULL[0]), 

    vfpfcnvrt@ap	PTR PTR void  size(1) Largest target is 1
		 -> sprintf@ap(COMRAM[1]), 

    vfpfcnvrt@fmt	PTR PTR unsigned char  size(1) Largest target is 1
		 -> vfprintf@cfmt(COMRAM[1]), 

    vfpfcnvrt@fp	PTR struct _IO_FILE size(1) Largest target is 12
		 -> sprintf@f(COMRAM[12]), 

    vfprintf@ap	PTR PTR void  size(1) Largest target is 1
		 -> sprintf@ap(COMRAM[1]), 

    vfprintf@cfmt	PTR unsigned char  size(1) Largest target is 9
		 -> STR_1(CODE[9]), STR_2(CODE[9]), 

    vfprintf@fmt	PTR const unsigned char  size(1) Largest target is 9
		 -> STR_1(CODE[9]), STR_2(CODE[9]), 

    vfprintf@fp	PTR struct _IO_FILE size(1) Largest target is 12
		 -> sprintf@f(COMRAM[12]), 


Critical Paths under _main in COMRAM

    _runApp->_sprintf
    _user_validation->_strstr
    _unlock_door->_compare
    _sprintf->_vfprintf
    _vfprintf->_vfpfcnvrt
    _vfpfcnvrt->_fputc
    _set_password->_lcd_cmd
    _set_password->_lcd_data
    _col8->_lcd_data
    _col7->_lcd_data
    _col6->_lcd_data
    _col5->_lcd_data
    _lock_door->_compare
    _lcd_reset->_lcd_cmd
    _compare->_strstr
    _strstr->_strncmp
    _lcd_cmd->_delay1
    _col4->_lcd_data
    _col3->_lcd_data
    _col2->_lcd_data
    _col1->_lcd_data
    _lcd_data->_delay1
    _I2C_Start->_I2C_Write

Critical Paths under _main in BANK0

    None.

Critical Paths under _main in BANK1

    None.

Critical Paths under _main in BANK2

    None.

Critical Paths under _main in BANK3

    None.

Critical Paths under _main in BANK4

    None.

Critical Paths under _main in BANK5

    None.

Call Graph Tables:

 ---------------------------------------------------------------------------------
 (Depth) Function   	        Calls       Base Space   Used Autos Params    Refs
 ---------------------------------------------------------------------------------
 (0) _main                                                 0     0      0   22068
                           _initBIOS
                             _runApp
 ---------------------------------------------------------------------------------
 (1) _runApp                                               0     0      0   22068
                           _I2C_Init
                          _I2C_Ready
                               _col1
                               _col2
                               _col3
                              _delay
                             _delay2
                            _lcd_cmd
                           _lcd_data
                          _lcd_reset
                          _lock_door
                   _read_from_eeprom
                       _set_password
                            _sprintf
                        _unlock_door
                    _user_validation
 ---------------------------------------------------------------------------------
 (2) _user_validation                                      7     5      2    3114
                                             13 COMRAM     4     2      2
                               _col1
                               _col2
                               _col3
                               _col4
                            _lcd_cmd
                           _lcd_data
                             _strstr
 ---------------------------------------------------------------------------------
 (2) _unlock_door                                          0     0      0    5890
                               _col1
                               _col2
                               _col3
                               _col4
                            _compare
                              _delay
                            _lcd_cmd
                           _lcd_data
                          _lcd_reset
 ---------------------------------------------------------------------------------
 (2) _sprintf                                             25    15     10    2106
                                             16 COMRAM    23    13     10
                           _vfprintf
 ---------------------------------------------------------------------------------
 (3) _vfprintf                                             4     1      3    1603
                                             12 COMRAM     4     1      3
                          _vfpfcnvrt
 ---------------------------------------------------------------------------------
 (4) _vfpfcnvrt                                            8     5      3    1253
                                              8 COMRAM     4     1      3
                              _fputc
 ---------------------------------------------------------------------------------
 (5) _fputc                                                8     5      3     782
                                              0 COMRAM     8     5      3
                              _putch
 ---------------------------------------------------------------------------------
 (6) _putch                                                1     1      0       0
 ---------------------------------------------------------------------------------
 (2) _set_password                                         0     0      0    2100
                               _col5
                               _col6
                               _col7
                               _col8
                            _lcd_cmd
                           _lcd_data
                    _write_to_eeprom
 ---------------------------------------------------------------------------------
 (3) _write_to_eeprom                                      2     1      1     348
                                              0 COMRAM     2     1      1
 ---------------------------------------------------------------------------------
 (3) _col8                                                 0     0      0     292
                           _lcd_data
 ---------------------------------------------------------------------------------
 (3) _col7                                                 0     0      0     292
                           _lcd_data
 ---------------------------------------------------------------------------------
 (3) _col6                                                 0     0      0     292
                           _lcd_data
 ---------------------------------------------------------------------------------
 (3) _col5                                                 0     0      0     292
                           _lcd_data
 ---------------------------------------------------------------------------------
 (2) _read_from_eeprom                                     1     1      0      22
                                              0 COMRAM     1     1      0
 ---------------------------------------------------------------------------------
 (2) _lock_door                                            0     0      0    5890
                               _col1
                               _col2
                               _col3
                               _col4
                            _compare
                              _delay
                            _lcd_cmd
                           _lcd_data
                          _lcd_reset
 ---------------------------------------------------------------------------------
 (3) _lcd_reset                                            0     0      0     292
                            _lcd_cmd
 ---------------------------------------------------------------------------------
 (3) _compare                                              6     6      0    2918
                                             13 COMRAM     3     3      0
                              _delay
                            _lcd_cmd
                           _lcd_data
                      _motor_forward
                          _motor_off
                      _motor_reverse
                             _strstr
 ---------------------------------------------------------------------------------
 (3) _strstr                                               6     3      3    1339
                                              7 COMRAM     6     3      3
                             _strchr
                             _strlen
                            _strncmp
 ---------------------------------------------------------------------------------
 (4) _strncmp                                              7     2      5     407
                                              0 COMRAM     7     2      5
 ---------------------------------------------------------------------------------
 (4) _strlen                                               3     1      2     166
                                              0 COMRAM     3     1      2
 ---------------------------------------------------------------------------------
 (4) _strchr                                               5     1      4     240
                                              0 COMRAM     5     1      4
 ---------------------------------------------------------------------------------
 (4) _motor_reverse                                        0     0      0       0
 ---------------------------------------------------------------------------------
 (4) _motor_off                                            0     0      0       0
 ---------------------------------------------------------------------------------
 (4) _motor_forward                                        0     0      0       0
 ---------------------------------------------------------------------------------
 (3) _lcd_cmd                                              3     3      0     292
                                              4 COMRAM     3     3      0
                          _I2C_Start
                           _I2C_Stop
                          _I2C_Write
                             _delay1
 ---------------------------------------------------------------------------------
 (3) _delay                                                7     5      2     928
                                              0 COMRAM     7     5      2
 ---------------------------------------------------------------------------------
 (3) _col4                                                 0     0      0     292
                           _lcd_data
 ---------------------------------------------------------------------------------
 (3) _col3                                                 0     0      0     292
                           _lcd_data
 ---------------------------------------------------------------------------------
 (3) _col2                                                 0     0      0     292
                           _lcd_data
 ---------------------------------------------------------------------------------
 (3) _col1                                                 0     0      0     292
                           _lcd_data
 ---------------------------------------------------------------------------------
 (3) _lcd_data                                             3     3      0     292
                                              4 COMRAM     3     3      0
                          _I2C_Start
                           _I2C_Stop
                          _I2C_Write
                             _delay1
 ---------------------------------------------------------------------------------
 (4) _delay1                                               4     4      0      92
                                              0 COMRAM     4     4      0
 ---------------------------------------------------------------------------------
 (4) _I2C_Stop                                             0     0      0       0
                          _I2C_Ready
 ---------------------------------------------------------------------------------
 (4) _I2C_Start                                            1     1      0      44
                                              1 COMRAM     1     1      0
                          _I2C_Write
 ---------------------------------------------------------------------------------
 (4) _I2C_Write                                            1     1      0      22
                                              0 COMRAM     1     1      0
                          _I2C_Ready
 ---------------------------------------------------------------------------------
 (5) _I2C_Ready                                            0     0      0       0
 ---------------------------------------------------------------------------------
 (2) _delay2                                               6     4      2     266
                                              0 COMRAM     6     4      2
 ---------------------------------------------------------------------------------
 (2) _I2C_Init                                             0     0      0       0
 ---------------------------------------------------------------------------------
 (1) _initBIOS                                             0     0      0       0
                         _initPinmap
 ---------------------------------------------------------------------------------
 (2) _initPinmap                                           0     0      0       0
 ---------------------------------------------------------------------------------
 Estimated maximum stack depth 6
 ---------------------------------------------------------------------------------

 Call Graph Graphs:

 _main (ROOT)
   _initBIOS
     _initPinmap
   _runApp
     _I2C_Init
     _I2C_Ready
     _col1
       _lcd_data
         _I2C_Start
           _I2C_Write
             _I2C_Ready
         _I2C_Stop
           _I2C_Ready
         _I2C_Write
         _delay1
     _col2
       _lcd_data
     _col3
       _lcd_data
     _delay
     _delay2
     _lcd_cmd
       _I2C_Start
       _I2C_Stop
       _I2C_Write
       _delay1
     _lcd_data
     _lcd_reset
       _lcd_cmd
     _lock_door
       _col1
       _col2
       _col3
       _col4
         _lcd_data
       _compare
         _delay
         _lcd_cmd
         _lcd_data
         _motor_forward
         _motor_off
         _motor_reverse
         _strstr
           _strchr
           _strlen
           _strncmp
       _delay
       _lcd_cmd
       _lcd_data
       _lcd_reset
     _read_from_eeprom
     _set_password
       _col5
         _lcd_data
       _col6
         _lcd_data
       _col7
         _lcd_data
       _col8
         _lcd_data
       _lcd_cmd
       _lcd_data
       _write_to_eeprom
     _sprintf
       _vfprintf
         _vfpfcnvrt
           _fputc
             _putch
     _unlock_door
       _col1
       _col2
       _col3
       _col4
       _compare
       _delay
       _lcd_cmd
       _lcd_data
       _lcd_reset
     _user_validation
       _col1
       _col2
       _col3
       _col4
       _lcd_cmd
       _lcd_data
       _strstr

 Address spaces:
Name               Size   Autos  Total    Cost      Usage
BIGRAM             5FF      0       0      28        0.0%
BITBIGSFRl         281      0       0      26        0.0%
EEDATA             100      0       0       0        0.0%
BITBANK5           100      0       0      14        0.0%
BANK5              100      0       0      15        0.0%
BITBANK4           100      0       0      12        0.0%
BANK4              100      0       0      13        0.0%
BITBANK3           100      0       0      10        0.0%
BANK3              100      0       0      11        0.0%
BITBANK2           100      0       0       8        0.0%
BANK2              100      0       0       9        0.0%
BITBANK1           100      0       0       6        0.0%
BANK1              100      0      20       7       12.5%
BITBANK0            A0      0       0       4        0.0%
BANK0               A0      0      83       5       81.9%
BITCOMRAM           5F      0       0       0        0.0%
COMRAM              5F     27      5D       1       97.9%
BITBIGSFRhhhhhl     27      0       0      17        0.0%
BITBIGSFRhhhhll     17      0       0      19        0.0%
BITBIGSFRhhllll      F      0       0      24        0.0%
BITBIGSFRhhhhhh      E      0       0      16        0.0%
BITBIGSFRhhllh       8      0       0      22        0.0%
BITBIGSFRhhlhh       4      0       0      20        0.0%
BITBIGSFRhhhhlh      3      0       0      18        0.0%
BITBIGSFRhhlhl       2      0       0      21        0.0%
BITBIGSFRhhlllh      1      0       0      23        0.0%
BITBIGSFRhl          1      0       0      25        0.0%
BIGSFR               0      0       0     200        0.0%
BITSFR_3             0      0       0     200        0.0%
SFR_3                0      0       0     200        0.0%
BITSFR_2             0      0       0     200        0.0%
SFR_2                0      0       0     200        0.0%
BITSFR_1             0      0       0     200        0.0%
SFR_1                0      0       0     200        0.0%
BITSFR               0      0       0     200        0.0%
SFR                  0      0       0     200        0.0%
STACK                0      0       0       2        0.0%
NULL                 0      0       0       0        0.0%
ABS                  0      0     100      27        0.0%
DATA                 0      0     100       3        0.0%
CODE                 0      0       0       0        0.0%


Microchip Technology PIC18 Macro Assembler V2.46 build 20240104201356 
Symbol Table                                                                                   Sat Jun 22 11:48:39 2024

     __end_of_user_validation 0D56                   lcd_cmd@data 002D               ??_motor_forward 0029  
                           _c 0058                             _i 0054                  lcd_data@data 002D  
               lcd_cmd@data_l 002E                 lcd_cmd@data_u 002F                   _SSPSTATbits 0FC7  
                          l97 0644               ??_motor_reverse 0029                            _s2 00BC  
                          _s3 0001                            _ch 0059                           l201 0BC8  
                         l113 076A                           l107 072A                           l109 0732  
                         l302 1378                           l206 0C40                           l150 0CE6  
                         l400 1042                           l144 0CA6                           l305 139A  
                         l321 12A2                           l313 123E                           l161 0DBA  
                         l146 0CAE                           l163 0DC2                           l155 0D54  
                         l324 12C4                           l340 15F2                           l332 158E  
                         l180 0ECE                           l412 14EE                           l404 148A  
                         l172 0E60                           l317 1270                           l309 1208  
                         l229 0B22                           l430 1DE0                           l511 1DB8  
                         l271 13B4                           l343 1614                           l351 1168  
                         l167 0DFA                           l520 1D20                           l336 15C0  
                         l328 155C                           l424 1DE6                           l184 0F06  
                         l416 1520                           l408 14BC                           l601 1DD2  
                         l514 1CF4                           l530 1CD8                           l290 12DE  
                         l178 0EC6                           l362 11EE                           l370 1092  
                         l283 144E                           l275 13EA                           l427 1DDA  
                         l443 1D8A                           l355 119A                           l347 1132  
                         l419 1542                           l195 0B88                           l524 1D6A  
                         l532 1CF2                           l517 1D02                           l189 0F6C  
                         l381 1118                           l197 0B90                           l286 1470  
                         l294 1314                           l446 1BA6                           l374 10C4  
                         l366 105C                           l551 1DEC                           l519 1D1E  
                         l535 1D92                           l279 141C                           l359 11CC  
                         l528 1CCA                           l456 1ACE                           l464 1A7C  
                         l480 1C60                           l537 1DA0                           l449 1BEA  
                         l481 1C62                           l393 0FEE                           l385 0F86  
                         l562 1DC8                           l546 1A24                           l298 1346  
                         l378 10F6                           l490 1B62                           l539 1DA4  
                         l475 1C2C                           l484 1B1E                           l397 1020  
                         l389 0FBC                           l478 1C52                           l487 1B52  
                         l489 1B60                lcd_data@data_l 002E                lcd_data@data_u 002F  
                         wreg 0FE8                   _unlock_door 0D56                          l3000 1084  
                        l3010 10B4                          l1314 1C28                          l2300 1DC6  
                        l3020 10E4                          l3012 10B6                          l3004 10A0  
                        l3100 14D0                          l1308 16CE                          l1350 1784  
                        l3030 110A                          l3022 10E6                          l3006 10A6  
                        l3110 14FC                          l3102 14DC                          l1326 18E4  
                        l3032 1116                          l3024 10E8                          l3016 10D2  
                        l3008 10B2                          l3040 0F9A                          l3112 1502  
                        l3104 14DE                          l3200 0CCA                          l1337 1DEE  
                        l3018 10D8                          l3042 0FA6                          l3034 0F6E  
                        l3122 152E                          l3114 150E                          l3106 14E0  
                        l3130 1B2C                          l1282 1C96                          l3210 0D0A  
                        l3202 0CD8                          l1356 1AD0                          l3028 1104  
                        l3060 0FE0                          l3052 0FCA                          l3044 0FAA  
                        l3124 1534                          l3116 1510                          l3140 1B46  
                        l3132 1B3A                          l3300 0D74                          l3212 0D18  
                        l3204 0CF4                          l1365 1CC4                          l2510 1AB2  
                        l1358 1B1A                          l3070 1010                          l3054 0FD0  
                        l3046 0FAC                          l3038 0F94                          l3126 1540  
                        l3118 1512                          l3142 1B48                          l3134 1B3E  
                        l3230 0B30                          l3150 1BF4                          l3310 0DD0  
                        l3302 0D8C                          l3214 0D1C                          l3206 0CF8  
                        l3222 0D36                          l3160 1DB6                          l2512 1D8C  
                        l2504 1A8E                          l2600 1BD2                          l3080 1040  
                        l3072 1012                          l3064 0FFC                          l3056 0FDC  
                        l3048 0FAE                          l3144 1B4C                          l3136 1B42  
                        l3128 1B1E                          l3240 0B68                          l3232 0B3E  
                        l2520 184C                          l3152 1C04                          l3320 0E1A  
                        l3312 0DDE                          l3304 0D92                          l3224 0D4C  
                        l3216 0D2A                          l3208 0D06                          l3400 0650  
                        l1369 183A                          l3162 19CC                          l2514 1D90  
                        l2506 1A92                          l2602 1BDA                          l2610 1B74  
                        l3066 1002                          l3058 0FDE                          l3090 14AA  
                        l3082 1472                          l3146 1B50                          l3138 1B44  
                        l3250 0BD6                          l3234 0B42                          l2522 185C  
                        l3154 1C20                          l3330 0E42                          l3322 0E1E  
                        l3314 0DEC                          l3306 0D9A                          l3218 0D2E  
                        l3410 0698                          l3402 065E                          l3164 19D4  
                        l2508 1AAE                          l2604 1BDE                          l2700 13F8  
                        l2620 1B96                          l2612 1B7A                          l2532 1C98  
                        l3340 0E62                          l3076 102E                          l3068 100E  
                        l3092 14AC                          l3260 0BFE                          l3252 0BDA  
                        l3244 0B9E                          l3236 0B5A                          l3228 0B24  
                        l2524 1866                          l3148 1BEC                          l3324 0E2C  
                        l3316 0E08                          l3500 08C8                          l3420 06DA  
                        l3412 06A6                          l3404 0662                          l3158 1DA6  
                        l3174 19FC                          l2470 1D50                          l2606 1BE6  
                        l2702 13FE                          l2622 1B9A                          l2614 1B82  
                        l2534 1CA0                          l2550 17B8                          l2542 1786  
                        l2630 16F4                          l3350 0E9E                          l3342 0E6E  
                        l3270 1C2C                          l3078 1034                          l3094 14AE  
                        l3086 1498                          l3262 0C0C                          l3254 0BE8  
                        l3246 0BAC                          l3238 0B60                          l2526 1882  
                        l2518 183C                          l3326 0E30                          l3318 0E0C  
                        l3334 0E4A                          l3190 0C78                          l3182 0C42  
                        l3510 08F8                          l3422 06E8                          l3414 06AA  
                        l3406 067A                          l2456 1DE8                          l3176 1A00  
                        l3168 19F4                          l2464 1CF4                          l2480 1D68  
                        l2472 1D54                          l2720 1440                          l2712 142A  
                        l2704 140A                          l2800 125E                          l2624 1BA2  
                        l2616 1B86                          l2608 1B66                          l2536 1CA2  
                        l2552 17D0                          l2544 17A0                          l2640 1764  
                        l2632 171E                          l3360 0EF8                          l3352 0EA6  
                        l3344 0E7C                          l3280 1C50                          l3272 1C3A  
                        l3088 149E                          l3264 0C10                          l3256 0BEC  
                        l3248 0BBA                          l2528 18B4                          l3336 0E50  
                        l3328 0E3E                          l3192 0C7E                          l3184 0C4E  
                        l3520 0938                          l3512 0900                          l3504 08E4  
                        l3440 077C                          l3432 0740                          l3424 06EC  
                        l3416 06C2                          l3408 068C                          l2298 1DBA  
                        l3178 1A1C                          l2466 1D10                          l2474 1D62  
                        l2714 1430                          l2706 140C                          l2730 12C6  
                        l2810 1284                          l2802 1260                          l2618 1B8E  
                        l2650 1DD6                          l2570 1B12                          l2562 1AD0  
                        l2538 1CB8                          l2554 17E6                          l2642 177C  
                        l2626 16D0                          l3370 0F38                          l3362 0F14  
                        l3346 0E80                          l3274 1C48                          l3098 14CA  
                        l3258 0BFA                          l3290 1C8C                          l3282 1C64  
                        l3338 0E5C                          l3194 0C86                          l3186 0C5C  
                        l3530 095C                          l3522 093C                          l3514 0908  
                        l3506 08E8                          l3442 078A                          l3434 074E  
                        l3426 0704                          l3418 06CE                          l2468 1D4C  
                        l2484 1CC8                          l2492 1A7E                          l2724 145C  
                        l2716 143C                          l2708 140E                          l2740 1302  
                        l2820 12B0                          l2812 1290                          l2804 1262  
                        l2580 1A2E                          l2564 1AEA                          l2556 17F8  
                        l2548 17AC                          l2636 172A                          l2628 16E0  
                        l2900 0A52                          l3372 0F3C                          l3364 0F18  
                        l3356 0EDC                          l3380 0F56                          l3348 0E98  
                        l3276 1C4C                          l3268 0C18                          l2660 1650  
                        l2652 1616                          l3284 1C6C                          l3188 0C60  
                        l3532 0980                          l3524 0944                          l3516 092C  
                        l3508 08F0                          l3460 07D2                          l3452 07A8  
                        l3444 078E                          l3436 075C                          l3428 070C  
                        l3540 1DCA                          l2590 1BAA                          l2726 1462  
                        l2718 143E                          l2750 1328                          l2742 1304  
                        l2734 12EC                          l2822 12B6                          l2814 1292  
                        l2830 156A                          l2582 1A3A                          l2574 1A26  
                        l2646 1DE2                          l2558 1818                          l2638 1752  
                        l2910 0A96                          l2902 0A56                          l3382 0F5C  
                        l3374 0F4A                          l3366 0F26                          l3358 0EEA  
                        l3278 1C4E                          l2662 1672                          l2670 16A0  
                        l2654 1638                          l3286 1C74                          l3294 0D56  
                        l3198 0CBC                          l3534 0984                          l3526 094C  
                        l3518 0930                          l3470 0810                          l3462 07E0  
                        l3454 07AC                          l3446 079C                          l3438 0778  
                        l3390 061C                          l3542 1DCE                          l2488 1CEC  
                        l2592 1BB8                          l2728 146E                          l2760 1354  
                        l2752 1334                          l2744 1306                          l2736 12F2  
                        l2824 12C2                          l2816 1294                          l2808 127E  
                        l2832 1570                          l2584 1A3E                          l2648 1DDC  
                        l2568 1AF6                          l2912 0AA4                          l2904 0A72  
                        l2680 1D6C                          l3384 0F68                          l3376 0F4E  
                        l3368 0F2A                          l2664 167A                          l2656 1640  
                        l3288 1C7C                          l3296 0D62                          l3528 0954  
                        l3480 084A                          l3472 0814                          l3464 07E4  
                        l3456 07C2                          l3448 07A0                          l3392 0620  
                        l2498 1A86                          l2594 1BBE                          l2690 13D4  
                        l2682 139C                          l2762 135A                          l2754 1336  
                        l2738 12FE                          l2850 15B2                          l2842 159C  
                        l2834 157C                          l2826 1544                          l2586 1A5C  
                        l2930 0AEC                          l2914 0AA8                          l2906 0A84  
                        l2922 0AC8                          l2666 168E                          l2658 164C  
                        l2674 16AC                          l3298 0D70                          l3490 0892  
                        l3482 085C                          l3474 0820                          l3466 07FC  
                        l3458 07C6                          l3538 098C                          l3394 062C  
                        l3386 060C                          l2596 1BC6                          l2692 13D8  
                        l2772 1386                          l2764 1366                          l2756 1338  
                        l2748 1322                          l2860 15E2                          l2844 15A2  
                        l2836 157E                          l2588 1A60                          l2932 0AF0  
                        l2924 0ACE                          l2916 0AAC                          l2908 0A8A  
                        l3484 0868                          l3476 082E                          l3468 080C  
                        l3492 08A6                          l3396 0630                          l3388 0610  
                        l2598 1BCA                          l2694 13DA                          l2686 13C2  
                        l2774 138C                          l2766 1368                          l2790 122E  
                        l2782 1216                          l2870 1612                          l2862 15E4  
                        l2854 15CE                          l2846 15AE                          l2838 1580  
                        l2926 0ADA                          l2950 1158                          l2942 1140  
                        l3494 08AA                          l3486 0876                          l3478 0832  
                        l3398 063C                          l2696 13DC                          l2688 13C8  
                        l2776 1398                          l2768 136A                          l2792 1230  
                        l2784 121C                          l2856 15D4                          l2848 15B0  
                        l2928 0AE8                          l2880 09EC                          l2936 0B0C  
                        l2872 09AE                          l2960 1188                          l2952 115A  
                        l2944 1146                          l3496 08B6                          l3488 087A  
                        l2786 1228                          l2778 11F0                          l2866 1600  
                        l2858 15E0                          l2890 0A26                          l2882 09FA  
                        l2874 09C8                          l2970 11AE                          l2962 118A  
                        l2946 1152                          l2938 111A                          l3498 08C4  
                        l2796 124C                          l2788 122C                          l2868 1606  
                        l2884 09FE                          l2876 09DA                          l2892 0A2E  
                        l2980 11DA                          l2972 11BA                          l2964 118C  
                        l2956 1176                          l2948 1156                          l2798 1252  
                        l2894 0A34                          l2886 0A02                          l2878 09E0  
                        l2982 11E0                          l2974 11BC                          l2958 117C  
                        l2990 106A                          l2896 0A40                          l2888 0A1A  
                        l2984 11EC                          l2976 11BE                          l2968 11A8  
                        l2992 1070                          l2898 0A4E                          l2994 107C  
                        l2986 1044                          l2996 1080                          l2998 1082  
                        STR_1 0601                          STR_2 0601                          u2000 144E  
                        u2001 144A                          u2010 145C                          u2011 1458  
                        u2020 12DE                          u2100 1208                          u2021 12DA  
                        u2101 1204                          u2030 12EC                          u2110 1216  
                        u2031 12E8                          u2111 1212                          u2040 1314  
                        u2120 123E                          u2200 158E                          u3000 0E1A  
                        u2041 1310                          u2121 123A                          u2201 158A  
                        u3001 0E16                          u2050 1322                          u2130 124C  
                        u2210 159C                          u3010 0E2C                          u2051 131E  
                        u2131 1248                          u2211 1598                          u3011 0E28  
                        u2060 1346                          u2140 1270                          u2220 15C0  
                        u2300 0AC4                          u3100 0F26                          u3020 0E3E  
                        u2061 1342                          u2141 126C                          u2221 15BC  
                        u2301 0AC0                          u3101 0F22                          u3021 0E3A  
                        u2070 1354                          u2150 127E                          u2230 15CE  
                        u2310 0B08                          u3110 0F38                          u3030 0E98  
                        u2071 1350                          u2151 127A                          u2231 15CA  
                        u2311 0B04                          u3111 0F34                          u3031 0E94  
                        u2080 1378                          u2160 12A2                          u2240 15F2  
                        u3120 0F4A                          u3040 0EC2                          u2320 1132  
                        u2400 105C                          u3200 076A                          u2081 1374  
                        u2161 129E                          u2241 15EE                          u3121 0F46  
                        u3041 0EBE                          u2321 112E                          u2401 1058  
                        u3201 0766                          u2090 1386                          u2170 12B0  
                        u2250 1600                          u3050 0EDC                          u2330 1140  
                        u2410 106A                          u3210 0778                          u3130 067A  
                        u2091 1382                          u2171 12AC                          u2251 15FC  
                        u3051 0ED8                          u2331 113C                          u2411 1066  
                        u3211 0774                          u3131 0676                          u1700 1CE8  
                        u2180 155C                          u2260 09DA                          u3060 0EEA  
                        u2340 1168                          u2420 1092                          u2500 0FBC  
                        u3220 078A                          u3140 06C2                          u1701 1CE4  
                        u2181 1558                          u2261 09D6                          u3061 0EE6  
                        u2341 1164                          u2421 108E                          u2501 0FB8  
                        u3221 0786                          u3141 06BE                          u1710 1AAE  
                        u2190 156A                          u2270 0A1A                          u3070 0EF8  
                        u2350 1176                          u2430 10A0                          u2510 0FCA  
                        u3230 079C                          u3150 0704                          u1711 1AAA  
                        u2191 1566                          u2271 0A16                          u3071 0EF4  
                        u2351 1172                          u2431 109C                          u2511 0FC6  
                        u3231 0798                          u3151 0700                          u1720 1ACE  
                        u1800 17D0                          u2280 0A6E                          u3080 0F06  
                        u2360 119A                          u2440 10C4                          u2520 0FEE  
                        u2600 14EE                          u3240 07C2                          u3160 0726  
                        u1721 1ACA                          u1801 17CC                          u2281 0A6A  
                        u3081 0F02                          u2361 1196                          u2441 10C0  
                        u2521 0FEA                          u2601 14EA                          u3241 07BE  
                        u3161 0722                          u1650 1D02                          u1730 1DA0  
                        u1810 17E6                          u2290 0A84                          u3090 0F14  
                        u2370 11A8                          u2450 10D2                          u2530 0FFC  
                        u2610 14FC                          u3250 07FC                          u3170 0740  
                        u1651 1CFE                          u1731 1D9C                          u1811 17E2  
                        u2291 0A80                          u3091 0F10                          u2371 11A4  
                        u2451 10CE                          u2531 0FF8                          u2611 14F8  
                        u3251 07F8                          u3171 073C                          u1660 1D10  
                        u1820 17F8                          u1900 1764                          u2380 11CC  
                        u2460 10F6                          u2540 1020                          u2620 1520  
                        u1740 184C                          u2700 0C78                          u3260 084A  
                        u3180 074E                          u1661 1D0C                          u1821 17F4  
                        u1901 1760                          u2381 11C8                          u2461 10F2  
                        u2541 101C                          u2621 151C                          u1741 1848  
                        u2701 0C74                          u3261 0846                          u3181 074A  
                        u1670 1D1E                          u1830 1818                          u1910 177C  
                        u2390 11DA                          u2470 1104                          u2550 102E  
                        u2630 152E                          u1750 185C                          u2710 0CA2  
                        u3270 0892                          u3190 075C                          u1671 1D1A  
                        u1831 1814                          u1911 1778                          u2391 11D6  
                        u2471 1100                          u2551 102A                          u2631 152A  
                        u1751 1858                          u2711 0C9E                          u3271 088E  
                        u3191 0758                          u1680 1D62                          u1840 1AEA  
                        u2480 0F86                          u2560 148A                          u2640 1B2C  
                        u2800 0B5A                          u1760 1882                          u1920 1638  
                        u2720 0CBC                          u3280 08E0                          u1681 1D5E  
                        u1841 1AE6                          u2481 0F82                          u2561 1486  
                        u2641 1B28                          u2801 0B56                          u1761 187E  
                        u1921 1634                          u2721 0CB8                          u3281 08DC  
                        u1690 1CD8                          u1850 1B12                          u2490 0F94  
                        u2570 1498                          u2650 1B3A                          u2810 0B84  
                        u1770 18B4                          u1930 1672                          u2730 0CCA  
                        u1691 1CD4                          u1851 1B0E                          u2491 0F90  
                        u2571 1494                          u2651 1B36                          u2811 0B80  
                        u1771 18B0                          u1931 166E                          u2731 0CC6  
                        u1940 13B4                          u1860 1A5C                          u1780 1CB8  
                        u2900 1C3A                          u2580 14BC                          u2660 1B60  
                        u2820 0B9E                          u2740 0CD8                          u1941 13B0  
                        u1861 1A58                          u1781 1CB4                          u2901 1C36  
                        u2581 14B8                          u2661 1B5C                          u2821 0B9A  
                        u2741 0CD4                          u1950 13C2                          u1870 1A7C  
                        u1790 17A0                          u2910 1C48                          u2590 14CA  
                        u2830 0BAC                          u2670 1C20                          u2750 0CE6  
                        u1951 13BE                          u1871 1A78                          u1791 179C  
                        u2911 1C44                          u2591 14C6                          u2831 0BA8  
                        u2671 1C1C                          u2751 0CE2                          u2680 19F0  
                        u1960 13EA                          u1880 16E0                          u2920 1C60  
                        u2840 0BBA                          u2760 0CF4                          u2681 19EC  
                        u1961 13E6                          u1881 16DC                          u2921 1C5C  
                        u2841 0BB6                          u2761 0CF0                          u2690 1A1C  
                        u1970 13F8                          u1890 171E                          u2850 0BC8  
                        u2930 0D8C                          u2770 0D06                          u2691 1A18  
                        u1971 13F4                          u1891 171A                          u2851 0BC4  
                        u2931 0D88                          u2771 0D02                          u1980 141C  
                        u2860 0BD6                          u2940 0DB6                          u2780 0D18  
                        u1981 1418                          u2861 0BD2                          u2941 0DB2  
                        u2781 0D14                          u1990 142A                          u2870 0BE8  
                        u2950 0DD0                          u2790 0D2A                          u1991 1426  
                        u2871 0BE4                          u2951 0DCC                          u2791 0D26  
                        u2880 0BFA                          u2960 0DDE                          u2881 0BF6  
                        u2961 0DDA                          u2890 0C0C                          u2970 0DEC  
                        u2891 0C08                          u2971 0DE8                          u2980 0DFA  
                        u2981 0DF6                          u2990 0E08                          u2991 0E04  
                        _col1 139C                          _col2 12C6                          _col3 11F0  
                        _col4 1544                          _col5 111A                          _col6 1044  
                        _col7 0F6E                          _col8 1472                          _dbuf 0100  
                        _main 1DCA                          _prec 0052              __end_of_I2C_Init 1DBA  
                        fsr1h 0FE2                          fsr2h 0FDA                          indf2 0FDF  
                        fsr1l 0FE1                          fsr2l 0FD9              __end_of_I2C_Stop 1DA6  
                        start 0000                  ___param_bank 0000                         ?_col1 0029  
                       ?_col2 0029                         ?_col3 0029                         ?_col4 0029  
                       ?_col5 0029                         ?_col6 0029                         ?_col7 0029  
                       ?_col8 0029                         ?_main 0029                         _EEADR 0FA9  
                vfpfcnvrt@fmt 0032                         _TRISB 0F93                         _TRISD 0F95  
             __end_of_lcd_cmd 1BA8               __end_of_compare 0B24                         _delay 1A26  
                       _flags 0056                         _fputc 183C             __end_of_I2C_Ready 1D22  
                       _width 0050                         _putch 1DEE             __end_of_I2C_Start 1CF4  
           __end_of_I2C_Write 1D6C                         tablat 0FF5                         status 0FD8  
             __end_of_sprintf 1C98               __end_of_strncmp 183C               __initialization 196A  
                __end_of_col1 1472                  __end_of_col2 139C                  __end_of_col3 12C6  
                __end_of_col4 1616                  __end_of_col5 11F0                  __end_of_col6 111A  
                __end_of_col7 1044                  __end_of_col8 1544              ?_user_validation 0036  
                __end_of_main 1DD6                        ??_col1 0030                        ??_col2 0030  
                      ??_col3 0030                        ??_col4 0030                        ??_col5 0030  
                      ??_col6 0030                        ??_col7 0030                        ??_col8 0030  
                      ??_main 0050                 __activetblptr 0002                        ?_delay 0029  
                      _ADCON1 0FC1                        ?_fputc 0029                        _EEDATA 0FA8  
                      _EECON2 0FA7                        ?_putch 0029                        _SSPADD 0FC8  
                      _SSPBUF 0FC9              __end_of_lcd_data 1BEC                  vfprintf@cfmt 0038  
            __end_of_initBIOS 1DEE                        _delay1 1A7E                        _delay2 19CC  
                      delay@a 0029                        delay@i 002E                        delay@j 002C  
                      clear_0 19B0                        clear_1 19BC                        isa$std 0001  
                      _runApp 060C                     ??_lcd_cmd 002D                        _strchr 1AD0  
                      _strlen 1C98                     ??_compare 0036                        _strstr 16D0  
                      fputc@c 0029                  __pdataCOMRAM 0001                     ?_I2C_Init 0029  
                   ?_I2C_Stop 0029                  __mediumconst 0000                        tblptrh 0FF7  
                      tblptrl 0FF6                        tblptru 0FF8                _password_match 0080  
                      putch@c 0029              __end_of_vfprintf 1C2A                     ??_sprintf 0043  
                   ??_strncmp 002E                    __accesstop 0060       __end_of__initialization 19C2  
           ?_read_from_eeprom 0029                 ___rparam_used 0001            ??_read_from_eeprom 0029  
              __pcstackCOMRAM 0029                  __pidataBANK0 18E6                 __end_of_delay 1A7E  
               __end_of_fputc 18E6                 __end_of_putch 1DF0                    ??_I2C_Init 0029  
                  ??_I2C_Stop 0029                  ?_unlock_door 0029                       ??_delay 002B  
                     ??_fputc 002C                       ??_putch 0029                    __pbssBANK1 0100  
              _enter_pass_msg 00AD                       ?_delay1 0029                       ?_delay2 0029  
       __end_of_motor_forward 1DE8                       ?_runApp 0029         __end_of_motor_reverse 1DDC  
                     ?_strchr 0029                       ?_strlen 0029                       ?_strstr 0030  
           ??_write_to_eeprom 002A                       _SSPCON1 0FC6                       _SSPCON2 0FC5  
                   ?_lcd_data 0029                       _SSPSTAT 0FC7                     ?_initBIOS 0029  
                   _I2C_Ready 1CF4                     _I2C_Start 1CC6                     _I2C_Write 1D4A  
                     __Hparam 0000                       __Lparam 0000             __end_of_lcd_reset 1D8C  
                  _initPinmap 1DBA                     ?_vfprintf 0035                  __psmallconst 0600  
               ?_set_password 0029                       _address 0057                       __pcinit 196A  
                     __ramtop 0600                       __ptext0 1DCA                       __ptext1 060C  
                     __ptext2 0C42                       __ptext3 0D56                       __ptext4 1C64  
                     __ptext5 1BEC                       __ptext6 1616                       __ptext7 183C  
                     __ptext8 1DEE                       __ptext9 0B24                       _lcd_cmd 1B64  
                     _compare 09AC                       delay2@a 0029                       delay1@i 0029  
                     delay1@j 002B                       delay2@i 002B                       delay2@j 002D  
               _type_passcode 0024             __end_of_lock_door 0F6E                    ??_lcd_data 002D  
                     _sprintf 1C64                       _strncmp 1786          end_of_initialization 19C2  
                  ??_initBIOS 0029                       fputc@fp 002B                 __Lmediumconst 0000  
                  ?_I2C_Ready 0029                    ?_I2C_Start 0029                    ?_I2C_Write 0029  
           __end_of_motor_off 1DE2             __end_of_vfpfcnvrt 16D0             _new_pass_set_msg1 00CB  
           _new_pass_set_msg2 0060        write_to_eeprom@address 002A                       postdec1 0FE5  
                     postdec2 0FDD                       postinc0 0FEE                       postinc1 0FE6  
                     postinc2 0FDE                ??_set_password 0030                    ??_vfprintf 0038  
                     strchr@c 002B                       strchr@s 0029                       strlen@a 002B  
                     strlen@s 0029             _enter_newPass_msg 008F                       strstr@h 0030  
                     strstr@n 0032                     _PORTBbits 0F81                     _PORTDbits 0F83  
                  _unlock_msg 00D8                   ?_initPinmap 0029                   vfpfcnvrt@ap 0033  
                 vfpfcnvrt@fp 0031                __end_of_delay1 1AD0                __end_of_delay2 1A26  
               __pidataCOMRAM 1D22                __end_of_runApp 09AC                __end_of_strchr 1B1C  
              __end_of_strlen 1CC6                __end_of_strstr 1786           start_initialization 196A  
                 ??_I2C_Ready 0029                   ??_I2C_Start 002A                   ??_I2C_Write 0029  
                 vfprintf@fmt 0036                      ??_delay1 0029                      ??_delay2 002B  
                 __pdataBANK0 0060               _write_to_eeprom 1B1C                      ??_runApp 0050  
                    ??_strchr 002D                      ??_strlen 002B                      ??_strstr 0033  
                 __pbssCOMRAM 0050             ??_user_validation 0038          __end_of_set_password 0C42  
                   _lcd_reset 1D6C                      ?_lcd_cmd 0029                      ?_compare 0029  
                 __smallconst 0600                      _I2C_Init 1DA6                      _I2C_Stop 1D8C  
            user_validation@p 0038                      ?_sprintf 0039                      ?_strncmp 0029  
                   _lock_door 0E62                  _old_password 005A       __end_of_write_to_eeprom 1B64  
                    _PIR1bits 0F9E                      _PIR2bits 0FA1                     _motor_off 1DDC  
                   _vfpfcnvrt 1616                    ?_lcd_reset 0029              _read_from_eeprom 1C2A  
                _pass_set_msg 000F                    vfpfcnvrt@c 0034                   _INTCON2bits 0FF1  
                   copy_data0 197E                     copy_data1 199E                    ?_lock_door 0029  
I2C_Start@slave_write_address 002A                    _EECON1bits 0FA6            _password_not_match 0071  
                    __Hrparam 0000                    vfprintf@ap 0037                      __Lrparam 0000  
                  vfprintf@fp 0035                  ??_initPinmap 0029                    ?_motor_off 0029  
     _renter_old_password_msg 009E                 I2C_Write@data 0029                    ?_vfpfcnvrt 0031  
               _motor_forward 1DE2                 _motor_reverse 1DD6                    sprintf@fmt 003A  
               ??_unlock_door 0039                      __ptext10 1B1C                      __ptext11 1472  
                    __ptext20 1786                      __ptext12 0F6E                      __ptext21 1C98  
                    __ptext13 1044                      __ptext30 12C6                      __ptext22 1AD0  
                    __ptext14 111A                      __ptext31 139C                      __ptext23 1DD6  
                    __ptext15 1C2A                      __ptext40 1DE8                      __ptext32 1BA8  
                    __ptext24 1DDC                      __ptext16 0E62                      __ptext41 1DBA  
                    __ptext33 1A7E                      __ptext25 1DE2                      __ptext17 1D6C  
                    __ptext34 1D8C                      __ptext26 1B64                      __ptext18 09AC  
                    __ptext35 1CC6                      __ptext27 1A26                      __ptext19 16D0  
                    __ptext36 1D4A                      __ptext28 1544                      __ptext37 1CF4  
                    __ptext29 11F0                      __ptext38 19CC                      __ptext39 1DA6  
                    _lcd_data 1BA8                      _initBIOS 1DE8            __end_of_initPinmap 1DCA  
                    _lock_msg 0019              ?_write_to_eeprom 0029                      isa$xinst 0000  
     read_from_eeprom@address 0029                  _set_passcode 0020                      _vfprintf 1BEC  
              ?_motor_forward 0029                  _set_password 0B24                      compare@c 0036  
                    compare@p 0037                   ??_lcd_reset 0030               _user_validation 0C42  
              ?_motor_reverse 0029                   ??_lock_door 0039                     sprintf@ap 0043  
         __end_of_unlock_door 0E62           write_to_eeprom@data 0029                   ??_motor_off 0029  
                 ??_vfpfcnvrt 0034                      sprintf@f 0044                      sprintf@s 0039  
                    strncmp@l 0029                      strncmp@n 002C                      strncmp@r 002B  
                 _SSPCON2bits 0FC5                      strstr@nl 0034      __end_of_read_from_eeprom 1C64  
