

Microchip MPLAB XC8 Assembler V2.46 build 20240104201356 
                                                                                               Mon Jun 24 12:52:49 2024

Microchip MPLAB XC8 C Compiler v2.46 (Free license) build 20240104201356 Og1 
     1                           	processor	18F4580
     2                           	fnconf	rparam,??,?,0
     3                           	pagewidth 120
     4                           	opt	flic
     5                           	psect	idataCOMRAM,global,class=CODE,delta=1,noexec
     6                           	psect	idataBANK0,global,class=CODE,delta=1,noexec
     7                           	psect	idataBANK1,global,class=CODE,delta=1,noexec
     8                           	psect	smallconst,global,reloc=2,class=SMALLCONST,delta=1,noexec
     9                           	psect	cinit,global,reloc=2,class=CODE,delta=1
    10                           	psect	bssCOMRAM,global,class=COMRAM,space=1,delta=1,lowdata,noexec
    11                           	psect	dataCOMRAM,global,class=COMRAM,space=1,delta=1,lowdata,noexec
    12                           	psect	dataBANK0,global,class=BANK0,space=1,delta=1,lowdata,noexec
    13                           	psect	bssBANK1,global,class=BANK1,space=1,delta=1,lowdata,noexec
    14                           	psect	dataBANK1,global,class=BANK1,space=1,delta=1,lowdata,noexec
    15                           	psect	cstackCOMRAM,global,class=COMRAM,space=1,delta=1,lowdata,noexec
    16                           	psect	text0,global,reloc=2,class=CODE,delta=1
    17                           	psect	text1,global,reloc=2,class=CODE,delta=1
    18                           	psect	text2,global,reloc=2,class=CODE,delta=1
    19                           	psect	text3,global,reloc=2,class=CODE,delta=1
    20                           	psect	text4,global,reloc=2,class=CODE,delta=1,group=3
    21                           	psect	text5,global,reloc=2,class=CODE,delta=1,group=1
    22                           	psect	text6,global,reloc=2,class=CODE,delta=1,group=1
    23                           	psect	text7,global,reloc=2,class=CODE,delta=1,group=3
    24                           	psect	text8,global,reloc=2,class=CODE,delta=1,group=3
    25                           	psect	text9,global,reloc=2,class=CODE,delta=1
    26                           	psect	text10,global,reloc=2,class=CODE,delta=1
    27                           	psect	text11,global,reloc=2,class=CODE,delta=1
    28                           	psect	text12,global,reloc=2,class=CODE,delta=1
    29                           	psect	text13,global,reloc=2,class=CODE,delta=1
    30                           	psect	text14,global,reloc=2,class=CODE,delta=1
    31                           	psect	text15,global,reloc=2,class=CODE,delta=1
    32                           	psect	text16,global,reloc=2,class=CODE,delta=1
    33                           	psect	text17,global,reloc=2,class=CODE,delta=1
    34                           	psect	text18,global,reloc=2,class=CODE,delta=1
    35                           	psect	text19,global,reloc=2,class=CODE,delta=1
    36                           	psect	text20,global,reloc=2,class=CODE,delta=1
    37                           	psect	text21,global,reloc=2,class=CODE,delta=1
    38                           	psect	text22,global,reloc=2,class=CODE,delta=1
    39                           	psect	text23,global,reloc=2,class=CODE,delta=1
    40                           	psect	text24,global,reloc=2,class=CODE,delta=1
    41                           	psect	text25,global,reloc=2,class=CODE,delta=1,group=3
    42                           	psect	text26,global,reloc=2,class=CODE,delta=1,group=3
    43                           	psect	text27,global,reloc=2,class=CODE,delta=1,group=3
    44                           	psect	text28,global,reloc=2,class=CODE,delta=1,group=3
    45                           	psect	text29,global,reloc=2,class=CODE,delta=1
    46                           	psect	text30,global,reloc=2,class=CODE,delta=1
    47                           	psect	text31,global,reloc=2,class=CODE,delta=1
    48                           	psect	text32,global,reloc=2,class=CODE,delta=1
    49                           	psect	text33,global,reloc=2,class=CODE,delta=1
    50                           	psect	text34,global,reloc=2,class=CODE,delta=1
    51                           	psect	text35,global,reloc=2,class=CODE,delta=1
    52                           	psect	text36,global,reloc=2,class=CODE,delta=1
    53                           	psect	text37,global,reloc=2,class=CODE,delta=1
    54                           	psect	text38,global,reloc=2,class=CODE,delta=1
    55                           	psect	text39,global,reloc=2,class=CODE,delta=1
    56                           	psect	text40,global,reloc=2,class=CODE,delta=1
    57                           	psect	text41,global,reloc=2,class=CODE,delta=1
    58                           	psect	text42,global,reloc=2,class=CODE,delta=1
    59                           	psect	intsave_regs,global,class=BIGRAM,space=1,delta=1,noexec
    60                           	psect	rparam,global,class=COMRAM,space=1,delta=1,noexec
    61   000000                     
    62                           ; Generated 17/10/2023 GMT
    63                           ; 
    64                           ; Copyright © 2023, Microchip Technology Inc. and its subsidiaries ("Microchip")
    65                           ; All rights reserved.
    66                           ; 
    67                           ; This software is developed by Microchip Technology Inc. and its subsidiaries ("Microch
      +                          ip").
    68                           ; 
    69                           ; Redistribution and use in source and binary forms, with or without modification, are
    70                           ; permitted provided that the following conditions are met:
    71                           ; 
    72                           ;     1. Redistributions of source code must retain the above copyright notice, this lis
      +                          t of
    73                           ;        conditions and the following disclaimer.
    74                           ; 
    75                           ;     2. Redistributions in binary form must reproduce the above copyright notice, this 
      +                          list
    76                           ;        of conditions and the following disclaimer in the documentation and/or other
    77                           ;        materials provided with the distribution. Publication is not required when
    78                           ;        this file is used in an embedded application.
    79                           ; 
    80                           ;     3. Microchip's name may not be used to endorse or promote products derived from th
      +                          is
    81                           ;        software without specific prior written permission.
    82                           ; 
    83                           ; THIS SOFTWARE IS PROVIDED BY MICROCHIP "AS IS" AND ANY EXPRESS OR IMPLIED WARRANTIES,
    84                           ; INCLUDING, BUT NOT LIMITED TO, THE IMPLIED WARRANTIES OF MERCHANTABILITY AND FITNESS F
      +                          OR
    85                           ; PURPOSE ARE DISCLAIMED.  IN NO EVENT SHALL MICROCHIP BE LIABLE FOR ANY DIRECT, INDIREC
      +                          T,
    86                           ; INCIDENTAL, SPECIAL, EXEMPLARY, OR CONSEQUENTIAL DAMAGES (INCLUDING BUT NOT LIMITED TO
    87                           ; PROCUREMENT OF SUBSTITUTE GOODS OR SERVICES; LOSS OF USE, DATA OR PROFITS; OR BUSINESS
    88                           ; INTERRUPTION) HOWSOEVER CAUSED AND ON ANY THEORY OF LIABILITY, WHETHER IN CONTRACT, ST
      +                          RICT
    89                           ; LIABILITY, OR TORT (INCLUDING NEGLIGENCE OR OTHERWISE) ARISING IN ANY WAY OUT OF THE U
      +                          SE OF
    90                           ; THIS SOFTWARE, EVEN IF ADVISED OF THE POSSIBILITY OF SUCH DAMAGE.
    91                           ; 
    92                           ; 
    93                           ; Code-generator required, PIC18F4580 Definitions
    94                           ; 
    95                           ; SFR Addresses
    96   000000                     
    97                           	psect	idataCOMRAM
    98   00212A                     __pidataCOMRAM:
    99                           	callstack 0
   100                           
   101                           ;initializer for _wait1
   102   00212A  57                 	db	87
   103   00212B  61                 	db	97
   104   00212C  69                 	db	105
   105   00212D  74                 	db	116
   106   00212E  20                 	db	32
   107   00212F  66                 	db	102
   108   002130  6F                 	db	111
   109   002131  72                 	db	114
   110   002132  00                 	db	0
   111                           
   112                           ;initializer for _lock_msg
   113   002133  33                 	db	51
   114   002134  2E                 	db	46
   115   002135  6C                 	db	108
   116   002136  6F                 	db	111
   117   002137  63                 	db	99
   118   002138  6B                 	db	107
   119   002139  00                 	db	0
   120                           
   121                           ;initializer for _set_user_passcode
   122   00213A  35                 	db	53
   123   00213B  36                 	db	54
   124   00213C  37                 	db	55
   125   00213D  38                 	db	56
   126                           
   127                           ;initializer for _new_user_passcode
   128   00213E  35                 	db	53
   129   00213F  36                 	db	54
   130   002140  37                 	db	55
   131   002141  38                 	db	56
   132                           
   133                           ;initializer for _admin_passcode
   134   002142  31                 	db	49
   135   002143  32                 	db	50
   136   002144  33                 	db	51
   137   002145  34                 	db	52
   138                           
   139                           ;initializer for _type_passcode
   140   002146  30                 	db	48
   141   002147  30                 	db	48
   142   002148  30                 	db	48
   143   002149  30                 	db	48
   144   00214A  00                 	db	0
   145                           
   146                           	psect	idataBANK0
   147   001C98                     __pidataBANK0:
   148                           	callstack 0
   149                           
   150                           ;initializer for _password_not_match
   151   001C98  57                 	db	87
   152   001C99  72                 	db	114
   153   001C9A  6F                 	db	111
   154   001C9B  6E                 	db	110
   155   001C9C  67                 	db	103
   156   001C9D  20                 	db	32
   157   001C9E  50                 	db	80
   158   001C9F  61                 	db	97
   159   001CA0  73                 	db	115
   160   001CA1  73                 	db	115
   161   001CA2  77                 	db	119
   162   001CA3  6F                 	db	111
   163   001CA4  72                 	db	114
   164   001CA5  64                 	db	100
   165   001CA6  00                 	db	0
   166                           
   167                           ;initializer for _enter_user_Pass_msg
   168   001CA7  45                 	db	69
   169   001CA8  6E                 	db	110
   170   001CA9  74                 	db	116
   171   001CAA  65                 	db	101
   172   001CAB  72                 	db	114
   173   001CAC  20                 	db	32
   174   001CAD  6E                 	db	110
   175   001CAE  65                 	db	101
   176   001CAF  77                 	db	119
   177   001CB0  20                 	db	32
   178   001CB1  50                 	db	80
   179   001CB2  61                 	db	97
   180   001CB3  73                 	db	115
   181   001CB4  73                 	db	115
   182   001CB5  00                 	db	0
   183                           
   184                           ;initializer for _renter_old_password_msg
   185   001CB6  45                 	db	69
   186   001CB7  6E                 	db	110
   187   001CB8  74                 	db	116
   188   001CB9  65                 	db	101
   189   001CBA  72                 	db	114
   190   001CBB  20                 	db	32
   191   001CBC  6F                 	db	111
   192   001CBD  6C                 	db	108
   193   001CBE  64                 	db	100
   194   001CBF  20                 	db	32
   195   001CC0  50                 	db	80
   196   001CC1  61                 	db	97
   197   001CC2  73                 	db	115
   198   001CC3  73                 	db	115
   199   001CC4  00                 	db	0
   200                           
   201                           ;initializer for _enter_pass_msg
   202   001CC5  45                 	db	69
   203   001CC6  6E                 	db	110
   204   001CC7  74                 	db	116
   205   001CC8  65                 	db	101
   206   001CC9  72                 	db	114
   207   001CCA  20                 	db	32
   208   001CCB  50                 	db	80
   209   001CCC  61                 	db	97
   210   001CCD  73                 	db	115
   211   001CCE  73                 	db	115
   212   001CCF  77                 	db	119
   213   001CD0  6F                 	db	111
   214   001CD1  72                 	db	114
   215   001CD2  64                 	db	100
   216   001CD3  00                 	db	0
   217                           
   218                           ;initializer for _admin_password_msg
   219   001CD4  41                 	db	65
   220   001CD5  64                 	db	100
   221   001CD6  6D                 	db	109
   222   001CD7  69                 	db	105
   223   001CD8  6E                 	db	110
   224   001CD9  20                 	db	32
   225   001CDA  50                 	db	80
   226   001CDB  61                 	db	97
   227   001CDC  73                 	db	115
   228   001CDD  73                 	db	115
   229   001CDE  77                 	db	119
   230   001CDF  6F                 	db	111
   231   001CE0  72                 	db	114
   232   001CE1  64                 	db	100
   233   001CE2  00                 	db	0
   234                           
   235                           ;initializer for _s2
   236   001CE3  41                 	db	65
   237   001CE4  63                 	db	99
   238   001CE5  63                 	db	99
   239   001CE6  65                 	db	101
   240   001CE7  73                 	db	115
   241   001CE8  73                 	db	115
   242   001CE9  20                 	db	32
   243   001CEA  47                 	db	71
   244   001CEB  72                 	db	114
   245   001CEC  61                 	db	97
   246   001CED  6E                 	db	110
   247   001CEE  74                 	db	116
   248   001CEF  65                 	db	101
   249   001CF0  64                 	db	100
   250   001CF1  00                 	db	0
   251                           
   252                           ;initializer for _s3
   253   001CF2  41                 	db	65
   254   001CF3  63                 	db	99
   255   001CF4  63                 	db	99
   256   001CF5  65                 	db	101
   257   001CF6  73                 	db	115
   258   001CF7  73                 	db	115
   259   001CF8  20                 	db	32
   260   001CF9  44                 	db	68
   261   001CFA  65                 	db	101
   262   001CFB  6E                 	db	110
   263   001CFC  69                 	db	105
   264   001CFD  65                 	db	101
   265   001CFE  64                 	db	100
   266   001CFF  00                 	db	0
   267                           
   268                           ;initializer for _new_pass_set_msg1
   269   001D00  4E                 	db	78
   270   001D01  65                 	db	101
   271   001D02  77                 	db	119
   272   001D03  20                 	db	32
   273   001D04  70                 	db	112
   274   001D05  61                 	db	97
   275   001D06  73                 	db	115
   276   001D07  73                 	db	115
   277   001D08  77                 	db	119
   278   001D09  6F                 	db	111
   279   001D0A  72                 	db	114
   280   001D0B  64                 	db	100
   281   001D0C  00                 	db	0
   282                           
   283                           ;initializer for _pass_set_msg
   284   001D0D  31                 	db	49
   285   001D0E  2E                 	db	46
   286   001D0F  41                 	db	65
   287   001D10  64                 	db	100
   288   001D11  6D                 	db	109
   289   001D12  69                 	db	105
   290   001D13  6E                 	db	110
   291   001D14  20                 	db	32
   292   001D15  55                 	db	85
   293   001D16  73                 	db	115
   294   001D17  65                 	db	101
   295   001D18  72                 	db	114
   296   001D19  00                 	db	0
   297                           
   298                           ;initializer for _unlock_msg
   299   001D1A  32                 	db	50
   300   001D1B  2E                 	db	46
   301   001D1C  75                 	db	117
   302   001D1D  6E                 	db	110
   303   001D1E  6C                 	db	108
   304   001D1F  6F                 	db	111
   305   001D20  63                 	db	99
   306   001D21  6B                 	db	107
   307   001D22  20                 	db	32
   308   001D23  20                 	db	32
   309   001D24  00                 	db	0
   310                           
   311                           ;initializer for _wait2
   312   001D25  33                 	db	51
   313   001D26  30                 	db	48
   314   001D27  20                 	db	32
   315   001D28  73                 	db	115
   316   001D29  65                 	db	101
   317   001D2A  63                 	db	99
   318   001D2B  6F                 	db	111
   319   001D2C  6E                 	db	110
   320   001D2D  64                 	db	100
   321   001D2E  3A                 	db	58
   322   001D2F  00                 	db	0
   323                           
   324                           	psect	idataBANK1
   325   00214B                     __pidataBANK1:
   326                           	callstack 0
   327                           
   328                           ;initializer for _new_pass_set_msg2
   329   00214B  53                 	db	83
   330   00214C  65                 	db	101
   331   00214D  74                 	db	116
   332   00214E  20                 	db	32
   333   00214F  53                 	db	83
   334   002150  75                 	db	117
   335   002151  63                 	db	99
   336   002152  63                 	db	99
   337   002153  65                 	db	101
   338   002154  73                 	db	115
   339   002155  73                 	db	115
   340   002156  66                 	db	102
   341   002157  75                 	db	117
   342   002158  6C                 	db	108
   343   002159  6C                 	db	108
   344   00215A  79                 	db	121
   345   00215B  00                 	db	0
   346                           
   347                           ;initializer for _password_match
   348   00215C  70                 	db	112
   349   00215D  61                 	db	97
   350   00215E  73                 	db	115
   351   00215F  73                 	db	115
   352   002160  77                 	db	119
   353   002161  6F                 	db	111
   354   002162  72                 	db	114
   355   002163  64                 	db	100
   356   002164  20                 	db	32
   357   002165  6D                 	db	109
   358   002166  61                 	db	97
   359   002167  74                 	db	116
   360   002168  63                 	db	99
   361   002169  68                 	db	104
   362   00216A  00                 	db	0
   363   000000                     _EECON2	set	4007
   364   000000                     _EEDATA	set	4008
   365   000000                     _EEADR	set	4009
   366   000000                     _SSPCON2bits	set	4037
   367   000000                     _SSPSTATbits	set	4039
   368   000000                     _PORTAbits	set	3968
   369   000000                     _PORTBbits	set	3969
   370   000000                     _PORTDbits	set	3971
   371   000000                     _TRISA	set	3986
   372   000000                     _TRISB	set	3987
   373   000000                     _TRISD	set	3989
   374   000000                     _PIR1bits	set	3998
   375   000000                     _EECON1bits	set	4006
   376   000000                     _ADCON1	set	4033
   377   000000                     _SSPCON2	set	4037
   378   000000                     _SSPCON1	set	4038
   379   000000                     _SSPSTAT	set	4039
   380   000000                     _INTCON2bits	set	4081
   381   000000                     _SSPBUF	set	4041
   382   000000                     _SSPADD	set	4040
   383   000000                     _PIR2bits	set	4001
   384                           
   385                           	psect	smallconst
   386   000600                     __psmallconst:
   387                           	callstack 0
   388   000600  00                 	db	0
   389   000601                     STR_1:
   390   000601  25                 	db	37
   391   000602  63                 	db	99	;'c'
   392   000603  25                 	db	37
   393   000604  63                 	db	99	;'c'
   394   000605  25                 	db	37
   395   000606  63                 	db	99	;'c'
   396   000607  25                 	db	37
   397   000608  63                 	db	99	;'c'
   398   000609  00                 	db	0
   399   00060A  00                 	db	0	; dummy byte at the end
   400   000000                     
   401                           ; #config settings
   402                           
   403                           	psect	cinit
   404   001D30                     __pcinit:
   405                           	callstack 0
   406   001D30                     start_initialization:
   407                           	callstack 0
   408   001D30                     __initialization:
   409                           	callstack 0
   410                           
   411                           ; Initialize objects allocated to BANK1 (32 bytes)
   412                           ; load TBLPTR registers with __pidataBANK1
   413   001D30  0E4B               	movlw	low __pidataBANK1
   414   001D32  6EF6               	movwf	tblptrl,c
   415   001D34  0E21               	movlw	high __pidataBANK1
   416   001D36  6EF7               	movwf	tblptrh,c
   417   001D38  0E00               	movlw	low (__pidataBANK1 shr (0+16))
   418   001D3A  6EF8               	movwf	tblptru,c
   419   001D3C  EE01  F020         	lfsr	0,__pdataBANK1
   420   001D40  EE10 F020          	lfsr	1,32
   421   001D44                     copy_data0:
   422   001D44  0009               	tblrd		*+
   423   001D46  CFF5 FFEE          	movff	tablat,postinc0
   424   001D4A  50E5               	movf	postdec1,w,c
   425   001D4C  50E1               	movf	fsr1l,w,c
   426   001D4E  E1FA               	bnz	copy_data0
   427                           
   428                           ; Initialize objects allocated to BANK0 (152 bytes)
   429                           ; load TBLPTR registers with __pidataBANK0
   430   001D50  0E98               	movlw	low __pidataBANK0
   431   001D52  6EF6               	movwf	tblptrl,c
   432   001D54  0E1C               	movlw	high __pidataBANK0
   433   001D56  6EF7               	movwf	tblptrh,c
   434   001D58  0E00               	movlw	low (__pidataBANK0 shr (0+16))
   435   001D5A  6EF8               	movwf	tblptru,c
   436   001D5C  EE00  F060         	lfsr	0,__pdataBANK0
   437   001D60  EE10 F098          	lfsr	1,152
   438   001D64                     copy_data1:
   439   001D64  0009               	tblrd		*+
   440   001D66  CFF5 FFEE          	movff	tablat,postinc0
   441   001D6A  50E5               	movf	postdec1,w,c
   442   001D6C  50E1               	movf	fsr1l,w,c
   443   001D6E  E1FA               	bnz	copy_data1
   444                           
   445                           ; Initialize objects allocated to COMRAM (33 bytes)
   446                           ; load TBLPTR registers with __pidataCOMRAM
   447   001D70  0E2A               	movlw	low __pidataCOMRAM
   448   001D72  6EF6               	movwf	tblptrl,c
   449   001D74  0E21               	movlw	high __pidataCOMRAM
   450   001D76  6EF7               	movwf	tblptrh,c
   451   001D78  0E00               	movlw	low (__pidataCOMRAM shr (0+16))
   452   001D7A  6EF8               	movwf	tblptru,c
   453   001D7C  EE00  F028         	lfsr	0,__pdataCOMRAM
   454   001D80  EE10 F021          	lfsr	1,33
   455   001D84                     copy_data2:
   456   001D84  0009               	tblrd		*+
   457   001D86  CFF5 FFEE          	movff	tablat,postinc0
   458   001D8A  50E5               	movf	postdec1,w,c
   459   001D8C  50E1               	movf	fsr1l,w,c
   460   001D8E  E1FA               	bnz	copy_data2
   461                           
   462                           ; Clear objects allocated to BANK1 (32 bytes)
   463   001D90  EE01  F000         	lfsr	0,__pbssBANK1
   464   001D94  0E20               	movlw	32
   465   001D96                     clear_0:
   466   001D96  6AEE               	clrf	postinc0,c
   467   001D98  06E8               	decf	wreg,f,c
   468   001D9A  E1FD               	bnz	clear_0
   469                           
   470                           ; Clear objects allocated to COMRAM (20 bytes)
   471   001D9C  EE00  F049         	lfsr	0,__pbssCOMRAM
   472   001DA0  0E14               	movlw	20
   473   001DA2                     clear_1:
   474   001DA2  6AEE               	clrf	postinc0,c
   475   001DA4  06E8               	decf	wreg,f,c
   476   001DA6  E1FD               	bnz	clear_1
   477   001DA8                     end_of_initialization:
   478                           	callstack 0
   479   001DA8                     __end_of__initialization:
   480                           	callstack 0
   481   001DA8  0E00               	movlw	low (__Lmediumconst shr (0+16))
   482   001DAA  6EF8               	movwf	tblptru,c
   483   001DAC  0100               	movlb	0
   484   001DAE  EFE7  F010         	goto	_main	;jump to C main() function
   485                           
   486                           	psect	bssCOMRAM
   487   000049                     __pbssCOMRAM:
   488                           	callstack 0
   489   000049                     _width:
   490                           	callstack 0
   491   000049                     	ds	2
   492   00004B                     _prec:
   493                           	callstack 0
   494   00004B                     	ds	2
   495   00004D                     compare@count:
   496                           	callstack 0
   497   00004D                     	ds	2
   498   00004F                     _i:
   499                           	callstack 0
   500   00004F                     	ds	2
   501   000051                     _flags:
   502                           	callstack 0
   503   000051                     	ds	1
   504   000052                     _address:
   505                           	callstack 0
   506   000052                     	ds	1
   507   000053                     _c:
   508                           	callstack 0
   509   000053                     	ds	1
   510   000054                     _ch:
   511                           	callstack 0
   512   000054                     	ds	1
   513   000055                     _admin_password:
   514                           	callstack 0
   515   000055                     	ds	4
   516   000059                     _old_user_password:
   517                           	callstack 0
   518   000059                     	ds	4
   519                           
   520                           	psect	dataCOMRAM
   521   000028                     __pdataCOMRAM:
   522                           	callstack 0
   523   000028                     _wait1:
   524                           	callstack 0
   525   000028                     	ds	9
   526   000031                     _lock_msg:
   527                           	callstack 0
   528   000031                     	ds	7
   529   000038                     _set_user_passcode:
   530                           	callstack 0
   531   000038                     	ds	4
   532   00003C                     _new_user_passcode:
   533                           	callstack 0
   534   00003C                     	ds	4
   535   000040                     _admin_passcode:
   536                           	callstack 0
   537   000040                     	ds	4
   538   000044                     _type_passcode:
   539                           	callstack 0
   540   000044                     	ds	5
   541                           
   542                           	psect	dataBANK0
   543   000060                     __pdataBANK0:
   544                           	callstack 0
   545   000060                     _password_not_match:
   546                           	callstack 0
   547   000060                     	ds	15
   548   00006F                     _enter_user_Pass_msg:
   549                           	callstack 0
   550   00006F                     	ds	15
   551   00007E                     _renter_old_password_msg:
   552                           	callstack 0
   553   00007E                     	ds	15
   554   00008D                     _enter_pass_msg:
   555                           	callstack 0
   556   00008D                     	ds	15
   557   00009C                     _admin_password_msg:
   558                           	callstack 0
   559   00009C                     	ds	15
   560   0000AB                     _s2:
   561                           	callstack 0
   562   0000AB                     	ds	15
   563   0000BA                     _s3:
   564                           	callstack 0
   565   0000BA                     	ds	14
   566   0000C8                     _new_pass_set_msg1:
   567                           	callstack 0
   568   0000C8                     	ds	13
   569   0000D5                     _pass_set_msg:
   570                           	callstack 0
   571   0000D5                     	ds	13
   572   0000E2                     _unlock_msg:
   573                           	callstack 0
   574   0000E2                     	ds	11
   575   0000ED                     _wait2:
   576                           	callstack 0
   577   0000ED                     	ds	11
   578                           
   579                           	psect	bssBANK1
   580   000100                     __pbssBANK1:
   581                           	callstack 0
   582   000100                     	ds	32
   583                           
   584                           	psect	dataBANK1
   585   000120                     __pdataBANK1:
   586                           	callstack 0
   587   000120                     _new_pass_set_msg2:
   588                           	callstack 0
   589   000120                     	ds	17
   590   000131                     _password_match:
   591                           	callstack 0
   592   000131                     	ds	15
   593                           
   594                           	psect	cstackCOMRAM
   595   000001                     __pcstackCOMRAM:
   596                           	callstack 0
   597   000001                     ?_strlen:
   598                           	callstack 0
   599   000001                     ?_strncmp:
   600                           	callstack 0
   601   000001                     ?_strchr:
   602                           	callstack 0
   603   000001                     read_from_eeprom@address:
   604                           	callstack 0
   605   000001                     write_to_eeprom@data:
   606                           	callstack 0
   607   000001                     I2C_Write@data:
   608                           	callstack 0
   609   000001                     strlen@s:
   610                           	callstack 0
   611   000001                     delay1@i:
   612                           	callstack 0
   613   000001                     delay@a:
   614                           	callstack 0
   615   000001                     delay2@a:
   616                           	callstack 0
   617   000001                     fputc@c:
   618                           	callstack 0
   619   000001                     strchr@s:
   620                           	callstack 0
   621   000001                     strncmp@l:
   622                           	callstack 0
   623                           
   624                           ; 2 bytes @ 0x0
   625   000001                     	ds	1
   626   000002                     write_to_eeprom@address:
   627                           	callstack 0
   628   000002                     I2C_Start@slave_write_address:
   629                           	callstack 0
   630                           
   631                           ; 1 bytes @ 0x1
   632   000002                     	ds	1
   633   000003                     ??_delay:
   634   000003                     fputc@fp:
   635                           	callstack 0
   636   000003                     strlen@a:
   637                           	callstack 0
   638   000003                     strncmp@r:
   639                           	callstack 0
   640   000003                     delay1@j:
   641                           	callstack 0
   642   000003                     delay2@i:
   643                           	callstack 0
   644   000003                     strchr@c:
   645                           	callstack 0
   646                           
   647                           ; 2 bytes @ 0x2
   648   000003                     	ds	1
   649   000004                     ??_fputc:
   650   000004                     delay@j:
   651                           	callstack 0
   652   000004                     strncmp@n:
   653                           	callstack 0
   654                           
   655                           ; 2 bytes @ 0x3
   656   000004                     	ds	1
   657   000005                     lcd_cmd@data:
   658                           	callstack 0
   659   000005                     lcd_data@data:
   660                           	callstack 0
   661   000005                     delay2@j:
   662                           	callstack 0
   663                           
   664                           ; 2 bytes @ 0x4
   665   000005                     	ds	1
   666   000006                     ??_strncmp:
   667   000006                     lcd_cmd@data_l:
   668                           	callstack 0
   669   000006                     lcd_data@data_l:
   670                           	callstack 0
   671   000006                     delay@i:
   672                           	callstack 0
   673                           
   674                           ; 2 bytes @ 0x5
   675   000006                     	ds	1
   676   000007                     lcd_cmd@data_u:
   677                           	callstack 0
   678   000007                     lcd_data@data_u:
   679                           	callstack 0
   680                           
   681                           ; 1 bytes @ 0x6
   682   000007                     	ds	1
   683   000008                     ?_strstr:
   684                           	callstack 0
   685   000008                     strstr@h:
   686                           	callstack 0
   687                           
   688                           ; 2 bytes @ 0x7
   689   000008                     	ds	1
   690   000009                     vfpfcnvrt@fp:
   691                           	callstack 0
   692                           
   693                           ; 1 bytes @ 0x8
   694   000009                     	ds	1
   695   00000A                     vfpfcnvrt@fmt:
   696                           	callstack 0
   697   00000A                     strstr@n:
   698                           	callstack 0
   699                           
   700                           ; 1 bytes @ 0x9
   701   00000A                     	ds	1
   702   00000B                     ??_strstr:
   703   00000B                     vfpfcnvrt@ap:
   704                           	callstack 0
   705                           
   706                           ; 1 bytes @ 0xA
   707   00000B                     	ds	1
   708   00000C                     vfpfcnvrt@c:
   709                           	callstack 0
   710   00000C                     strstr@nl:
   711                           	callstack 0
   712                           
   713                           ; 2 bytes @ 0xB
   714   00000C                     	ds	1
   715   00000D                     ?_vfprintf:
   716                           	callstack 0
   717   00000D                     vfprintf@fp:
   718                           	callstack 0
   719                           
   720                           ; 1 bytes @ 0xC
   721   00000D                     	ds	1
   722   00000E                     ?_admin_validation:
   723                           	callstack 0
   724   00000E                     ?_user_validation:
   725                           	callstack 0
   726   00000E                     admin_validation@adminP:
   727                           	callstack 0
   728   00000E                     compare@c:
   729                           	callstack 0
   730   00000E                     vfprintf@fmt:
   731                           	callstack 0
   732                           
   733                           ; 1 bytes @ 0xD
   734   00000E                     	ds	1
   735   00000F                     vfprintf@ap:
   736                           	callstack 0
   737   00000F                     compare@j:
   738                           	callstack 0
   739                           
   740                           ; 2 bytes @ 0xE
   741   00000F                     	ds	1
   742   000010                     vfprintf@cfmt:
   743                           	callstack 0
   744   000010                     admin_validation@p:
   745                           	callstack 0
   746   000010                     user_validation@q:
   747                           	callstack 0
   748                           
   749                           ; 2 bytes @ 0xF
   750   000010                     	ds	1
   751   000011                     ?_sprintf:
   752                           	callstack 0
   753   000011                     sprintf@s:
   754                           	callstack 0
   755   000011                     compare@k:
   756                           	callstack 0
   757                           
   758                           ; 2 bytes @ 0x10
   759   000011                     	ds	1
   760   000012                     sprintf@fmt:
   761                           	callstack 0
   762                           
   763                           ; 1 bytes @ 0x11
   764   000012                     	ds	1
   765   000013                     compare@p:
   766                           	callstack 0
   767                           
   768                           ; 2 bytes @ 0x12
   769   000013                     	ds	2
   770   000015                     
   771                           ; 1 bytes @ 0x14
   772   000015                     	ds	6
   773   00001B                     sprintf@ap:
   774                           	callstack 0
   775                           
   776                           ; 1 bytes @ 0x1A
   777   00001B                     	ds	1
   778   00001C                     sprintf@f:
   779                           	callstack 0
   780                           
   781                           ; 12 bytes @ 0x1B
   782   00001C                     	ds	12
   783   000028                     
   784                           ; 1 bytes @ 0x27
   785 ;;
   786 ;;Main: autosize = 0, tempsize = 0, incstack = 0, save=0
   787 ;;
   788 ;; *************** function _main *****************
   789 ;; Defined at:
   790 ;;		line 11 in file "main.c"
   791 ;; Parameters:    Size  Location     Type
   792 ;;		None
   793 ;; Auto vars:     Size  Location     Type
   794 ;;		None
   795 ;; Return value:  Size  Location     Type
   796 ;;                  1    wreg      void 
   797 ;; Registers used:
   798 ;;		wreg, fsr1l, fsr1h, fsr2l, fsr2h, status,2, status,0, tblptrl, tblptrh, tblptru, cstack
   799 ;; Tracked objects:
   800 ;;		On entry : 0/0
   801 ;;		On exit  : 0/0
   802 ;;		Unchanged: 0/0
   803 ;; Data sizes:     COMRAM   BANK0   BANK1   BANK2   BANK3   BANK4   BANK5
   804 ;;      Params:         0       0       0       0       0       0       0
   805 ;;      Locals:         0       0       0       0       0       0       0
   806 ;;      Temps:          0       0       0       0       0       0       0
   807 ;;      Totals:         0       0       0       0       0       0       0
   808 ;;Total ram usage:        0 bytes
   809 ;; Hardware stack levels required when called: 8
   810 ;; This function calls:
   811 ;;		_initBIOS
   812 ;;		_runApp
   813 ;; This function is called by:
   814 ;;		Startup code after reset
   815 ;; This function uses a non-reentrant model
   816 ;;
   817                           
   818                           	psect	text0
   819   0021CE                     __ptext0:
   820                           	callstack 0
   821   0021CE                     _main:
   822                           	callstack 23
   823   0021CE                     
   824                           ;main.c: 12:     initBIOS();
   825   0021CE  ECF9  F010         	call	_initBIOS	;wreg free
   826   0021D2                     
   827                           ;main.c: 13:     runApp();
   828   0021D2  EC06  F003         	call	_runApp	;wreg free
   829   0021D6  EF00  F000         	goto	start
   830   0021DA                     __end_of_main:
   831                           	callstack 0
   832                           
   833 ;; *************** function _runApp *****************
   834 ;; Defined at:
   835 ;;		line 18 in file "APP/app.c"
   836 ;; Parameters:    Size  Location     Type
   837 ;;		None
   838 ;; Auto vars:     Size  Location     Type
   839 ;;		None
   840 ;; Return value:  Size  Location     Type
   841 ;;                  1    wreg      void 
   842 ;; Registers used:
   843 ;;		wreg, fsr1l, fsr1h, fsr2l, fsr2h, status,2, status,0, tblptrl, tblptrh, tblptru, cstack
   844 ;; Tracked objects:
   845 ;;		On entry : 0/0
   846 ;;		On exit  : 0/0
   847 ;;		Unchanged: 0/0
   848 ;; Data sizes:     COMRAM   BANK0   BANK1   BANK2   BANK3   BANK4   BANK5
   849 ;;      Params:         0       0       0       0       0       0       0
   850 ;;      Locals:         0       0       0       0       0       0       0
   851 ;;      Temps:          0       0       0       0       0       0       0
   852 ;;      Totals:         0       0       0       0       0       0       0
   853 ;;Total ram usage:        0 bytes
   854 ;; Hardware stack levels used: 1
   855 ;; Hardware stack levels required when called: 7
   856 ;; This function calls:
   857 ;;		_I2C_Init
   858 ;;		_I2C_Ready
   859 ;;		_admin_validation
   860 ;;		_col1
   861 ;;		_col2
   862 ;;		_col3
   863 ;;		_delay
   864 ;;		_delay2
   865 ;;		_lcd_cmd
   866 ;;		_lcd_data
   867 ;;		_lcd_reset
   868 ;;		_lock_door
   869 ;;		_read_from_eeprom
   870 ;;		_set_user_password
   871 ;;		_sprintf
   872 ;;		_unlock_door
   873 ;;		_user_validation
   874 ;;		_write_to_eeprom
   875 ;; This function is called by:
   876 ;;		_main
   877 ;; This function uses a non-reentrant model
   878 ;;
   879                           
   880                           	psect	text1
   881   00060C                     __ptext1:
   882                           	callstack 0
   883   00060C                     _runApp:
   884                           	callstack 23
   885   00060C                     
   886                           ;APP/app.c: 21:         I2C_Init();
   887   00060C  ECD3  F010         	call	_I2C_Init	;wreg free
   888   000610                     
   889                           ;APP/app.c: 22:      delay2(5);
   890   000610  0E00               	movlw	0
   891   000612  6E02               	movwf	(delay2@a+1)^0,c
   892   000614  0E05               	movlw	5
   893   000616  6E01               	movwf	delay2@a^0,c
   894   000618  ECD9  F00E         	call	_delay2	;wreg free
   895   00061C                     
   896                           ;APP/app.c: 23:      I2C_Ready();
   897   00061C  EC6D  F010         	call	_I2C_Ready	;wreg free
   898   000620                     
   899                           ;APP/app.c: 24:      delay2(5);
   900   000620  0E00               	movlw	0
   901   000622  6E02               	movwf	(delay2@a+1)^0,c
   902   000624  0E05               	movlw	5
   903   000626  6E01               	movwf	delay2@a^0,c
   904   000628  ECD9  F00E         	call	_delay2	;wreg free
   905   00062C                     
   906                           ;APP/app.c: 25:         lcd_reset();
   907   00062C  ECB6  F010         	call	_lcd_reset	;wreg free
   908   000630                     
   909                           ;APP/app.c: 26:         delay(500);
   910   000630  0E01               	movlw	1
   911   000632  6E02               	movwf	(delay@a+1)^0,c
   912   000634  0EF4               	movlw	244
   913   000636  6E01               	movwf	delay@a^0,c
   914   000638  EC06  F00F         	call	_delay	;wreg free
   915   00063C                     
   916                           ;APP/app.c: 34:        write_to_eeprom(address, admin_passcode[0]);
   917   00063C  C040  F001         	movff	_admin_passcode,write_to_eeprom@data
   918   000640  0E00               	movlw	0
   919   000642  EC81  F00F         	call	_write_to_eeprom
   920   000646                     
   921                           ;APP/app.c: 35:        write_to_eeprom(address+1, admin_passcode[1]);
   922   000646  C041  F001         	movff	_admin_passcode+1,write_to_eeprom@data
   923   00064A  0E01               	movlw	1
   924   00064C  EC81  F00F         	call	_write_to_eeprom
   925   000650                     
   926                           ;APP/app.c: 36:        write_to_eeprom(address+2, admin_passcode[2]);
   927   000650  C042  F001         	movff	_admin_passcode+2,write_to_eeprom@data
   928   000654  0E02               	movlw	2
   929   000656  EC81  F00F         	call	_write_to_eeprom
   930   00065A                     
   931                           ;APP/app.c: 37:        write_to_eeprom(address+3, admin_passcode[3]);
   932   00065A  C043  F001         	movff	_admin_passcode+3,write_to_eeprom@data
   933   00065E  0E03               	movlw	3
   934   000660  EC81  F00F         	call	_write_to_eeprom
   935   000664                     
   936                           ;APP/app.c: 39:        admin_passcode[0] = read_from_eeprom(address);
   937   000664  0E00               	movlw	0
   938   000666  EC08  F010         	call	_read_from_eeprom
   939   00066A  6E40               	movwf	_admin_passcode^0,c
   940   00066C                     
   941                           ;APP/app.c: 40:        admin_passcode[1] = read_from_eeprom(address+1);
   942   00066C  0E01               	movlw	1
   943   00066E  EC08  F010         	call	_read_from_eeprom
   944   000672  6E41               	movwf	(_admin_passcode+1)^0,c
   945   000674                     
   946                           ;APP/app.c: 41:        admin_passcode[2] = read_from_eeprom(address+2);
   947   000674  0E02               	movlw	2
   948   000676  EC08  F010         	call	_read_from_eeprom
   949   00067A  6E42               	movwf	(_admin_passcode+2)^0,c
   950   00067C                     
   951                           ;APP/app.c: 42:        admin_passcode[3] = read_from_eeprom(address+3);
   952   00067C  0E03               	movlw	3
   953   00067E  EC08  F010         	call	_read_from_eeprom
   954   000682  6E43               	movwf	(_admin_passcode+3)^0,c
   955   000684                     
   956                           ;APP/app.c: 44:         PORTBbits.RB4=PORTBbits.RB5=PORTBbits.RB6=PORTBbits.RB7=1;
   957   000684  8E81               	bsf	129,7,c	;volatile
   958   000686  8C81               	bsf	129,6,c	;volatile
   959   000688  8A81               	bsf	129,5,c	;volatile
   960   00068A  8881               	bsf	129,4,c	;volatile
   961   00068C                     l3758:
   962                           
   963                           ;APP/app.c: 48:     {;APP/app.c: 49:         set_user_passcode[0] = read_from_eeprom(add
      +                          ress+4);
   964   00068C  0E04               	movlw	4
   965   00068E  EC08  F010         	call	_read_from_eeprom
   966   000692  6E38               	movwf	_set_user_passcode^0,c
   967   000694                     
   968                           ;APP/app.c: 50:         set_user_passcode[1] = read_from_eeprom(address+5);
   969   000694  0E05               	movlw	5
   970   000696  EC08  F010         	call	_read_from_eeprom
   971   00069A  6E39               	movwf	(_set_user_passcode+1)^0,c
   972   00069C                     
   973                           ;APP/app.c: 51:         set_user_passcode[2] = read_from_eeprom(address+6);
   974   00069C  0E06               	movlw	6
   975   00069E  EC08  F010         	call	_read_from_eeprom
   976   0006A2  6E3A               	movwf	(_set_user_passcode+2)^0,c
   977   0006A4                     
   978                           ;APP/app.c: 52:         set_user_passcode[3] = read_from_eeprom(address+7);
   979   0006A4  0E07               	movlw	7
   980   0006A6  EC08  F010         	call	_read_from_eeprom
   981   0006AA  6E3B               	movwf	(_set_user_passcode+3)^0,c
   982                           
   983                           ;APP/app.c: 53:          for(i=0;pass_set_msg[i]!='\0';i++)
   984   0006AC  0E00               	movlw	0
   985   0006AE  6E50               	movwf	(_i+1)^0,c
   986   0006B0  0E00               	movlw	0
   987   0006B2  6E4F               	movwf	_i^0,c
   988   0006B4  EF65  F003         	goto	l3770
   989   0006B8                     l3766:
   990                           
   991                           ;APP/app.c: 54:         {;APP/app.c: 55:             lcd_data(pass_set_msg[i]);
   992   0006B8  504F               	movf	_i^0,w,c
   993   0006BA  0FD5               	addlw	low _pass_set_msg
   994   0006BC  6ED9               	movwf	fsr2l,c
   995   0006BE  6ADA               	clrf	fsr2h,c
   996   0006C0  50DF               	movf	indf2,w,c
   997   0006C2  ECC7  F00F         	call	_lcd_data
   998   0006C6                     
   999                           ;APP/app.c: 56:         }
  1000   0006C6  4A4F               	infsnz	_i^0,f,c
  1001   0006C8  2A50               	incf	(_i+1)^0,f,c
  1002   0006CA                     l3770:
  1003   0006CA  504F               	movf	_i^0,w,c
  1004   0006CC  0FD5               	addlw	low _pass_set_msg
  1005   0006CE  6ED9               	movwf	fsr2l,c
  1006   0006D0  6ADA               	clrf	fsr2h,c
  1007   0006D2  50DF               	movf	indf2,w,c
  1008   0006D4  A4D8               	btfss	status,2,c
  1009   0006D6  EF6F  F003         	goto	u3511
  1010   0006DA  EF71  F003         	goto	u3510
  1011   0006DE                     u3511:
  1012   0006DE  EF5C  F003         	goto	l3766
  1013   0006E2                     u3510:
  1014   0006E2                     
  1015                           ;APP/app.c: 57:          delay(200);
  1016   0006E2  0E00               	movlw	0
  1017   0006E4  6E02               	movwf	(delay@a+1)^0,c
  1018   0006E6  0EC8               	movlw	200
  1019   0006E8  6E01               	movwf	delay@a^0,c
  1020   0006EA  EC06  F00F         	call	_delay	;wreg free
  1021                           
  1022                           ;APP/app.c: 58:         lcd_cmd(0xc0);
  1023   0006EE  0EC0               	movlw	192
  1024   0006F0  ECA5  F00F         	call	_lcd_cmd
  1025   0006F4                     
  1026                           ;APP/app.c: 59:         for(i=0;unlock_msg[i]!='\0';i++)
  1027   0006F4  0E00               	movlw	0
  1028   0006F6  6E50               	movwf	(_i+1)^0,c
  1029   0006F8  0E00               	movlw	0
  1030   0006FA  6E4F               	movwf	_i^0,c
  1031   0006FC  EF89  F003         	goto	l3780
  1032   000700                     l3776:
  1033                           
  1034                           ;APP/app.c: 60:         {;APP/app.c: 61:             lcd_data(unlock_msg[i]);
  1035   000700  504F               	movf	_i^0,w,c
  1036   000702  0FE2               	addlw	low _unlock_msg
  1037   000704  6ED9               	movwf	fsr2l,c
  1038   000706  6ADA               	clrf	fsr2h,c
  1039   000708  50DF               	movf	indf2,w,c
  1040   00070A  ECC7  F00F         	call	_lcd_data
  1041   00070E                     
  1042                           ;APP/app.c: 62:         }
  1043   00070E  4A4F               	infsnz	_i^0,f,c
  1044   000710  2A50               	incf	(_i+1)^0,f,c
  1045   000712                     l3780:
  1046   000712  504F               	movf	_i^0,w,c
  1047   000714  0FE2               	addlw	low _unlock_msg
  1048   000716  6ED9               	movwf	fsr2l,c
  1049   000718  6ADA               	clrf	fsr2h,c
  1050   00071A  50DF               	movf	indf2,w,c
  1051   00071C  A4D8               	btfss	status,2,c
  1052   00071E  EF93  F003         	goto	u3521
  1053   000722  EF95  F003         	goto	u3520
  1054   000726                     u3521:
  1055   000726  EF80  F003         	goto	l3776
  1056   00072A                     u3520:
  1057   00072A                     
  1058                           ;APP/app.c: 63:         delay(200);
  1059   00072A  0E00               	movlw	0
  1060   00072C  6E02               	movwf	(delay@a+1)^0,c
  1061   00072E  0EC8               	movlw	200
  1062   000730  6E01               	movwf	delay@a^0,c
  1063   000732  EC06  F00F         	call	_delay	;wreg free
  1064   000736                     
  1065                           ;APP/app.c: 64:         for(i=0;lock_msg[i]!='\0';i++)
  1066   000736  0E00               	movlw	0
  1067   000738  6E50               	movwf	(_i+1)^0,c
  1068   00073A  0E00               	movlw	0
  1069   00073C  6E4F               	movwf	_i^0,c
  1070   00073E  EFAA  F003         	goto	l3790
  1071   000742                     l3786:
  1072                           
  1073                           ;APP/app.c: 65:         {;APP/app.c: 66:             lcd_data(lock_msg[i]);
  1074   000742  504F               	movf	_i^0,w,c
  1075   000744  0F31               	addlw	low _lock_msg
  1076   000746  6ED9               	movwf	fsr2l,c
  1077   000748  6ADA               	clrf	fsr2h,c
  1078   00074A  50DF               	movf	indf2,w,c
  1079   00074C  ECC7  F00F         	call	_lcd_data
  1080   000750                     
  1081                           ;APP/app.c: 67:         }
  1082   000750  4A4F               	infsnz	_i^0,f,c
  1083   000752  2A50               	incf	(_i+1)^0,f,c
  1084   000754                     l3790:
  1085   000754  504F               	movf	_i^0,w,c
  1086   000756  0F31               	addlw	low _lock_msg
  1087   000758  6ED9               	movwf	fsr2l,c
  1088   00075A  6ADA               	clrf	fsr2h,c
  1089   00075C  50DF               	movf	indf2,w,c
  1090   00075E  A4D8               	btfss	status,2,c
  1091   000760  EFB4  F003         	goto	u3531
  1092   000764  EFB6  F003         	goto	u3530
  1093   000768                     u3531:
  1094   000768  EFA1  F003         	goto	l3786
  1095   00076C                     u3530:
  1096   00076C                     
  1097                           ;APP/app.c: 68:          for(i=0;i<1;i++)
  1098   00076C  0E00               	movlw	0
  1099   00076E  6E50               	movwf	(_i+1)^0,c
  1100   000770  0E00               	movlw	0
  1101   000772  6E4F               	movwf	_i^0,c
  1102   000774                     l3794:
  1103   000774  BE50               	btfsc	(_i+1)^0,7,c
  1104   000776  EFC5  F003         	goto	u3541
  1105   00077A  5050               	movf	(_i+1)^0,w,c
  1106   00077C  E108               	bnz	u3540
  1107   00077E  044F               	decf	_i^0,w,c
  1108   000780  A0D8               	btfss	status,0,c
  1109   000782  EFC5  F003         	goto	u3541
  1110   000786  EFC7  F003         	goto	u3540
  1111   00078A                     u3541:
  1112   00078A  EFC9  F003         	goto	l121
  1113   00078E                     u3540:
  1114   00078E  EF64  F005         	goto	l3932
  1115   000792                     l121:
  1116                           
  1117                           ;APP/app.c: 69:            {;APP/app.c: 70:              PORTBbits.RB0=PORTBbits.RB1=POR
      +                          TBbits.RB2=PORTBbits.RB3=0;
  1118   000792  9681               	bcf	129,3,c	;volatile
  1119   000794  9481               	bcf	129,2,c	;volatile
  1120   000796  9281               	bcf	129,1,c	;volatile
  1121   000798  9081               	bcf	129,0,c	;volatile
  1122   00079A                     l123:
  1123   00079A  A881               	btfss	129,4,c	;volatile
  1124   00079C  EFD2  F003         	goto	u3551
  1125   0007A0  EFD4  F003         	goto	u3550
  1126   0007A4                     u3551:
  1127   0007A4  EFE9  F003         	goto	l127
  1128   0007A8                     u3550:
  1129   0007A8  AA81               	btfss	129,5,c	;volatile
  1130   0007AA  EFD9  F003         	goto	u3561
  1131   0007AE  EFDB  F003         	goto	u3560
  1132   0007B2                     u3561:
  1133   0007B2  EFE9  F003         	goto	l127
  1134   0007B6                     u3560:
  1135   0007B6  AC81               	btfss	129,6,c	;volatile
  1136   0007B8  EFE0  F003         	goto	u3571
  1137   0007BC  EFE2  F003         	goto	u3570
  1138   0007C0                     u3571:
  1139   0007C0  EFE9  F003         	goto	l127
  1140   0007C4                     u3570:
  1141   0007C4  BE81               	btfsc	129,7,c	;volatile
  1142   0007C6  EFE7  F003         	goto	u3581
  1143   0007CA  EFE9  F003         	goto	u3580
  1144   0007CE                     u3581:
  1145   0007CE  EFCD  F003         	goto	l123
  1146   0007D2                     u3580:
  1147   0007D2                     l127:
  1148                           
  1149                           ;APP/app.c: 72:              if(PORTBbits.RB4==0)
  1150   0007D2  B881               	btfsc	129,4,c	;volatile
  1151   0007D4  EFEE  F003         	goto	u3591
  1152   0007D8  EFF0  F003         	goto	u3590
  1153   0007DC                     u3591:
  1154   0007DC  EFF2  F003         	goto	l3806
  1155   0007E0                     u3590:
  1156   0007E0                     
  1157                           ;APP/app.c: 73:              {;APP/app.c: 74:                  col1();
  1158   0007E0  EC6C  F00A         	call	_col1	;wreg free
  1159   0007E4                     l3806:
  1160                           
  1161                           ;APP/app.c: 76:              if(PORTBbits.RB5==0)
  1162   0007E4  BA81               	btfsc	129,5,c	;volatile
  1163   0007E6  EFF7  F003         	goto	u3601
  1164   0007EA  EFF9  F003         	goto	u3600
  1165   0007EE                     u3601:
  1166   0007EE  EFFB  F003         	goto	l3810
  1167   0007F2                     u3600:
  1168   0007F2                     
  1169                           ;APP/app.c: 77:              {;APP/app.c: 78:                  col2();
  1170   0007F2  EC01  F00A         	call	_col2	;wreg free
  1171   0007F6                     l3810:
  1172                           
  1173                           ;APP/app.c: 80:              if(PORTBbits.RB6==0)
  1174   0007F6  BC81               	btfsc	129,6,c	;volatile
  1175   0007F8  EF00  F004         	goto	u3611
  1176   0007FC  EF02  F004         	goto	u3610
  1177   000800                     u3611:
  1178   000800  EF04  F004         	goto	l3814
  1179   000804                     u3610:
  1180   000804                     
  1181                           ;APP/app.c: 81:              {;APP/app.c: 82:                  col3();
  1182   000804  EC96  F009         	call	_col3	;wreg free
  1183   000808                     l3814:
  1184                           
  1185                           ;APP/app.c: 84:           }
  1186   000808  4A4F               	infsnz	_i^0,f,c
  1187   00080A  2A50               	incf	(_i+1)^0,f,c
  1188   00080C  EFBA  F003         	goto	l3794
  1189   000810                     l3818:
  1190                           
  1191                           ;APP/app.c: 88:                 lcd_reset();
  1192   000810  ECB6  F010         	call	_lcd_reset	;wreg free
  1193   000814                     
  1194                           ;APP/app.c: 89:                 sprintf(admin_password,"%c%c%c%c",admin_passcode[0],admi
      +                          n_passcode[1],admin_passcode[2],admin_passcode[3]);
  1195   000814  0E55               	movlw	low _admin_password
  1196   000816  6E11               	movwf	sprintf@s^0,c
  1197   000818  0E01               	movlw	low STR_1
  1198   00081A  6E12               	movwf	sprintf@fmt^0,c
  1199   00081C  C040  F013         	movff	_admin_passcode,?_sprintf+2
  1200   000820  6A14               	clrf	(?_sprintf+3)^0,c
  1201   000822  C041  F015         	movff	_admin_passcode+1,?_sprintf+4
  1202   000826  6A16               	clrf	(?_sprintf+5)^0,c
  1203   000828  C042  F017         	movff	_admin_passcode+2,?_sprintf+6
  1204   00082C  6A18               	clrf	(?_sprintf+7)^0,c
  1205   00082E  C043  F019         	movff	_admin_passcode+3,?_sprintf+8
  1206   000832  6A1A               	clrf	(?_sprintf+9)^0,c
  1207   000834  EC25  F010         	call	_sprintf	;wreg free
  1208   000838                     
  1209                           ;APP/app.c: 90:                      if(admin_validation(admin_password)!=((void*)0))
  1210   000838  0E55               	movlw	low _admin_password
  1211   00083A  6E0E               	movwf	admin_validation@adminP^0,c
  1212   00083C  EC00  F008         	call	_admin_validation	;wreg free
  1213   000840  500E               	movf	?_admin_validation^0,w,c
  1214   000842  100F               	iorwf	(?_admin_validation+1)^0,w,c
  1215   000844  B4D8               	btfsc	status,2,c
  1216   000846  EF27  F004         	goto	u3621
  1217   00084A  EF29  F004         	goto	u3620
  1218   00084E                     u3621:
  1219   00084E  EFF1  F004         	goto	l3886
  1220   000852                     u3620:
  1221   000852                     
  1222                           ;APP/app.c: 91:                      {;APP/app.c: 92:                         lcd_reset(
      +                          );
  1223   000852  ECB6  F010         	call	_lcd_reset	;wreg free
  1224   000856                     
  1225                           ;APP/app.c: 94:                         sprintf(old_user_password,"%c%c%c%c",set_user_pa
      +                          sscode[0],set_user_passcode[1],set_user_passcode[2],set_user_passcode[3]);
  1226   000856  0E59               	movlw	low _old_user_password
  1227   000858  6E11               	movwf	sprintf@s^0,c
  1228   00085A  0E01               	movlw	low STR_1
  1229   00085C  6E12               	movwf	sprintf@fmt^0,c
  1230   00085E  C038  F013         	movff	_set_user_passcode,?_sprintf+2
  1231   000862  6A14               	clrf	(?_sprintf+3)^0,c
  1232   000864  C039  F015         	movff	_set_user_passcode+1,?_sprintf+4
  1233   000868  6A16               	clrf	(?_sprintf+5)^0,c
  1234   00086A  C03A  F017         	movff	_set_user_passcode+2,?_sprintf+6
  1235   00086E  6A18               	clrf	(?_sprintf+7)^0,c
  1236   000870  C03B  F019         	movff	_set_user_passcode+3,?_sprintf+8
  1237   000874  6A1A               	clrf	(?_sprintf+9)^0,c
  1238   000876  EC25  F010         	call	_sprintf	;wreg free
  1239   00087A                     
  1240                           ;APP/app.c: 95:                         if(user_validation())
  1241   00087A  EC76  F007         	call	_user_validation	;wreg free
  1242   00087E  500E               	movf	?_user_validation^0,w,c
  1243   000880  100F               	iorwf	(?_user_validation+1)^0,w,c
  1244   000882  B4D8               	btfsc	status,2,c
  1245   000884  EF46  F004         	goto	u3631
  1246   000888  EF48  F004         	goto	u3630
  1247   00088C                     u3631:
  1248   00088C  EFD2  F004         	goto	l3874
  1249   000890                     u3630:
  1250   000890                     
  1251                           ;APP/app.c: 96:                         {;APP/app.c: 97:                              lc
      +                          d_reset();
  1252   000890  ECB6  F010         	call	_lcd_reset	;wreg free
  1253   000894                     
  1254                           ;APP/app.c: 98:                              for(i=0;password_match[i]!='\0';i++)
  1255   000894  0E00               	movlw	0
  1256   000896  6E50               	movwf	(_i+1)^0,c
  1257   000898  0E00               	movlw	0
  1258   00089A  6E4F               	movwf	_i^0,c
  1259   00089C  EF5B  F004         	goto	l3838
  1260   0008A0                     l3834:
  1261                           
  1262                           ;APP/app.c: 99:                              {;APP/app.c: 100:                          
      +                                 lcd_data(password_match[i]);
  1263   0008A0  0E31               	movlw	low _password_match
  1264   0008A2  244F               	addwf	_i^0,w,c
  1265   0008A4  6ED9               	movwf	fsr2l,c
  1266   0008A6  0E01               	movlw	high _password_match
  1267   0008A8  2050               	addwfc	(_i+1)^0,w,c
  1268   0008AA  6EDA               	movwf	fsr2h,c
  1269   0008AC  50DF               	movf	indf2,w,c
  1270   0008AE  ECC7  F00F         	call	_lcd_data
  1271   0008B2                     
  1272                           ;APP/app.c: 101:                              }
  1273   0008B2  4A4F               	infsnz	_i^0,f,c
  1274   0008B4  2A50               	incf	(_i+1)^0,f,c
  1275   0008B6                     l3838:
  1276   0008B6  0E31               	movlw	low _password_match
  1277   0008B8  244F               	addwf	_i^0,w,c
  1278   0008BA  6ED9               	movwf	fsr2l,c
  1279   0008BC  0E01               	movlw	high _password_match
  1280   0008BE  2050               	addwfc	(_i+1)^0,w,c
  1281   0008C0  6EDA               	movwf	fsr2h,c
  1282   0008C2  50DF               	movf	indf2,w,c
  1283   0008C4  A4D8               	btfss	status,2,c
  1284   0008C6  EF67  F004         	goto	u3641
  1285   0008CA  EF69  F004         	goto	u3640
  1286   0008CE                     u3641:
  1287   0008CE  EF50  F004         	goto	l3834
  1288   0008D2                     u3640:
  1289   0008D2                     
  1290                           ;APP/app.c: 102:                         delay(200);
  1291   0008D2  0E00               	movlw	0
  1292   0008D4  6E02               	movwf	(delay@a+1)^0,c
  1293   0008D6  0EC8               	movlw	200
  1294   0008D8  6E01               	movwf	delay@a^0,c
  1295   0008DA  EC06  F00F         	call	_delay	;wreg free
  1296                           
  1297                           ;APP/app.c: 103:                         lcd_reset();
  1298   0008DE  ECB6  F010         	call	_lcd_reset	;wreg free
  1299   0008E2                     
  1300                           ;APP/app.c: 104:                         set_user_password();
  1301   0008E2  ECE7  F006         	call	_set_user_password	;wreg free
  1302   0008E6                     
  1303                           ;APP/app.c: 105:                         set_user_passcode[0] = read_from_eeprom(address
      +                          +4);
  1304   0008E6  0E04               	movlw	4
  1305   0008E8  EC08  F010         	call	_read_from_eeprom
  1306   0008EC  6E38               	movwf	_set_user_passcode^0,c
  1307   0008EE                     
  1308                           ;APP/app.c: 106:                         set_user_passcode[1] = read_from_eeprom(address
      +                          +5);
  1309   0008EE  0E05               	movlw	5
  1310   0008F0  EC08  F010         	call	_read_from_eeprom
  1311   0008F4  6E39               	movwf	(_set_user_passcode+1)^0,c
  1312   0008F6                     
  1313                           ;APP/app.c: 107:                         set_user_passcode[2] = read_from_eeprom(address
      +                          +6);
  1314   0008F6  0E06               	movlw	6
  1315   0008F8  EC08  F010         	call	_read_from_eeprom
  1316   0008FC  6E3A               	movwf	(_set_user_passcode+2)^0,c
  1317   0008FE                     
  1318                           ;APP/app.c: 108:                         set_user_passcode[3] = read_from_eeprom(address
      +                          +7);
  1319   0008FE  0E07               	movlw	7
  1320   000900  EC08  F010         	call	_read_from_eeprom
  1321   000904  6E3B               	movwf	(_set_user_passcode+3)^0,c
  1322   000906                     
  1323                           ;APP/app.c: 109:                         lcd_reset();
  1324   000906  ECB6  F010         	call	_lcd_reset	;wreg free
  1325   00090A                     
  1326                           ;APP/app.c: 110:                             for(i=0;new_pass_set_msg1[i]!='\0';i++)
  1327   00090A  0E00               	movlw	0
  1328   00090C  6E50               	movwf	(_i+1)^0,c
  1329   00090E  0E00               	movlw	0
  1330   000910  6E4F               	movwf	_i^0,c
  1331   000912  EF94  F004         	goto	l3860
  1332   000916                     l3856:
  1333                           
  1334                           ;APP/app.c: 111:                             {;APP/app.c: 112:                          
      +                                 lcd_data(new_pass_set_msg1[i]);
  1335   000916  504F               	movf	_i^0,w,c
  1336   000918  0FC8               	addlw	low _new_pass_set_msg1
  1337   00091A  6ED9               	movwf	fsr2l,c
  1338   00091C  6ADA               	clrf	fsr2h,c
  1339   00091E  50DF               	movf	indf2,w,c
  1340   000920  ECC7  F00F         	call	_lcd_data
  1341   000924                     
  1342                           ;APP/app.c: 113:                             }
  1343   000924  4A4F               	infsnz	_i^0,f,c
  1344   000926  2A50               	incf	(_i+1)^0,f,c
  1345   000928                     l3860:
  1346   000928  504F               	movf	_i^0,w,c
  1347   00092A  0FC8               	addlw	low _new_pass_set_msg1
  1348   00092C  6ED9               	movwf	fsr2l,c
  1349   00092E  6ADA               	clrf	fsr2h,c
  1350   000930  50DF               	movf	indf2,w,c
  1351   000932  A4D8               	btfss	status,2,c
  1352   000934  EF9E  F004         	goto	u3651
  1353   000938  EFA0  F004         	goto	u3650
  1354   00093C                     u3651:
  1355   00093C  EF8B  F004         	goto	l3856
  1356   000940                     u3650:
  1357   000940                     
  1358                           ;APP/app.c: 114:                         delay(200);
  1359   000940  0E00               	movlw	0
  1360   000942  6E02               	movwf	(delay@a+1)^0,c
  1361   000944  0EC8               	movlw	200
  1362   000946  6E01               	movwf	delay@a^0,c
  1363   000948  EC06  F00F         	call	_delay	;wreg free
  1364                           
  1365                           ;APP/app.c: 115:                         lcd_cmd(0xc0);
  1366   00094C  0EC0               	movlw	192
  1367   00094E  ECA5  F00F         	call	_lcd_cmd
  1368   000952                     
  1369                           ;APP/app.c: 116:                             for(i=0;new_pass_set_msg2[i]!='\0';i++)
  1370   000952  0E00               	movlw	0
  1371   000954  6E50               	movwf	(_i+1)^0,c
  1372   000956  0E00               	movlw	0
  1373   000958  6E4F               	movwf	_i^0,c
  1374   00095A  EFBA  F004         	goto	l3870
  1375   00095E                     l3866:
  1376                           
  1377                           ;APP/app.c: 117:                             {;APP/app.c: 118:                          
      +                                 lcd_data(new_pass_set_msg2[i]);
  1378   00095E  0E20               	movlw	low _new_pass_set_msg2
  1379   000960  244F               	addwf	_i^0,w,c
  1380   000962  6ED9               	movwf	fsr2l,c
  1381   000964  0E01               	movlw	high _new_pass_set_msg2
  1382   000966  2050               	addwfc	(_i+1)^0,w,c
  1383   000968  6EDA               	movwf	fsr2h,c
  1384   00096A  50DF               	movf	indf2,w,c
  1385   00096C  ECC7  F00F         	call	_lcd_data
  1386   000970                     
  1387                           ;APP/app.c: 119:                             }
  1388   000970  4A4F               	infsnz	_i^0,f,c
  1389   000972  2A50               	incf	(_i+1)^0,f,c
  1390   000974                     l3870:
  1391   000974  0E20               	movlw	low _new_pass_set_msg2
  1392   000976  244F               	addwf	_i^0,w,c
  1393   000978  6ED9               	movwf	fsr2l,c
  1394   00097A  0E01               	movlw	high _new_pass_set_msg2
  1395   00097C  2050               	addwfc	(_i+1)^0,w,c
  1396   00097E  6EDA               	movwf	fsr2h,c
  1397   000980  50DF               	movf	indf2,w,c
  1398   000982  A4D8               	btfss	status,2,c
  1399   000984  EFC6  F004         	goto	u3661
  1400   000988  EFC8  F004         	goto	u3660
  1401   00098C                     u3661:
  1402   00098C  EFAF  F004         	goto	l3866
  1403   000990                     u3660:
  1404   000990                     l3872:
  1405                           
  1406                           ;APP/app.c: 120:                         delay(200);
  1407   000990  0E00               	movlw	0
  1408   000992  6E02               	movwf	(delay@a+1)^0,c
  1409   000994  0EC8               	movlw	200
  1410   000996  6E01               	movwf	delay@a^0,c
  1411   000998  EC06  F00F         	call	_delay	;wreg free
  1412                           
  1413                           ;APP/app.c: 121:                         lcd_reset();
  1414   00099C  ECB6  F010         	call	_lcd_reset	;wreg free
  1415                           
  1416                           ;APP/app.c: 122:                         }
  1417   0009A0  EF46  F003         	goto	l3758
  1418   0009A4                     l3874:
  1419                           
  1420                           ;APP/app.c: 124:                         {;APP/app.c: 125:                              
      +                          lcd_reset();
  1421   0009A4  ECB6  F010         	call	_lcd_reset	;wreg free
  1422   0009A8                     
  1423                           ;APP/app.c: 126:                              for(i=0;password_not_match[i]!='\0';i++)
  1424   0009A8  0E00               	movlw	0
  1425   0009AA  6E50               	movwf	(_i+1)^0,c
  1426   0009AC  0E00               	movlw	0
  1427   0009AE  6E4F               	movwf	_i^0,c
  1428   0009B0  EFE3  F004         	goto	l3882
  1429   0009B4                     l3878:
  1430                           
  1431                           ;APP/app.c: 127:                              {;APP/app.c: 128:                         
      +                                  lcd_data(password_not_match[i]);
  1432   0009B4  504F               	movf	_i^0,w,c
  1433   0009B6  0F60               	addlw	low _password_not_match
  1434   0009B8  6ED9               	movwf	fsr2l,c
  1435   0009BA  6ADA               	clrf	fsr2h,c
  1436   0009BC  50DF               	movf	indf2,w,c
  1437   0009BE  ECC7  F00F         	call	_lcd_data
  1438   0009C2                     
  1439                           ;APP/app.c: 129:                              }
  1440   0009C2  4A4F               	infsnz	_i^0,f,c
  1441   0009C4  2A50               	incf	(_i+1)^0,f,c
  1442   0009C6                     l3882:
  1443   0009C6  504F               	movf	_i^0,w,c
  1444   0009C8  0F60               	addlw	low _password_not_match
  1445   0009CA  6ED9               	movwf	fsr2l,c
  1446   0009CC  6ADA               	clrf	fsr2h,c
  1447   0009CE  50DF               	movf	indf2,w,c
  1448   0009D0  A4D8               	btfss	status,2,c
  1449   0009D2  EFED  F004         	goto	u3671
  1450   0009D6  EFEF  F004         	goto	u3670
  1451   0009DA                     u3671:
  1452   0009DA  EFDA  F004         	goto	l3878
  1453   0009DE                     u3670:
  1454   0009DE  EFC8  F004         	goto	l3872
  1455   0009E2                     l3886:
  1456                           
  1457                           ;APP/app.c: 135:                     {;APP/app.c: 136:                         lcd_reset
      +                          ();
  1458   0009E2  ECB6  F010         	call	_lcd_reset	;wreg free
  1459   0009E6                     
  1460                           ;APP/app.c: 137:                         for(i=0;password_not_match[i]!='\0';i++)
  1461   0009E6  0E00               	movlw	0
  1462   0009E8  6E50               	movwf	(_i+1)^0,c
  1463   0009EA  0E00               	movlw	0
  1464   0009EC  6E4F               	movwf	_i^0,c
  1465   0009EE  EF02  F005         	goto	l3894
  1466   0009F2                     l3890:
  1467                           
  1468                           ;APP/app.c: 138:                         {;APP/app.c: 139:                              
      +                          lcd_data(password_not_match[i]);
  1469   0009F2  504F               	movf	_i^0,w,c
  1470   0009F4  0F60               	addlw	low _password_not_match
  1471   0009F6  6ED9               	movwf	fsr2l,c
  1472   0009F8  6ADA               	clrf	fsr2h,c
  1473   0009FA  50DF               	movf	indf2,w,c
  1474   0009FC  ECC7  F00F         	call	_lcd_data
  1475   000A00                     
  1476                           ;APP/app.c: 140:                         }
  1477   000A00  4A4F               	infsnz	_i^0,f,c
  1478   000A02  2A50               	incf	(_i+1)^0,f,c
  1479   000A04                     l3894:
  1480   000A04  504F               	movf	_i^0,w,c
  1481   000A06  0F60               	addlw	low _password_not_match
  1482   000A08  6ED9               	movwf	fsr2l,c
  1483   000A0A  6ADA               	clrf	fsr2h,c
  1484   000A0C  50DF               	movf	indf2,w,c
  1485   000A0E  A4D8               	btfss	status,2,c
  1486   000A10  EF0C  F005         	goto	u3681
  1487   000A14  EF0E  F005         	goto	u3680
  1488   000A18                     u3681:
  1489   000A18  EFF9  F004         	goto	l3890
  1490   000A1C                     u3680:
  1491   000A1C  EFC8  F004         	goto	l3872
  1492   000A20                     l3898:
  1493                           
  1494                           ;APP/app.c: 146:                 lcd_reset();
  1495   000A20  ECB6  F010         	call	_lcd_reset	;wreg free
  1496   000A24                     
  1497                           ;APP/app.c: 147:                 set_user_passcode[0] = read_from_eeprom(address+4);
  1498   000A24  0E04               	movlw	4
  1499   000A26  EC08  F010         	call	_read_from_eeprom
  1500   000A2A  6E38               	movwf	_set_user_passcode^0,c
  1501   000A2C                     
  1502                           ;APP/app.c: 148:                 set_user_passcode[1] = read_from_eeprom(address+5);
  1503   000A2C  0E05               	movlw	5
  1504   000A2E  EC08  F010         	call	_read_from_eeprom
  1505   000A32  6E39               	movwf	(_set_user_passcode+1)^0,c
  1506   000A34                     
  1507                           ;APP/app.c: 149:                 set_user_passcode[2] = read_from_eeprom(address+6);
  1508   000A34  0E06               	movlw	6
  1509   000A36  EC08  F010         	call	_read_from_eeprom
  1510   000A3A  6E3A               	movwf	(_set_user_passcode+2)^0,c
  1511   000A3C                     
  1512                           ;APP/app.c: 150:                 set_user_passcode[3] = read_from_eeprom(address+7);
  1513   000A3C  0E07               	movlw	7
  1514   000A3E  EC08  F010         	call	_read_from_eeprom
  1515   000A42  6E3B               	movwf	(_set_user_passcode+3)^0,c
  1516   000A44                     
  1517                           ;APP/app.c: 151:                 sprintf(old_user_password,"%c%c%c%c",set_user_passcode[
      +                          0],set_user_passcode[1],set_user_passcode[2],set_user_passcode[3]);
  1518   000A44  0E59               	movlw	low _old_user_password
  1519   000A46  6E11               	movwf	sprintf@s^0,c
  1520   000A48  0E01               	movlw	low STR_1
  1521   000A4A  6E12               	movwf	sprintf@fmt^0,c
  1522   000A4C  C038  F013         	movff	_set_user_passcode,?_sprintf+2
  1523   000A50  6A14               	clrf	(?_sprintf+3)^0,c
  1524   000A52  C039  F015         	movff	_set_user_passcode+1,?_sprintf+4
  1525   000A56  6A16               	clrf	(?_sprintf+5)^0,c
  1526   000A58  C03A  F017         	movff	_set_user_passcode+2,?_sprintf+6
  1527   000A5C  6A18               	clrf	(?_sprintf+7)^0,c
  1528   000A5E  C03B  F019         	movff	_set_user_passcode+3,?_sprintf+8
  1529   000A62  6A1A               	clrf	(?_sprintf+9)^0,c
  1530   000A64  EC25  F010         	call	_sprintf	;wreg free
  1531   000A68                     
  1532                           ;APP/app.c: 152:                 c = '1';
  1533   000A68  0E31               	movlw	49
  1534   000A6A  6E53               	movwf	_c^0,c
  1535   000A6C                     
  1536                           ;APP/app.c: 153:                 unlock_door();
  1537   000A6C  EC8A  F008         	call	_unlock_door	;wreg free
  1538                           
  1539                           ;APP/app.c: 154:                 break;
  1540   000A70  EF46  F003         	goto	l3758
  1541   000A74                     l3914:
  1542                           
  1543                           ;APP/app.c: 156:                 lcd_reset();
  1544   000A74  ECB6  F010         	call	_lcd_reset	;wreg free
  1545   000A78                     
  1546                           ;APP/app.c: 157:                 set_user_passcode[0] = read_from_eeprom(address+4);
  1547   000A78  0E04               	movlw	4
  1548   000A7A  EC08  F010         	call	_read_from_eeprom
  1549   000A7E  6E38               	movwf	_set_user_passcode^0,c
  1550   000A80                     
  1551                           ;APP/app.c: 158:                 set_user_passcode[1] = read_from_eeprom(address+5);
  1552   000A80  0E05               	movlw	5
  1553   000A82  EC08  F010         	call	_read_from_eeprom
  1554   000A86  6E39               	movwf	(_set_user_passcode+1)^0,c
  1555   000A88                     
  1556                           ;APP/app.c: 159:                 set_user_passcode[2] = read_from_eeprom(address+6);
  1557   000A88  0E06               	movlw	6
  1558   000A8A  EC08  F010         	call	_read_from_eeprom
  1559   000A8E  6E3A               	movwf	(_set_user_passcode+2)^0,c
  1560   000A90                     
  1561                           ;APP/app.c: 160:                 set_user_passcode[3] = read_from_eeprom(address+7);
  1562   000A90  0E07               	movlw	7
  1563   000A92  EC08  F010         	call	_read_from_eeprom
  1564   000A96  6E3B               	movwf	(_set_user_passcode+3)^0,c
  1565   000A98                     
  1566                           ;APP/app.c: 161:                 sprintf(old_user_password,"%c%c%c%c",set_user_passcode[
      +                          0],set_user_passcode[1],set_user_passcode[2],set_user_passcode[3]);
  1567   000A98  0E59               	movlw	low _old_user_password
  1568   000A9A  6E11               	movwf	sprintf@s^0,c
  1569   000A9C  0E01               	movlw	low STR_1
  1570   000A9E  6E12               	movwf	sprintf@fmt^0,c
  1571   000AA0  C038  F013         	movff	_set_user_passcode,?_sprintf+2
  1572   000AA4  6A14               	clrf	(?_sprintf+3)^0,c
  1573   000AA6  C039  F015         	movff	_set_user_passcode+1,?_sprintf+4
  1574   000AAA  6A16               	clrf	(?_sprintf+5)^0,c
  1575   000AAC  C03A  F017         	movff	_set_user_passcode+2,?_sprintf+6
  1576   000AB0  6A18               	clrf	(?_sprintf+7)^0,c
  1577   000AB2  C03B  F019         	movff	_set_user_passcode+3,?_sprintf+8
  1578   000AB6  6A1A               	clrf	(?_sprintf+9)^0,c
  1579   000AB8  EC25  F010         	call	_sprintf	;wreg free
  1580   000ABC                     
  1581                           ;APP/app.c: 162:                 c = '2';
  1582   000ABC  0E32               	movlw	50
  1583   000ABE  6E53               	movwf	_c^0,c
  1584   000AC0                     
  1585                           ;APP/app.c: 163:                 lock_door();
  1586   000AC0  EC10  F009         	call	_lock_door	;wreg free
  1587                           
  1588                           ;APP/app.c: 164:                 break;
  1589   000AC4  EF46  F003         	goto	l3758
  1590   000AC8                     l3932:
  1591   000AC8  5054               	movf	_ch^0,w,c
  1592                           
  1593                           ; Switch size 1, requested type "simple"
  1594                           ; Number of cases is 3, Range of values is 49 to 51
  1595                           ; switch strategies available:
  1596                           ; Name         Instructions Cycles
  1597                           ; simple_byte           10     6 (average)
  1598                           ;	Chosen strategy is simple_byte
  1599   000ACA  0A31               	xorlw	49	; case 49
  1600   000ACC  B4D8               	btfsc	status,2,c
  1601   000ACE  EF08  F004         	goto	l3818
  1602   000AD2  0A03               	xorlw	3	; case 50
  1603   000AD4  B4D8               	btfsc	status,2,c
  1604   000AD6  EF10  F005         	goto	l3898
  1605   000ADA  0A01               	xorlw	1	; case 51
  1606   000ADC  B4D8               	btfsc	status,2,c
  1607   000ADE  EF3A  F005         	goto	l3914
  1608   000AE2  EF46  F003         	goto	l3758
  1609   000AE6  0012               	return		;funcret
  1610   000AE8                     __end_of_runApp:
  1611                           	callstack 0
  1612                           
  1613 ;; *************** function _user_validation *****************
  1614 ;; Defined at:
  1615 ;;		line 202 in file "APP/app.c"
  1616 ;; Parameters:    Size  Location     Type
  1617 ;;		None
  1618 ;; Auto vars:     Size  Location     Type
  1619 ;;  p               3    0        PTR unsigned char 
  1620 ;;  q               2   15[COMRAM] PTR unsigned char 
  1621 ;;		 -> type_passcode(5), NULL(0), 
  1622 ;; Return value:  Size  Location     Type
  1623 ;;                  2   13[COMRAM] PTR unsigned char 
  1624 ;; Registers used:
  1625 ;;		wreg, fsr1l, fsr1h, fsr2l, fsr2h, status,2, status,0, cstack
  1626 ;; Tracked objects:
  1627 ;;		On entry : 0/0
  1628 ;;		On exit  : 0/0
  1629 ;;		Unchanged: 0/0
  1630 ;; Data sizes:     COMRAM   BANK0   BANK1   BANK2   BANK3   BANK4   BANK5
  1631 ;;      Params:         2       0       0       0       0       0       0
  1632 ;;      Locals:         2       0       0       0       0       0       0
  1633 ;;      Temps:          0       0       0       0       0       0       0
  1634 ;;      Totals:         4       0       0       0       0       0       0
  1635 ;;Total ram usage:        4 bytes
  1636 ;; Hardware stack levels used: 1
  1637 ;; Hardware stack levels required when called: 5
  1638 ;; This function calls:
  1639 ;;		_col1
  1640 ;;		_col2
  1641 ;;		_col3
  1642 ;;		_col4
  1643 ;;		_lcd_cmd
  1644 ;;		_lcd_data
  1645 ;;		_strstr
  1646 ;; This function is called by:
  1647 ;;		_runApp
  1648 ;; This function uses a non-reentrant model
  1649 ;;
  1650                           
  1651                           	psect	text2
  1652   000EEC                     __ptext2:
  1653                           	callstack 0
  1654   000EEC                     _user_validation:
  1655                           	callstack 24
  1656   000EEC                     
  1657                           ;APP/app.c: 204:         for(i=0;renter_old_password_msg[i]!='\0';i++)
  1658   000EEC  0E00               	movlw	0
  1659   000EEE  6E50               	movwf	(_i+1)^0,c
  1660   000EF0  0E00               	movlw	0
  1661   000EF2  6E4F               	movwf	_i^0,c
  1662   000EF4  EF85  F007         	goto	l3554
  1663   000EF8                     l3550:
  1664                           
  1665                           ;APP/app.c: 205:          {;APP/app.c: 206:               lcd_data(renter_old_password_m
      +                          sg[i]);
  1666   000EF8  504F               	movf	_i^0,w,c
  1667   000EFA  0F7E               	addlw	low _renter_old_password_msg
  1668   000EFC  6ED9               	movwf	fsr2l,c
  1669   000EFE  6ADA               	clrf	fsr2h,c
  1670   000F00  50DF               	movf	indf2,w,c
  1671   000F02  ECC7  F00F         	call	_lcd_data
  1672   000F06                     
  1673                           ;APP/app.c: 207:          }
  1674   000F06  4A4F               	infsnz	_i^0,f,c
  1675   000F08  2A50               	incf	(_i+1)^0,f,c
  1676   000F0A                     l3554:
  1677   000F0A  504F               	movf	_i^0,w,c
  1678   000F0C  0F7E               	addlw	low _renter_old_password_msg
  1679   000F0E  6ED9               	movwf	fsr2l,c
  1680   000F10  6ADA               	clrf	fsr2h,c
  1681   000F12  50DF               	movf	indf2,w,c
  1682   000F14  A4D8               	btfss	status,2,c
  1683   000F16  EF8F  F007         	goto	u3111
  1684   000F1A  EF91  F007         	goto	u3110
  1685   000F1E                     u3111:
  1686   000F1E  EF7C  F007         	goto	l3550
  1687   000F22                     u3110:
  1688   000F22                     
  1689                           ;APP/app.c: 208:         lcd_cmd(0xc0);
  1690   000F22  0EC0               	movlw	192
  1691   000F24  ECA5  F00F         	call	_lcd_cmd
  1692   000F28                     
  1693                           ;APP/app.c: 209:         for(i=0;i<4;i++)
  1694   000F28  0E00               	movlw	0
  1695   000F2A  6E50               	movwf	(_i+1)^0,c
  1696   000F2C  0E00               	movlw	0
  1697   000F2E  6E4F               	movwf	_i^0,c
  1698   000F30                     l3560:
  1699   000F30  BE50               	btfsc	(_i+1)^0,7,c
  1700   000F32  EFA4  F007         	goto	u3121
  1701   000F36  5050               	movf	(_i+1)^0,w,c
  1702   000F38  E109               	bnz	u3120
  1703   000F3A  0E04               	movlw	4
  1704   000F3C  5C4F               	subwf	_i^0,w,c
  1705   000F3E  A0D8               	btfss	status,0,c
  1706   000F40  EFA4  F007         	goto	u3121
  1707   000F44  EFA6  F007         	goto	u3120
  1708   000F48                     u3121:
  1709   000F48  EFA8  F007         	goto	l180
  1710   000F4C                     u3120:
  1711   000F4C  EFF0  F007         	goto	l3588
  1712   000F50                     l180:
  1713                           
  1714                           ;APP/app.c: 210:          {;APP/app.c: 211:              PORTBbits.RB0=PORTBbits.RB1=POR
      +                          TBbits.RB2=PORTBbits.RB3=0;
  1715   000F50  9681               	bcf	129,3,c	;volatile
  1716   000F52  9481               	bcf	129,2,c	;volatile
  1717   000F54  9281               	bcf	129,1,c	;volatile
  1718   000F56  9081               	bcf	129,0,c	;volatile
  1719   000F58                     l182:
  1720   000F58  A881               	btfss	129,4,c	;volatile
  1721   000F5A  EFB1  F007         	goto	u3131
  1722   000F5E  EFB3  F007         	goto	u3130
  1723   000F62                     u3131:
  1724   000F62  EFC8  F007         	goto	l186
  1725   000F66                     u3130:
  1726   000F66  AA81               	btfss	129,5,c	;volatile
  1727   000F68  EFB8  F007         	goto	u3141
  1728   000F6C  EFBA  F007         	goto	u3140
  1729   000F70                     u3141:
  1730   000F70  EFC8  F007         	goto	l186
  1731   000F74                     u3140:
  1732   000F74  AC81               	btfss	129,6,c	;volatile
  1733   000F76  EFBF  F007         	goto	u3151
  1734   000F7A  EFC1  F007         	goto	u3150
  1735   000F7E                     u3151:
  1736   000F7E  EFC8  F007         	goto	l186
  1737   000F82                     u3150:
  1738   000F82  BE81               	btfsc	129,7,c	;volatile
  1739   000F84  EFC6  F007         	goto	u3161
  1740   000F88  EFC8  F007         	goto	u3160
  1741   000F8C                     u3161:
  1742   000F8C  EFAC  F007         	goto	l182
  1743   000F90                     u3160:
  1744   000F90                     l186:
  1745                           
  1746                           ;APP/app.c: 213:              if(PORTBbits.RB4==0)
  1747   000F90  B881               	btfsc	129,4,c	;volatile
  1748   000F92  EFCD  F007         	goto	u3171
  1749   000F96  EFCF  F007         	goto	u3170
  1750   000F9A                     u3171:
  1751   000F9A  EFD1  F007         	goto	l3572
  1752   000F9E                     u3170:
  1753   000F9E                     
  1754                           ;APP/app.c: 214:              {;APP/app.c: 215:                  col1();
  1755   000F9E  EC6C  F00A         	call	_col1	;wreg free
  1756   000FA2                     l3572:
  1757                           
  1758                           ;APP/app.c: 217:              if(PORTBbits.RB5==0)
  1759   000FA2  BA81               	btfsc	129,5,c	;volatile
  1760   000FA4  EFD6  F007         	goto	u3181
  1761   000FA8  EFD8  F007         	goto	u3180
  1762   000FAC                     u3181:
  1763   000FAC  EFDA  F007         	goto	l3576
  1764   000FB0                     u3180:
  1765   000FB0                     
  1766                           ;APP/app.c: 218:              {;APP/app.c: 219:                  col2();
  1767   000FB0  EC01  F00A         	call	_col2	;wreg free
  1768   000FB4                     l3576:
  1769                           
  1770                           ;APP/app.c: 221:              if(PORTBbits.RB6==0)
  1771   000FB4  BC81               	btfsc	129,6,c	;volatile
  1772   000FB6  EFDF  F007         	goto	u3191
  1773   000FBA  EFE1  F007         	goto	u3190
  1774   000FBE                     u3191:
  1775   000FBE  EFE3  F007         	goto	l3580
  1776   000FC2                     u3190:
  1777   000FC2                     
  1778                           ;APP/app.c: 222:              {;APP/app.c: 223:                  col3();
  1779   000FC2  EC96  F009         	call	_col3	;wreg free
  1780   000FC6                     l3580:
  1781                           
  1782                           ;APP/app.c: 225:              if(PORTBbits.RB7==0)
  1783   000FC6  BE81               	btfsc	129,7,c	;volatile
  1784   000FC8  EFE8  F007         	goto	u3201
  1785   000FCC  EFEA  F007         	goto	u3200
  1786   000FD0                     u3201:
  1787   000FD0  EFEC  F007         	goto	l3584
  1788   000FD4                     u3200:
  1789   000FD4                     
  1790                           ;APP/app.c: 226:              {;APP/app.c: 227:                  col4();
  1791   000FD4  EC7B  F00C         	call	_col4	;wreg free
  1792   000FD8                     l3584:
  1793                           
  1794                           ;APP/app.c: 229:           }
  1795   000FD8  4A4F               	infsnz	_i^0,f,c
  1796   000FDA  2A50               	incf	(_i+1)^0,f,c
  1797   000FDC  EF98  F007         	goto	l3560
  1798   000FE0                     l3588:
  1799                           
  1800                           ;APP/app.c: 231:       char *p,*q;;APP/app.c: 232:       q = strstr((char*)type_passcode
      +                          ,(char*)old_user_password);
  1801   000FE0  0E44               	movlw	low _type_passcode
  1802   000FE2  6E08               	movwf	strstr@h^0,c
  1803   000FE4  6A09               	clrf	(strstr@h+1)^0,c
  1804   000FE6  0E59               	movlw	low _old_user_password
  1805   000FE8  6E0A               	movwf	strstr@n^0,c
  1806   000FEA  EC41  F00D         	call	_strstr	;wreg free
  1807   000FEE  C008  F010         	movff	?_strstr,user_validation@q
  1808   000FF2  C009  F011         	movff	?_strstr+1,user_validation@q+1
  1809   000FF6                     
  1810                           ;APP/app.c: 233:       return q;
  1811   000FF6  C010  F00E         	movff	user_validation@q,?_user_validation
  1812   000FFA  C011  F00F         	movff	user_validation@q+1,?_user_validation+1
  1813   000FFE  0012               	return		;funcret
  1814   001000                     __end_of_user_validation:
  1815                           	callstack 0
  1816                           
  1817 ;; *************** function _unlock_door *****************
  1818 ;; Defined at:
  1819 ;;		line 237 in file "APP/app.c"
  1820 ;; Parameters:    Size  Location     Type
  1821 ;;		None
  1822 ;; Auto vars:     Size  Location     Type
  1823 ;;		None
  1824 ;; Return value:  Size  Location     Type
  1825 ;;                  1    wreg      void 
  1826 ;; Registers used:
  1827 ;;		wreg, fsr1l, fsr1h, fsr2l, fsr2h, status,2, status,0, cstack
  1828 ;; Tracked objects:
  1829 ;;		On entry : 0/0
  1830 ;;		On exit  : 0/0
  1831 ;;		Unchanged: 0/0
  1832 ;; Data sizes:     COMRAM   BANK0   BANK1   BANK2   BANK3   BANK4   BANK5
  1833 ;;      Params:         0       0       0       0       0       0       0
  1834 ;;      Locals:         0       0       0       0       0       0       0
  1835 ;;      Temps:          0       0       0       0       0       0       0
  1836 ;;      Totals:         0       0       0       0       0       0       0
  1837 ;;Total ram usage:        0 bytes
  1838 ;; Hardware stack levels used: 1
  1839 ;; Hardware stack levels required when called: 6
  1840 ;; This function calls:
  1841 ;;		_col1
  1842 ;;		_col2
  1843 ;;		_col3
  1844 ;;		_col4
  1845 ;;		_compare
  1846 ;;		_delay
  1847 ;;		_lcd_cmd
  1848 ;;		_lcd_data
  1849 ;;		_lcd_reset
  1850 ;; This function is called by:
  1851 ;;		_runApp
  1852 ;; This function uses a non-reentrant model
  1853 ;;
  1854                           
  1855                           	psect	text3
  1856   001114                     __ptext3:
  1857                           	callstack 0
  1858   001114                     _unlock_door:
  1859                           	callstack 23
  1860   001114                     
  1861                           ;APP/app.c: 239:         for(i=0;enter_pass_msg[i]!='\0';i++)
  1862   001114  0E00               	movlw	0
  1863   001116  6E50               	movwf	(_i+1)^0,c
  1864   001118  0E00               	movlw	0
  1865   00111A  6E4F               	movwf	_i^0,c
  1866   00111C  EF99  F008         	goto	l3642
  1867   001120                     l3638:
  1868                           
  1869                           ;APP/app.c: 240:          {;APP/app.c: 241:               lcd_data(enter_pass_msg[i]);
  1870   001120  504F               	movf	_i^0,w,c
  1871   001122  0F8D               	addlw	low _enter_pass_msg
  1872   001124  6ED9               	movwf	fsr2l,c
  1873   001126  6ADA               	clrf	fsr2h,c
  1874   001128  50DF               	movf	indf2,w,c
  1875   00112A  ECC7  F00F         	call	_lcd_data
  1876   00112E                     
  1877                           ;APP/app.c: 242:          }
  1878   00112E  4A4F               	infsnz	_i^0,f,c
  1879   001130  2A50               	incf	(_i+1)^0,f,c
  1880   001132                     l3642:
  1881   001132  504F               	movf	_i^0,w,c
  1882   001134  0F8D               	addlw	low _enter_pass_msg
  1883   001136  6ED9               	movwf	fsr2l,c
  1884   001138  6ADA               	clrf	fsr2h,c
  1885   00113A  50DF               	movf	indf2,w,c
  1886   00113C  A4D8               	btfss	status,2,c
  1887   00113E  EFA3  F008         	goto	u3311
  1888   001142  EFA5  F008         	goto	u3310
  1889   001146                     u3311:
  1890   001146  EF90  F008         	goto	l3638
  1891   00114A                     u3310:
  1892   00114A                     
  1893                           ;APP/app.c: 243:          lcd_cmd(0xc0);
  1894   00114A  0EC0               	movlw	192
  1895   00114C  ECA5  F00F         	call	_lcd_cmd
  1896   001150                     
  1897                           ;APP/app.c: 245:          for(i=0;i<4;i++)
  1898   001150  0E00               	movlw	0
  1899   001152  6E50               	movwf	(_i+1)^0,c
  1900   001154  0E00               	movlw	0
  1901   001156  6E4F               	movwf	_i^0,c
  1902   001158                     l3648:
  1903   001158  BE50               	btfsc	(_i+1)^0,7,c
  1904   00115A  EFB8  F008         	goto	u3321
  1905   00115E  5050               	movf	(_i+1)^0,w,c
  1906   001160  E109               	bnz	u3320
  1907   001162  0E04               	movlw	4
  1908   001164  5C4F               	subwf	_i^0,w,c
  1909   001166  A0D8               	btfss	status,0,c
  1910   001168  EFB8  F008         	goto	u3321
  1911   00116C  EFBA  F008         	goto	u3320
  1912   001170                     u3321:
  1913   001170  EFBC  F008         	goto	l197
  1914   001174                     u3320:
  1915   001174  EF04  F009         	goto	l3676
  1916   001178                     l197:
  1917                           
  1918                           ;APP/app.c: 246:          {;APP/app.c: 247:              PORTBbits.RB0=PORTBbits.RB1=POR
      +                          TBbits.RB2=PORTBbits.RB3=0;
  1919   001178  9681               	bcf	129,3,c	;volatile
  1920   00117A  9481               	bcf	129,2,c	;volatile
  1921   00117C  9281               	bcf	129,1,c	;volatile
  1922   00117E  9081               	bcf	129,0,c	;volatile
  1923   001180                     l199:
  1924   001180  A881               	btfss	129,4,c	;volatile
  1925   001182  EFC5  F008         	goto	u3331
  1926   001186  EFC7  F008         	goto	u3330
  1927   00118A                     u3331:
  1928   00118A  EFDC  F008         	goto	l203
  1929   00118E                     u3330:
  1930   00118E  AA81               	btfss	129,5,c	;volatile
  1931   001190  EFCC  F008         	goto	u3341
  1932   001194  EFCE  F008         	goto	u3340
  1933   001198                     u3341:
  1934   001198  EFDC  F008         	goto	l203
  1935   00119C                     u3340:
  1936   00119C  AC81               	btfss	129,6,c	;volatile
  1937   00119E  EFD3  F008         	goto	u3351
  1938   0011A2  EFD5  F008         	goto	u3350
  1939   0011A6                     u3351:
  1940   0011A6  EFDC  F008         	goto	l203
  1941   0011AA                     u3350:
  1942   0011AA  BE81               	btfsc	129,7,c	;volatile
  1943   0011AC  EFDA  F008         	goto	u3361
  1944   0011B0  EFDC  F008         	goto	u3360
  1945   0011B4                     u3361:
  1946   0011B4  EFC0  F008         	goto	l199
  1947   0011B8                     u3360:
  1948   0011B8                     l203:
  1949                           
  1950                           ;APP/app.c: 249:              if(PORTBbits.RB4==0)
  1951   0011B8  B881               	btfsc	129,4,c	;volatile
  1952   0011BA  EFE1  F008         	goto	u3371
  1953   0011BE  EFE3  F008         	goto	u3370
  1954   0011C2                     u3371:
  1955   0011C2  EFE5  F008         	goto	l3660
  1956   0011C6                     u3370:
  1957   0011C6                     
  1958                           ;APP/app.c: 250:              {;APP/app.c: 251:                  col1();
  1959   0011C6  EC6C  F00A         	call	_col1	;wreg free
  1960   0011CA                     l3660:
  1961                           
  1962                           ;APP/app.c: 253:              if(PORTBbits.RB5==0)
  1963   0011CA  BA81               	btfsc	129,5,c	;volatile
  1964   0011CC  EFEA  F008         	goto	u3381
  1965   0011D0  EFEC  F008         	goto	u3380
  1966   0011D4                     u3381:
  1967   0011D4  EFEE  F008         	goto	l3664
  1968   0011D8                     u3380:
  1969   0011D8                     
  1970                           ;APP/app.c: 254:              {;APP/app.c: 255:                  col2();
  1971   0011D8  EC01  F00A         	call	_col2	;wreg free
  1972   0011DC                     l3664:
  1973                           
  1974                           ;APP/app.c: 257:              if(PORTBbits.RB6==0)
  1975   0011DC  BC81               	btfsc	129,6,c	;volatile
  1976   0011DE  EFF3  F008         	goto	u3391
  1977   0011E2  EFF5  F008         	goto	u3390
  1978   0011E6                     u3391:
  1979   0011E6  EFF7  F008         	goto	l3668
  1980   0011EA                     u3390:
  1981   0011EA                     
  1982                           ;APP/app.c: 258:              {;APP/app.c: 259:                  col3();
  1983   0011EA  EC96  F009         	call	_col3	;wreg free
  1984   0011EE                     l3668:
  1985                           
  1986                           ;APP/app.c: 261:              if(PORTBbits.RB7==0)
  1987   0011EE  BE81               	btfsc	129,7,c	;volatile
  1988   0011F0  EFFC  F008         	goto	u3401
  1989   0011F4  EFFE  F008         	goto	u3400
  1990   0011F8                     u3401:
  1991   0011F8  EF00  F009         	goto	l3672
  1992   0011FC                     u3400:
  1993   0011FC                     
  1994                           ;APP/app.c: 262:              {;APP/app.c: 263:                  col4();
  1995   0011FC  EC7B  F00C         	call	_col4	;wreg free
  1996   001200                     l3672:
  1997                           
  1998                           ;APP/app.c: 265:           }
  1999   001200  4A4F               	infsnz	_i^0,f,c
  2000   001202  2A50               	incf	(_i+1)^0,f,c
  2001   001204  EFAC  F008         	goto	l3648
  2002   001208                     l3676:
  2003                           
  2004                           ;APP/app.c: 266:          compare(c);
  2005   001208  5053               	movf	_c^0,w,c
  2006   00120A  EC74  F005         	call	_compare
  2007   00120E                     
  2008                           ;APP/app.c: 267:          delay(2000);
  2009   00120E  0E07               	movlw	7
  2010   001210  6E02               	movwf	(delay@a+1)^0,c
  2011   001212  0ED0               	movlw	208
  2012   001214  6E01               	movwf	delay@a^0,c
  2013   001216  EC06  F00F         	call	_delay	;wreg free
  2014   00121A                     
  2015                           ;APP/app.c: 268:          lcd_reset();
  2016   00121A  ECB6  F010         	call	_lcd_reset	;wreg free
  2017   00121E  0012               	return		;funcret
  2018   001220                     __end_of_unlock_door:
  2019                           	callstack 0
  2020                           
  2021 ;; *************** function _sprintf *****************
  2022 ;; Defined at:
  2023 ;;		line 9 in file "C:\Program Files\Microchip\xc8\v2.46\pic\sources\c99\common\nf_sprintf.c"
  2024 ;; Parameters:    Size  Location     Type
  2025 ;;  s               1   16[COMRAM] PTR unsigned char 
  2026 ;;		 -> old_user_password(4), admin_password(4), 
  2027 ;;  fmt             1   17[COMRAM] PTR const unsigned char 
  2028 ;;		 -> STR_4(9), STR_3(9), STR_2(9), STR_1(9), 
  2029 ;; Auto vars:     Size  Location     Type
  2030 ;;  f              12   27[COMRAM] struct _IO_FILE
  2031 ;;  ret             2    0        int 
  2032 ;;  ap              1   26[COMRAM] PTR void [1]
  2033 ;;		 -> ?_sprintf(2), 
  2034 ;; Return value:  Size  Location     Type
  2035 ;;                  2   16[COMRAM] int 
  2036 ;; Registers used:
  2037 ;;		wreg, fsr1l, fsr1h, fsr2l, fsr2h, status,2, status,0, tblptrl, tblptrh, tblptru, cstack
  2038 ;; Tracked objects:
  2039 ;;		On entry : 0/0
  2040 ;;		On exit  : 0/0
  2041 ;;		Unchanged: 0/0
  2042 ;; Data sizes:     COMRAM   BANK0   BANK1   BANK2   BANK3   BANK4   BANK5
  2043 ;;      Params:        10       0       0       0       0       0       0
  2044 ;;      Locals:        13       0       0       0       0       0       0
  2045 ;;      Temps:          0       0       0       0       0       0       0
  2046 ;;      Totals:        23       0       0       0       0       0       0
  2047 ;;Total ram usage:       23 bytes
  2048 ;; Hardware stack levels used: 1
  2049 ;; Hardware stack levels required when called: 4
  2050 ;; This function calls:
  2051 ;;		_vfprintf
  2052 ;; This function is called by:
  2053 ;;		_runApp
  2054 ;; This function uses a non-reentrant model
  2055 ;;
  2056                           
  2057                           	psect	text4
  2058   00204A                     __ptext4:
  2059                           	callstack 0
  2060   00204A                     _sprintf:
  2061                           	callstack 25
  2062   00204A  0E13               	movlw	low (?_sprintf+2)
  2063   00204C  6E1B               	movwf	sprintf@ap^0,c
  2064   00204E  C011  F01C         	movff	sprintf@s,sprintf@f
  2065   002052  0E00               	movlw	0
  2066   002054  6E20               	movwf	(sprintf@f+4)^0,c
  2067   002056  0E00               	movlw	0
  2068   002058  6E1F               	movwf	(sprintf@f+3)^0,c
  2069   00205A  0E00               	movlw	0
  2070   00205C  6E27               	movwf	(sprintf@f+11)^0,c
  2071   00205E  0E00               	movlw	0
  2072   002060  6E26               	movwf	(sprintf@f+10)^0,c
  2073   002062  0E1C               	movlw	low sprintf@f
  2074   002064  6E0D               	movwf	vfprintf@fp^0,c
  2075   002066  C012  F00E         	movff	sprintf@fmt,vfprintf@fmt
  2076   00206A  0E1B               	movlw	low sprintf@ap
  2077   00206C  6E0F               	movwf	vfprintf@ap^0,c
  2078   00206E  ECE9  F00F         	call	_vfprintf	;wreg free
  2079   002072  5011               	movf	sprintf@s^0,w,c
  2080   002074  241F               	addwf	(sprintf@f+3)^0,w,c
  2081   002076  6ED9               	movwf	fsr2l,c
  2082   002078  6ADA               	clrf	fsr2h,c
  2083   00207A  6ADF               	clrf	indf2,c
  2084   00207C  0012               	return		;funcret
  2085   00207E                     __end_of_sprintf:
  2086                           	callstack 0
  2087                           
  2088 ;; *************** function _vfprintf *****************
  2089 ;; Defined at:
  2090 ;;		line 1817 in file "C:\Program Files\Microchip\xc8\v2.46\pic\sources\c99\common\doprnt.c"
  2091 ;; Parameters:    Size  Location     Type
  2092 ;;  fp              1   12[COMRAM] PTR struct _IO_FILE
  2093 ;;		 -> sprintf@f(12), 
  2094 ;;  fmt             1   13[COMRAM] PTR const unsigned char 
  2095 ;;		 -> STR_4(9), STR_3(9), STR_2(9), STR_1(9), 
  2096 ;;  ap              1   14[COMRAM] PTR PTR void 
  2097 ;;		 -> sprintf@ap(1), 
  2098 ;; Auto vars:     Size  Location     Type
  2099 ;;  cfmt            1   15[COMRAM] PTR unsigned char 
  2100 ;;		 -> STR_4(9), STR_3(9), STR_2(9), STR_1(9), 
  2101 ;; Return value:  Size  Location     Type
  2102 ;;                  2   12[COMRAM] int 
  2103 ;; Registers used:
  2104 ;;		wreg, fsr1l, fsr1h, fsr2l, fsr2h, status,2, status,0, tblptrl, tblptrh, tblptru, cstack
  2105 ;; Tracked objects:
  2106 ;;		On entry : 0/0
  2107 ;;		On exit  : 0/0
  2108 ;;		Unchanged: 0/0
  2109 ;; Data sizes:     COMRAM   BANK0   BANK1   BANK2   BANK3   BANK4   BANK5
  2110 ;;      Params:         3       0       0       0       0       0       0
  2111 ;;      Locals:         1       0       0       0       0       0       0
  2112 ;;      Temps:          0       0       0       0       0       0       0
  2113 ;;      Totals:         4       0       0       0       0       0       0
  2114 ;;Total ram usage:        4 bytes
  2115 ;; Hardware stack levels used: 1
  2116 ;; Hardware stack levels required when called: 3
  2117 ;; This function calls:
  2118 ;;		_vfpfcnvrt
  2119 ;; This function is called by:
  2120 ;;		_sprintf
  2121 ;; This function uses a non-reentrant model
  2122 ;;
  2123                           
  2124                           	psect	text5
  2125   001FD2                     __ptext5:
  2126                           	callstack 0
  2127   001FD2                     _vfprintf:
  2128                           	callstack 25
  2129   001FD2                     
  2130                           ;C:\Program Files\Microchip\xc8\v2.46\pic\sources\c99\common\doprnt.c: 1817: int vfprint
      +                          f(FILE *fp, const char *fmt, va_list ap);C:\Program Files\Microchip\xc8\v2.46\pic\source
      +                          s\c99\common\doprnt.c: 1818: {;C:\Program Files\Microchip\xc8\v2.46\pic\sources\c99\comm
      +                          on\doprnt.c: 1820:     char *cfmt;;C:\Program Files\Microchip\xc8\v2.46\pic\sources\c99\
      +                          common\doprnt.c: 1822:     cfmt = (char *)fmt;
  2131   001FD2  C00E  F010         	movff	vfprintf@fmt,vfprintf@cfmt
  2132                           
  2133                           ;C:\Program Files\Microchip\xc8\v2.46\pic\sources\c99\common\doprnt.c: 1826:     while (
      +                          *cfmt) {
  2134   001FD6  EFF5  F00F         	goto	l3448
  2135   001FDA                     l3446:
  2136                           
  2137                           ;C:\Program Files\Microchip\xc8\v2.46\pic\sources\c99\common\doprnt.c: 1830:    vfpfcnvr
      +                          t(fp, &cfmt, ap);
  2138   001FDA  C00D  F009         	movff	vfprintf@fp,vfpfcnvrt@fp
  2139   001FDE  0E10               	movlw	low vfprintf@cfmt
  2140   001FE0  6E0A               	movwf	vfpfcnvrt@fmt^0,c
  2141   001FE2  C00F  F00B         	movff	vfprintf@ap,vfpfcnvrt@ap
  2142   001FE6  ECE4  F00C         	call	_vfpfcnvrt	;wreg free
  2143   001FEA                     l3448:
  2144                           
  2145                           ;C:\Program Files\Microchip\xc8\v2.46\pic\sources\c99\common\doprnt.c: 1826:     while (
      +                          *cfmt) {
  2146   001FEA  C010  FFF6         	movff	vfprintf@cfmt,tblptrl
  2147   001FEE                     	if	1	;There is more than 1 active tblptr byte
  2148   001FEE  0E06               	movlw	high __smallconst
  2149   001FF0  6EF7               	movwf	tblptrh,c
  2150   001FF2                     	endif
  2151   001FF2                     	if	0	;tblptru may be non-zero
  2152   001FF2                     	endif
  2153   001FF2                     	if	0	;tblptru may be non-zero
  2154   001FF2                     	endif
  2155   001FF2  0008               	tblrd		*
  2156   001FF4  50F5               	movf	tablat,w,c
  2157   001FF6  0900               	iorlw	0
  2158   001FF8  A4D8               	btfss	status,2,c
  2159   001FFA  EF01  F010         	goto	u2951
  2160   001FFE  EF03  F010         	goto	u2950
  2161   002002                     u2951:
  2162   002002  EFED  F00F         	goto	l3446
  2163   002006                     u2950:
  2164   002006                     
  2165                           ;C:\Program Files\Microchip\xc8\v2.46\pic\sources\c99\common\doprnt.c: 1835:  return 0;
  2166   002006  0E00               	movlw	0
  2167   002008  6E0E               	movwf	(?_vfprintf+1)^0,c
  2168   00200A  0E00               	movlw	0
  2169   00200C  6E0D               	movwf	?_vfprintf^0,c
  2170   00200E  0012               	return		;funcret
  2171   002010                     __end_of_vfprintf:
  2172                           	callstack 0
  2173                           
  2174 ;; *************** function _vfpfcnvrt *****************
  2175 ;; Defined at:
  2176 ;;		line 1177 in file "C:\Program Files\Microchip\xc8\v2.46\pic\sources\c99\common\doprnt.c"
  2177 ;; Parameters:    Size  Location     Type
  2178 ;;  fp              1    8[COMRAM] PTR struct _IO_FILE
  2179 ;;		 -> sprintf@f(12), 
  2180 ;;  fmt             1    9[COMRAM] PTR PTR unsigned char 
  2181 ;;		 -> vfprintf@cfmt(1), 
  2182 ;;  ap              1   10[COMRAM] PTR PTR void 
  2183 ;;		 -> sprintf@ap(1), 
  2184 ;; Auto vars:     Size  Location     Type
  2185 ;;  cp              3    0        PTR unsigned char 
  2186 ;;  c               1   11[COMRAM] unsigned char 
  2187 ;;  done            1    0        _Bool 
  2188 ;; Return value:  Size  Location     Type
  2189 ;;                  1    wreg      void 
  2190 ;; Registers used:
  2191 ;;		wreg, fsr1l, fsr1h, fsr2l, fsr2h, status,2, status,0, tblptrl, tblptrh, tblptru, cstack
  2192 ;; Tracked objects:
  2193 ;;		On entry : 0/0
  2194 ;;		On exit  : 0/0
  2195 ;;		Unchanged: 0/0
  2196 ;; Data sizes:     COMRAM   BANK0   BANK1   BANK2   BANK3   BANK4   BANK5
  2197 ;;      Params:         3       0       0       0       0       0       0
  2198 ;;      Locals:         1       0       0       0       0       0       0
  2199 ;;      Temps:          0       0       0       0       0       0       0
  2200 ;;      Totals:         4       0       0       0       0       0       0
  2201 ;;Total ram usage:        4 bytes
  2202 ;; Hardware stack levels used: 1
  2203 ;; Hardware stack levels required when called: 2
  2204 ;; This function calls:
  2205 ;;		_fputc
  2206 ;; This function is called by:
  2207 ;;		_vfprintf
  2208 ;; This function uses a non-reentrant model
  2209 ;;
  2210                           
  2211                           	psect	text6
  2212   0019C8                     __ptext6:
  2213                           	callstack 0
  2214   0019C8                     _vfpfcnvrt:
  2215                           	callstack 25
  2216   0019C8                     
  2217                           ;C:\Program Files\Microchip\xc8\v2.46\pic\sources\c99\common\doprnt.c: 1177: vfpfcnvrt(F
      +                          ILE *fp, char *fmt[], va_list ap);C:\Program Files\Microchip\xc8\v2.46\pic\sources\c99\c
      +                          ommon\doprnt.c: 1178: {;C:\Program Files\Microchip\xc8\v2.46\pic\sources\c99\common\dopr
      +                          nt.c: 1179:     char c, *cp;;C:\Program Files\Microchip\xc8\v2.46\pic\sources\c99\common
      +                          \doprnt.c: 1180:     _Bool done;;C:\Program Files\Microchip\xc8\v2.46\pic\sources\c99\co
      +                          mmon\doprnt.c: 1201:     if ((*fmt)[0] == '%') {
  2218   0019C8  500A               	movf	vfpfcnvrt@fmt^0,w,c
  2219   0019CA  6ED9               	movwf	fsr2l,c
  2220   0019CC  6ADA               	clrf	fsr2h,c
  2221   0019CE  CFDF FFF6          	movff	indf2,tblptrl
  2222   0019D2                     	if	1	;There is more than 1 active tblptr byte
  2223   0019D2  0E06               	movlw	high __smallconst
  2224   0019D4  6EF7               	movwf	tblptrh,c
  2225   0019D6                     	endif
  2226   0019D6                     	if	0	;tblptru may be non-zero
  2227   0019D6                     	endif
  2228   0019D6                     	if	0	;tblptru may be non-zero
  2229   0019D6                     	endif
  2230   0019D6  0008               	tblrd		*
  2231   0019D8  50F5               	movf	tablat,w,c
  2232   0019DA  0A25               	xorlw	37
  2233   0019DC  A4D8               	btfss	status,2,c
  2234   0019DE  EFF3  F00C         	goto	u2121
  2235   0019E2  EFF5  F00C         	goto	u2120
  2236   0019E6                     u2121:
  2237   0019E6  EF2F  F00D         	goto	l2914
  2238   0019EA                     u2120:
  2239   0019EA                     
  2240                           ;C:\Program Files\Microchip\xc8\v2.46\pic\sources\c99\common\doprnt.c: 1202:         ++*
      +                          fmt;
  2241   0019EA  500A               	movf	vfpfcnvrt@fmt^0,w,c
  2242   0019EC  6ED9               	movwf	fsr2l,c
  2243   0019EE  6ADA               	clrf	fsr2h,c
  2244   0019F0  2ADF               	incf	indf2,f,c
  2245   0019F2                     
  2246                           ;C:\Program Files\Microchip\xc8\v2.46\pic\sources\c99\common\doprnt.c: 1204:         fla
      +                          gs = width = 0;
  2247   0019F2  0E00               	movlw	0
  2248   0019F4  6E4A               	movwf	(_width+1)^0,c
  2249   0019F6  0E00               	movlw	0
  2250   0019F8  6E49               	movwf	_width^0,c
  2251   0019FA  C049  F051         	movff	_width,_flags
  2252   0019FE                     
  2253                           ;C:\Program Files\Microchip\xc8\v2.46\pic\sources\c99\common\doprnt.c: 1205:         pre
      +                          c = -1;
  2254   0019FE  684B               	setf	_prec^0,c
  2255   001A00  684C               	setf	(_prec+1)^0,c
  2256   001A02                     
  2257                           ;C:\Program Files\Microchip\xc8\v2.46\pic\sources\c99\common\doprnt.c: 1273:         if 
      +                          ((*fmt)[0] == 'c') {
  2258   001A02  500A               	movf	vfpfcnvrt@fmt^0,w,c
  2259   001A04  6ED9               	movwf	fsr2l,c
  2260   001A06  6ADA               	clrf	fsr2h,c
  2261   001A08  CFDF FFF6          	movff	indf2,tblptrl
  2262   001A0C                     	if	1	;There is more than 1 active tblptr byte
  2263   001A0C  0E06               	movlw	high __smallconst
  2264   001A0E  6EF7               	movwf	tblptrh,c
  2265   001A10                     	endif
  2266   001A10                     	if	0	;tblptru may be non-zero
  2267   001A10                     	endif
  2268   001A10                     	if	0	;tblptru may be non-zero
  2269   001A10                     	endif
  2270   001A10  0008               	tblrd		*
  2271   001A12  50F5               	movf	tablat,w,c
  2272   001A14  0A63               	xorlw	99
  2273   001A16  A4D8               	btfss	status,2,c
  2274   001A18  EF10  F00D         	goto	u2131
  2275   001A1C  EF12  F00D         	goto	u2130
  2276   001A20                     u2131:
  2277   001A20  EF29  F00D         	goto	l2910
  2278   001A24                     u2130:
  2279   001A24                     
  2280                           ;C:\Program Files\Microchip\xc8\v2.46\pic\sources\c99\common\doprnt.c: 1274:            
      +                           ++*fmt;
  2281   001A24  500A               	movf	vfpfcnvrt@fmt^0,w,c
  2282   001A26  6ED9               	movwf	fsr2l,c
  2283   001A28  6ADA               	clrf	fsr2h,c
  2284   001A2A  2ADF               	incf	indf2,f,c
  2285   001A2C                     
  2286                           ;C:\Program Files\Microchip\xc8\v2.46\pic\sources\c99\common\doprnt.c: 1275:            
      +                           c = (unsigned char)(*(int *)__va_arg(*(int **)ap, (int)0));
  2287   001A2C  500B               	movf	vfpfcnvrt@ap^0,w,c
  2288   001A2E  6ED9               	movwf	fsr2l,c
  2289   001A30  6ADA               	clrf	fsr2h,c
  2290   001A32  50DF               	movf	indf2,w,c
  2291   001A34  2ADF               	incf	indf2,f,c
  2292   001A36  2ADF               	incf	indf2,f,c
  2293   001A38  6ED9               	movwf	fsr2l,c
  2294   001A3A  6ADA               	clrf	fsr2h,c
  2295   001A3C  50DF               	movf	indf2,w,c
  2296   001A3E  6E0C               	movwf	vfpfcnvrt@c^0,c
  2297   001A40                     
  2298                           ;C:\Program Files\Microchip\xc8\v2.46\pic\sources\c99\common\doprnt.c: 1277:    fputc(c,
      +                           fp);
  2299   001A40  C00C  F001         	movff	vfpfcnvrt@c,fputc@c
  2300   001A44  6A02               	clrf	(fputc@c+1)^0,c
  2301   001A46  C009  F003         	movff	vfpfcnvrt@fp,fputc@fp
  2302   001A4A  ECF7  F00D         	call	_fputc	;wreg free
  2303   001A4E  EF40  F00D         	goto	l1390
  2304   001A52                     l2910:
  2305                           
  2306                           ;C:\Program Files\Microchip\xc8\v2.46\pic\sources\c99\common\doprnt.c: 1806:         ++*
      +                          fmt;
  2307   001A52  500A               	movf	vfpfcnvrt@fmt^0,w,c
  2308   001A54  6ED9               	movwf	fsr2l,c
  2309   001A56  6ADA               	clrf	fsr2h,c
  2310   001A58  2ADF               	incf	indf2,f,c
  2311   001A5A  EF40  F00D         	goto	l1390
  2312   001A5E                     l2914:
  2313                           
  2314                           ;C:\Program Files\Microchip\xc8\v2.46\pic\sources\c99\common\doprnt.c: 1811:     fputc((
      +                          int)(*fmt)[0], fp);
  2315   001A5E  500A               	movf	vfpfcnvrt@fmt^0,w,c
  2316   001A60  6ED9               	movwf	fsr2l,c
  2317   001A62  6ADA               	clrf	fsr2h,c
  2318   001A64  CFDF FFF6          	movff	indf2,tblptrl
  2319   001A68                     	if	1	;There is more than 1 active tblptr byte
  2320   001A68  0E06               	movlw	high __smallconst
  2321   001A6A  6EF7               	movwf	tblptrh,c
  2322   001A6C                     	endif
  2323   001A6C                     	if	0	;tblptru may be non-zero
  2324   001A6C                     	endif
  2325   001A6C                     	if	0	;tblptru may be non-zero
  2326   001A6C                     	endif
  2327   001A6C  0008               	tblrd		*
  2328   001A6E  50F5               	movf	tablat,w,c
  2329   001A70  6E01               	movwf	fputc@c^0,c
  2330   001A72  6A02               	clrf	(fputc@c+1)^0,c
  2331   001A74  C009  F003         	movff	vfpfcnvrt@fp,fputc@fp
  2332   001A78  ECF7  F00D         	call	_fputc	;wreg free
  2333   001A7C  EF29  F00D         	goto	l2910
  2334   001A80                     l1390:
  2335   001A80  0012               	return		;funcret
  2336   001A82                     __end_of_vfpfcnvrt:
  2337                           	callstack 0
  2338                           
  2339 ;; *************** function _fputc *****************
  2340 ;; Defined at:
  2341 ;;		line 8 in file "C:\Program Files\Microchip\xc8\v2.46\pic\sources\c99\common\nf_fputc.c"
  2342 ;; Parameters:    Size  Location     Type
  2343 ;;  c               2    0[COMRAM] int 
  2344 ;;  fp              1    2[COMRAM] PTR struct _IO_FILE
  2345 ;;		 -> sprintf@f(12), 
  2346 ;; Auto vars:     Size  Location     Type
  2347 ;;		None
  2348 ;; Return value:  Size  Location     Type
  2349 ;;                  2    0[COMRAM] int 
  2350 ;; Registers used:
  2351 ;;		wreg, fsr1l, fsr1h, fsr2l, fsr2h, status,2, status,0, cstack
  2352 ;; Tracked objects:
  2353 ;;		On entry : 0/0
  2354 ;;		On exit  : 0/0
  2355 ;;		Unchanged: 0/0
  2356 ;; Data sizes:     COMRAM   BANK0   BANK1   BANK2   BANK3   BANK4   BANK5
  2357 ;;      Params:         3       0       0       0       0       0       0
  2358 ;;      Locals:         0       0       0       0       0       0       0
  2359 ;;      Temps:          5       0       0       0       0       0       0
  2360 ;;      Totals:         8       0       0       0       0       0       0
  2361 ;;Total ram usage:        8 bytes
  2362 ;; Hardware stack levels used: 1
  2363 ;; Hardware stack levels required when called: 1
  2364 ;; This function calls:
  2365 ;;		_putch
  2366 ;; This function is called by:
  2367 ;;		_vfpfcnvrt
  2368 ;; This function uses a non-reentrant model
  2369 ;;
  2370                           
  2371                           	psect	text7
  2372   001BEE                     __ptext7:
  2373                           	callstack 0
  2374   001BEE                     _fputc:
  2375                           	callstack 25
  2376   001BEE  5003               	movf	fputc@fp^0,w,c
  2377   001BF0  B4D8               	btfsc	status,2,c
  2378   001BF2  EFFD  F00D         	goto	u1941
  2379   001BF6  EFFF  F00D         	goto	u1940
  2380   001BFA                     u1941:
  2381   001BFA  EF07  F00E         	goto	l2778
  2382   001BFE                     u1940:
  2383   001BFE  5003               	movf	fputc@fp^0,w,c
  2384   001C00  A4D8               	btfss	status,2,c
  2385   001C02  EF05  F00E         	goto	u1951
  2386   001C06  EF07  F00E         	goto	u1950
  2387   001C0A                     u1951:
  2388   001C0A  EF0C  F00E         	goto	l2780
  2389   001C0E                     u1950:
  2390   001C0E                     l2778:
  2391   001C0E  5001               	movf	fputc@c^0,w,c
  2392   001C10  ECFC  F010         	call	_putch
  2393   001C14  EF4B  F00E         	goto	l1408
  2394   001C18                     l2780:
  2395   001C18  5003               	movf	fputc@fp^0,w,c
  2396   001C1A  6ED9               	movwf	fsr2l,c
  2397   001C1C  6ADA               	clrf	fsr2h,c
  2398   001C1E  0E0A               	movlw	10
  2399   001C20  26D9               	addwf	fsr2l,f,c
  2400   001C22  50DE               	movf	postinc2,w,c
  2401   001C24  10DE               	iorwf	postinc2,w,c
  2402   001C26  B4D8               	btfsc	status,2,c
  2403   001C28  EF18  F00E         	goto	u1961
  2404   001C2C  EF1A  F00E         	goto	u1960
  2405   001C30                     u1961:
  2406   001C30  EF33  F00E         	goto	l2784
  2407   001C34                     u1960:
  2408   001C34  5003               	movf	fputc@fp^0,w,c
  2409   001C36  6ED9               	movwf	fsr2l,c
  2410   001C38  6ADA               	clrf	fsr2h,c
  2411   001C3A  0E0A               	movlw	10
  2412   001C3C  26D9               	addwf	fsr2l,f,c
  2413   001C3E  5003               	movf	fputc@fp^0,w,c
  2414   001C40  6EE1               	movwf	fsr1l,c
  2415   001C42  6AE2               	clrf	fsr1h,c
  2416   001C44  0E03               	movlw	3
  2417   001C46  26E1               	addwf	fsr1l,f,c
  2418   001C48  50DE               	movf	postinc2,w,c
  2419   001C4A  5CE6               	subwf	postinc1,w,c
  2420   001C4C  50E6               	movf	postinc1,w,c
  2421   001C4E  0A80               	xorlw	128
  2422   001C50  6E08               	movwf	(??_fputc+4)^0,c
  2423   001C52  50DE               	movf	postinc2,w,c
  2424   001C54  0A80               	xorlw	128
  2425   001C56  5808               	subwfb	(??_fputc+4)^0,w,c
  2426   001C58  B0D8               	btfsc	status,0,c
  2427   001C5A  EF31  F00E         	goto	u1971
  2428   001C5E  EF33  F00E         	goto	u1970
  2429   001C62                     u1971:
  2430   001C62  EF4B  F00E         	goto	l1408
  2431   001C66                     u1970:
  2432   001C66                     l2784:
  2433   001C66  5003               	movf	fputc@fp^0,w,c
  2434   001C68  6ED9               	movwf	fsr2l,c
  2435   001C6A  6ADA               	clrf	fsr2h,c
  2436   001C6C  0E03               	movlw	3
  2437   001C6E  26D9               	addwf	fsr2l,f,c
  2438   001C70  50DF               	movf	indf2,w,c
  2439   001C72  6E04               	movwf	??_fputc^0,c
  2440   001C74  5003               	movf	fputc@fp^0,w,c
  2441   001C76  6ED9               	movwf	fsr2l,c
  2442   001C78  6ADA               	clrf	fsr2h,c
  2443   001C7A  50DF               	movf	indf2,w,c
  2444   001C7C  2404               	addwf	??_fputc^0,w,c
  2445   001C7E  6ED9               	movwf	fsr2l,c
  2446   001C80  6ADA               	clrf	fsr2h,c
  2447   001C82  C001  FFDF         	movff	fputc@c,indf2
  2448   001C86  5003               	movf	fputc@fp^0,w,c
  2449   001C88  6ED9               	movwf	fsr2l,c
  2450   001C8A  6ADA               	clrf	fsr2h,c
  2451   001C8C  0E03               	movlw	3
  2452   001C8E  26D9               	addwf	fsr2l,f,c
  2453   001C90  2ADE               	incf	postinc2,f,c
  2454   001C92  0E00               	movlw	0
  2455   001C94  22DD               	addwfc	postdec2,f,c
  2456   001C96                     l1408:
  2457   001C96  0012               	return		;funcret
  2458   001C98                     __end_of_fputc:
  2459                           	callstack 0
  2460                           
  2461 ;; *************** function _putch *****************
  2462 ;; Defined at:
  2463 ;;		line 7 in file "C:\Program Files\Microchip\xc8\v2.46\pic\sources\c99\common\putch.c"
  2464 ;; Parameters:    Size  Location     Type
  2465 ;;  c               1    wreg     unsigned char 
  2466 ;; Auto vars:     Size  Location     Type
  2467 ;;  c               1    0[COMRAM] unsigned char 
  2468 ;; Return value:  Size  Location     Type
  2469 ;;                  1    wreg      void 
  2470 ;; Registers used:
  2471 ;;		wreg
  2472 ;; Tracked objects:
  2473 ;;		On entry : 0/0
  2474 ;;		On exit  : 0/0
  2475 ;;		Unchanged: 0/0
  2476 ;; Data sizes:     COMRAM   BANK0   BANK1   BANK2   BANK3   BANK4   BANK5
  2477 ;;      Params:         0       0       0       0       0       0       0
  2478 ;;      Locals:         0       0       0       0       0       0       0
  2479 ;;      Temps:          0       0       0       0       0       0       0
  2480 ;;      Totals:         0       0       0       0       0       0       0
  2481 ;;Total ram usage:        0 bytes
  2482 ;; Hardware stack levels used: 1
  2483 ;; This function calls:
  2484 ;;		Nothing
  2485 ;; This function is called by:
  2486 ;;		_fputc
  2487 ;; This function uses a non-reentrant model
  2488 ;;
  2489                           
  2490                           	psect	text8
  2491   0021F8                     __ptext8:
  2492                           	callstack 0
  2493   0021F8                     _putch:
  2494                           	callstack 25
  2495   0021F8  0012               	return		;funcret
  2496   0021FA                     __end_of_putch:
  2497                           	callstack 0
  2498                           
  2499 ;; *************** function _set_user_password *****************
  2500 ;; Defined at:
  2501 ;;		line 303 in file "APP/app.c"
  2502 ;; Parameters:    Size  Location     Type
  2503 ;;		None
  2504 ;; Auto vars:     Size  Location     Type
  2505 ;;		None
  2506 ;; Return value:  Size  Location     Type
  2507 ;;                  1    wreg      void 
  2508 ;; Registers used:
  2509 ;;		wreg, fsr2l, fsr2h, status,2, status,0, cstack
  2510 ;; Tracked objects:
  2511 ;;		On entry : 0/0
  2512 ;;		On exit  : 0/0
  2513 ;;		Unchanged: 0/0
  2514 ;; Data sizes:     COMRAM   BANK0   BANK1   BANK2   BANK3   BANK4   BANK5
  2515 ;;      Params:         0       0       0       0       0       0       0
  2516 ;;      Locals:         0       0       0       0       0       0       0
  2517 ;;      Temps:          0       0       0       0       0       0       0
  2518 ;;      Totals:         0       0       0       0       0       0       0
  2519 ;;Total ram usage:        0 bytes
  2520 ;; Hardware stack levels used: 1
  2521 ;; Hardware stack levels required when called: 5
  2522 ;; This function calls:
  2523 ;;		_col5
  2524 ;;		_col6
  2525 ;;		_col7
  2526 ;;		_col8
  2527 ;;		_lcd_cmd
  2528 ;;		_lcd_data
  2529 ;;		_write_to_eeprom
  2530 ;; This function is called by:
  2531 ;;		_runApp
  2532 ;; This function uses a non-reentrant model
  2533 ;;
  2534                           
  2535                           	psect	text9
  2536   000DCE                     __ptext9:
  2537                           	callstack 0
  2538   000DCE                     _set_user_password:
  2539                           	callstack 24
  2540   000DCE                     
  2541                           ;APP/app.c: 305:          for(i=0;enter_user_Pass_msg[i]!='\0';i++)
  2542   000DCE  0E00               	movlw	0
  2543   000DD0  6E50               	movwf	(_i+1)^0,c
  2544   000DD2  0E00               	movlw	0
  2545   000DD4  6E4F               	movwf	_i^0,c
  2546   000DD6  EFF6  F006         	goto	l3600
  2547   000DDA                     l3596:
  2548                           
  2549                           ;APP/app.c: 306:          {;APP/app.c: 307:               lcd_data(enter_user_Pass_msg[i
      +                          ]);
  2550   000DDA  504F               	movf	_i^0,w,c
  2551   000DDC  0F6F               	addlw	low _enter_user_Pass_msg
  2552   000DDE  6ED9               	movwf	fsr2l,c
  2553   000DE0  6ADA               	clrf	fsr2h,c
  2554   000DE2  50DF               	movf	indf2,w,c
  2555   000DE4  ECC7  F00F         	call	_lcd_data
  2556   000DE8                     
  2557                           ;APP/app.c: 308:          }
  2558   000DE8  4A4F               	infsnz	_i^0,f,c
  2559   000DEA  2A50               	incf	(_i+1)^0,f,c
  2560   000DEC                     l3600:
  2561   000DEC  504F               	movf	_i^0,w,c
  2562   000DEE  0F6F               	addlw	low _enter_user_Pass_msg
  2563   000DF0  6ED9               	movwf	fsr2l,c
  2564   000DF2  6ADA               	clrf	fsr2h,c
  2565   000DF4  50DF               	movf	indf2,w,c
  2566   000DF6  A4D8               	btfss	status,2,c
  2567   000DF8  EF00  F007         	goto	u3211
  2568   000DFC  EF02  F007         	goto	u3210
  2569   000E00                     u3211:
  2570   000E00  EFED  F006         	goto	l3596
  2571   000E04                     u3210:
  2572   000E04                     
  2573                           ;APP/app.c: 309:          lcd_cmd(0xc0);
  2574   000E04  0EC0               	movlw	192
  2575   000E06  ECA5  F00F         	call	_lcd_cmd
  2576   000E0A                     
  2577                           ;APP/app.c: 310:          for(i=0;i<4;i++)
  2578   000E0A  0E00               	movlw	0
  2579   000E0C  6E50               	movwf	(_i+1)^0,c
  2580   000E0E  0E00               	movlw	0
  2581   000E10  6E4F               	movwf	_i^0,c
  2582   000E12                     l3606:
  2583   000E12  BE50               	btfsc	(_i+1)^0,7,c
  2584   000E14  EF15  F007         	goto	u3221
  2585   000E18  5050               	movf	(_i+1)^0,w,c
  2586   000E1A  E109               	bnz	u3220
  2587   000E1C  0E04               	movlw	4
  2588   000E1E  5C4F               	subwf	_i^0,w,c
  2589   000E20  A0D8               	btfss	status,0,c
  2590   000E22  EF15  F007         	goto	u3221
  2591   000E26  EF17  F007         	goto	u3220
  2592   000E2A                     u3221:
  2593   000E2A  EF19  F007         	goto	l231
  2594   000E2E                     u3220:
  2595   000E2E  EF61  F007         	goto	l3634
  2596   000E32                     l231:
  2597                           
  2598                           ;APP/app.c: 311:          {;APP/app.c: 312:              PORTBbits.RB0=PORTBbits.RB1=POR
      +                          TBbits.RB2=PORTBbits.RB3=0;
  2599   000E32  9681               	bcf	129,3,c	;volatile
  2600   000E34  9481               	bcf	129,2,c	;volatile
  2601   000E36  9281               	bcf	129,1,c	;volatile
  2602   000E38  9081               	bcf	129,0,c	;volatile
  2603   000E3A                     l233:
  2604   000E3A  A881               	btfss	129,4,c	;volatile
  2605   000E3C  EF22  F007         	goto	u3231
  2606   000E40  EF24  F007         	goto	u3230
  2607   000E44                     u3231:
  2608   000E44  EF39  F007         	goto	l237
  2609   000E48                     u3230:
  2610   000E48  AA81               	btfss	129,5,c	;volatile
  2611   000E4A  EF29  F007         	goto	u3241
  2612   000E4E  EF2B  F007         	goto	u3240
  2613   000E52                     u3241:
  2614   000E52  EF39  F007         	goto	l237
  2615   000E56                     u3240:
  2616   000E56  AC81               	btfss	129,6,c	;volatile
  2617   000E58  EF30  F007         	goto	u3251
  2618   000E5C  EF32  F007         	goto	u3250
  2619   000E60                     u3251:
  2620   000E60  EF39  F007         	goto	l237
  2621   000E64                     u3250:
  2622   000E64  BE81               	btfsc	129,7,c	;volatile
  2623   000E66  EF37  F007         	goto	u3261
  2624   000E6A  EF39  F007         	goto	u3260
  2625   000E6E                     u3261:
  2626   000E6E  EF1D  F007         	goto	l233
  2627   000E72                     u3260:
  2628   000E72                     l237:
  2629                           
  2630                           ;APP/app.c: 314:              if(PORTBbits.RB4==0)
  2631   000E72  B881               	btfsc	129,4,c	;volatile
  2632   000E74  EF3E  F007         	goto	u3271
  2633   000E78  EF40  F007         	goto	u3270
  2634   000E7C                     u3271:
  2635   000E7C  EF42  F007         	goto	l3618
  2636   000E80                     u3270:
  2637   000E80                     
  2638                           ;APP/app.c: 315:              {;APP/app.c: 316:                  col5();
  2639   000E80  EC12  F00C         	call	_col5	;wreg free
  2640   000E84                     l3618:
  2641                           
  2642                           ;APP/app.c: 318:              if(PORTBbits.RB5==0)
  2643   000E84  BA81               	btfsc	129,5,c	;volatile
  2644   000E86  EF47  F007         	goto	u3281
  2645   000E8A  EF49  F007         	goto	u3280
  2646   000E8E                     u3281:
  2647   000E8E  EF4B  F007         	goto	l3622
  2648   000E92                     u3280:
  2649   000E92                     
  2650                           ;APP/app.c: 319:              {;APP/app.c: 320:                  col6();
  2651   000E92  ECA9  F00B         	call	_col6	;wreg free
  2652   000E96                     l3622:
  2653                           
  2654                           ;APP/app.c: 322:              if(PORTBbits.RB6==0)
  2655   000E96  BC81               	btfsc	129,6,c	;volatile
  2656   000E98  EF50  F007         	goto	u3291
  2657   000E9C  EF52  F007         	goto	u3290
  2658   000EA0                     u3291:
  2659   000EA0  EF54  F007         	goto	l3626
  2660   000EA4                     u3290:
  2661   000EA4                     
  2662                           ;APP/app.c: 323:              {;APP/app.c: 324:                  col7();
  2663   000EA4  EC40  F00B         	call	_col7	;wreg free
  2664   000EA8                     l3626:
  2665                           
  2666                           ;APP/app.c: 326:              if(PORTBbits.RB7==0)
  2667   000EA8  BE81               	btfsc	129,7,c	;volatile
  2668   000EAA  EF59  F007         	goto	u3301
  2669   000EAE  EF5B  F007         	goto	u3300
  2670   000EB2                     u3301:
  2671   000EB2  EF5D  F007         	goto	l3630
  2672   000EB6                     u3300:
  2673   000EB6                     
  2674                           ;APP/app.c: 327:              {;APP/app.c: 328:                  col8();
  2675   000EB6  ECD7  F00A         	call	_col8	;wreg free
  2676   000EBA                     l3630:
  2677                           
  2678                           ;APP/app.c: 330:           }
  2679   000EBA  4A4F               	infsnz	_i^0,f,c
  2680   000EBC  2A50               	incf	(_i+1)^0,f,c
  2681   000EBE  EF09  F007         	goto	l3606
  2682   000EC2                     l3634:
  2683                           
  2684                           ;APP/app.c: 331:        write_to_eeprom(address+4, set_user_passcode[0]);
  2685   000EC2  C038  F001         	movff	_set_user_passcode,write_to_eeprom@data
  2686   000EC6  0E04               	movlw	4
  2687   000EC8  EC81  F00F         	call	_write_to_eeprom
  2688                           
  2689                           ;APP/app.c: 332:        write_to_eeprom(address+5, set_user_passcode[1]);
  2690   000ECC  C039  F001         	movff	_set_user_passcode+1,write_to_eeprom@data
  2691   000ED0  0E05               	movlw	5
  2692   000ED2  EC81  F00F         	call	_write_to_eeprom
  2693                           
  2694                           ;APP/app.c: 333:        write_to_eeprom(address+6, set_user_passcode[2]);
  2695   000ED6  C03A  F001         	movff	_set_user_passcode+2,write_to_eeprom@data
  2696   000EDA  0E06               	movlw	6
  2697   000EDC  EC81  F00F         	call	_write_to_eeprom
  2698                           
  2699                           ;APP/app.c: 334:        write_to_eeprom(address+7, set_user_passcode[3]);
  2700   000EE0  C03B  F001         	movff	_set_user_passcode+3,write_to_eeprom@data
  2701   000EE4  0E07               	movlw	7
  2702   000EE6  EC81  F00F         	call	_write_to_eeprom
  2703   000EEA  0012               	return		;funcret
  2704   000EEC                     __end_of_set_user_password:
  2705                           	callstack 0
  2706                           
  2707 ;; *************** function _write_to_eeprom *****************
  2708 ;; Defined at:
  2709 ;;		line 18 in file "APP/EEPROM.c"
  2710 ;; Parameters:    Size  Location     Type
  2711 ;;  address         1    wreg     unsigned char 
  2712 ;;  data            1    0[COMRAM] unsigned char 
  2713 ;; Auto vars:     Size  Location     Type
  2714 ;;  address         1    1[COMRAM] unsigned char 
  2715 ;; Return value:  Size  Location     Type
  2716 ;;                  1    wreg      void 
  2717 ;; Registers used:
  2718 ;;		wreg, status,2
  2719 ;; Tracked objects:
  2720 ;;		On entry : 0/0
  2721 ;;		On exit  : 0/0
  2722 ;;		Unchanged: 0/0
  2723 ;; Data sizes:     COMRAM   BANK0   BANK1   BANK2   BANK3   BANK4   BANK5
  2724 ;;      Params:         1       0       0       0       0       0       0
  2725 ;;      Locals:         1       0       0       0       0       0       0
  2726 ;;      Temps:          0       0       0       0       0       0       0
  2727 ;;      Totals:         2       0       0       0       0       0       0
  2728 ;;Total ram usage:        2 bytes
  2729 ;; Hardware stack levels used: 1
  2730 ;; This function calls:
  2731 ;;		Nothing
  2732 ;; This function is called by:
  2733 ;;		_runApp
  2734 ;;		_set_user_password
  2735 ;; This function uses a non-reentrant model
  2736 ;;
  2737                           
  2738                           	psect	text10
  2739   001F02                     __ptext10:
  2740                           	callstack 0
  2741   001F02                     _write_to_eeprom:
  2742                           	callstack 29
  2743                           
  2744                           ;incstack = 0
  2745                           ;write_to_eeprom@address stored from wreg
  2746   001F02  6E02               	movwf	write_to_eeprom@address^0,c
  2747   001F04                     l552:
  2748   001F04  B2A6               	btfsc	166,1,c	;volsfr
  2749   001F06  EF87  F00F         	goto	u2141
  2750   001F0A  EF89  F00F         	goto	u2140
  2751   001F0E                     u2141:
  2752   001F0E  EF82  F00F         	goto	l552
  2753   001F12                     u2140:
  2754   001F12  B0A6               	btfsc	166,0,c	;volsfr
  2755   001F14  EF8E  F00F         	goto	u2151
  2756   001F18  EF90  F00F         	goto	u2150
  2757   001F1C                     u2151:
  2758   001F1C  EF82  F00F         	goto	l552
  2759   001F20                     u2150:
  2760   001F20                     
  2761                           ;APP/EEPROM.c: 21:     EEADR = address;
  2762   001F20  C002  FFA9         	movff	write_to_eeprom@address,4009	;volatile
  2763   001F24                     
  2764                           ;APP/EEPROM.c: 22:     EEDATA = data;
  2765   001F24  C001  FFA8         	movff	write_to_eeprom@data,4008	;volatile
  2766   001F28                     
  2767                           ;APP/EEPROM.c: 23:     EECON1bits.EEPGD = 0;
  2768   001F28  9EA6               	bcf	166,7,c	;volsfr
  2769   001F2A                     
  2770                           ;APP/EEPROM.c: 24:     EECON1bits.CFGS = 0;
  2771   001F2A  9CA6               	bcf	166,6,c	;volsfr
  2772   001F2C                     
  2773                           ;APP/EEPROM.c: 25:     EECON1bits.WREN = 1;
  2774   001F2C  84A6               	bsf	166,2,c	;volsfr
  2775   001F2E                     
  2776                           ;APP/EEPROM.c: 28:     EECON2 = 0x55;
  2777   001F2E  0E55               	movlw	85
  2778   001F30  6EA7               	movwf	167,c	;volsfr
  2779   001F32                     
  2780                           ;APP/EEPROM.c: 29:     EECON2 = 0xAA;
  2781   001F32  0EAA               	movlw	170
  2782   001F34  6EA7               	movwf	167,c	;volsfr
  2783   001F36                     
  2784                           ;APP/EEPROM.c: 30:     EECON1bits.WR = 1;
  2785   001F36  82A6               	bsf	166,1,c	;volsfr
  2786   001F38                     l555:
  2787   001F38  B2A6               	btfsc	166,1,c	;volsfr
  2788   001F3A  EFA1  F00F         	goto	u2161
  2789   001F3E  EFA3  F00F         	goto	u2160
  2790   001F42                     u2161:
  2791   001F42  EF9C  F00F         	goto	l555
  2792   001F46                     u2160:
  2793   001F46                     
  2794                           ;APP/EEPROM.c: 33:     EECON1bits.WREN = 0;
  2795   001F46  94A6               	bcf	166,2,c	;volsfr
  2796   001F48  0012               	return		;funcret
  2797   001F4A                     __end_of_write_to_eeprom:
  2798                           	callstack 0
  2799                           
  2800 ;; *************** function _col8 *****************
  2801 ;; Defined at:
  2802 ;;		line 346 in file "APP/keypad.c"
  2803 ;; Parameters:    Size  Location     Type
  2804 ;;		None
  2805 ;; Auto vars:     Size  Location     Type
  2806 ;;		None
  2807 ;; Return value:  Size  Location     Type
  2808 ;;                  1    wreg      void 
  2809 ;; Registers used:
  2810 ;;		wreg, fsr2l, fsr2h, status,2, status,0, cstack
  2811 ;; Tracked objects:
  2812 ;;		On entry : 0/0
  2813 ;;		On exit  : 0/0
  2814 ;;		Unchanged: 0/0
  2815 ;; Data sizes:     COMRAM   BANK0   BANK1   BANK2   BANK3   BANK4   BANK5
  2816 ;;      Params:         0       0       0       0       0       0       0
  2817 ;;      Locals:         0       0       0       0       0       0       0
  2818 ;;      Temps:          0       0       0       0       0       0       0
  2819 ;;      Totals:         0       0       0       0       0       0       0
  2820 ;;Total ram usage:        0 bytes
  2821 ;; Hardware stack levels used: 1
  2822 ;; Hardware stack levels required when called: 4
  2823 ;; This function calls:
  2824 ;;		_lcd_data
  2825 ;; This function is called by:
  2826 ;;		_set_user_password
  2827 ;; This function uses a non-reentrant model
  2828 ;;
  2829                           
  2830                           	psect	text11
  2831   0015AE                     __ptext11:
  2832                           	callstack 0
  2833   0015AE                     _col8:
  2834                           	callstack 24
  2835   0015AE                     
  2836                           ;APP/keypad.c: 348:     PORTBbits.RB0=PORTBbits.RB1=PORTBbits.RB2=PORTBbits.RB3=1;
  2837   0015AE  8681               	bsf	129,3,c	;volatile
  2838   0015B0  8481               	bsf	129,2,c	;volatile
  2839   0015B2  8281               	bsf	129,1,c	;volatile
  2840   0015B4  8081               	bsf	129,0,c	;volatile
  2841                           
  2842                           ;APP/keypad.c: 349:     PORTBbits.RB0=0;
  2843   0015B6  9081               	bcf	129,0,c	;volatile
  2844                           
  2845                           ;APP/keypad.c: 350:     if(PORTBbits.RB7==0)
  2846   0015B8  BE81               	btfsc	129,7,c	;volatile
  2847   0015BA  EFE1  F00A         	goto	u2871
  2848   0015BE  EFE3  F00A         	goto	u2870
  2849   0015C2                     u2871:
  2850   0015C2  EFF3  F00A         	goto	l3406
  2851   0015C6                     u2870:
  2852   0015C6                     l470:
  2853                           
  2854                           ;APP/keypad.c: 352:         while(PORTBbits.RB7==0)
  2855   0015C6  AE81               	btfss	129,7,c	;volatile
  2856   0015C8  EFE8  F00A         	goto	u2881
  2857   0015CC  EFEA  F00A         	goto	u2880
  2858   0015D0                     u2881:
  2859   0015D0  EFE3  F00A         	goto	l470
  2860   0015D4                     u2880:
  2861   0015D4                     
  2862                           ;APP/keypad.c: 354:         lcd_data('*');
  2863   0015D4  0E2A               	movlw	42
  2864   0015D6  ECC7  F00F         	call	_lcd_data
  2865   0015DA                     
  2866                           ;APP/keypad.c: 356:         set_user_passcode[i]='A';
  2867   0015DA  504F               	movf	_i^0,w,c
  2868   0015DC  0F38               	addlw	low _set_user_passcode
  2869   0015DE  6ED9               	movwf	fsr2l,c
  2870   0015E0  6ADA               	clrf	fsr2h,c
  2871   0015E2  0E41               	movlw	65
  2872   0015E4  6EDF               	movwf	indf2,c
  2873   0015E6                     l3406:
  2874                           
  2875                           ;APP/keypad.c: 359:     PORTBbits.RB0=1;
  2876   0015E6  8081               	bsf	129,0,c	;volatile
  2877   0015E8                     
  2878                           ;APP/keypad.c: 360:     PORTBbits.RB1=0;
  2879   0015E8  9281               	bcf	129,1,c	;volatile
  2880   0015EA                     
  2881                           ;APP/keypad.c: 361:     if(PORTBbits.RB7==0)
  2882   0015EA  BE81               	btfsc	129,7,c	;volatile
  2883   0015EC  EFFA  F00A         	goto	u2891
  2884   0015F0  EFFC  F00A         	goto	u2890
  2885   0015F4                     u2891:
  2886   0015F4  EF0C  F00B         	goto	l3418
  2887   0015F8                     u2890:
  2888   0015F8                     l474:
  2889                           
  2890                           ;APP/keypad.c: 363:         while(PORTBbits.RB7==0)
  2891   0015F8  AE81               	btfss	129,7,c	;volatile
  2892   0015FA  EF01  F00B         	goto	u2901
  2893   0015FE  EF03  F00B         	goto	u2900
  2894   001602                     u2901:
  2895   001602  EFFC  F00A         	goto	l474
  2896   001606                     u2900:
  2897   001606                     
  2898                           ;APP/keypad.c: 365:         lcd_data('*');
  2899   001606  0E2A               	movlw	42
  2900   001608  ECC7  F00F         	call	_lcd_data
  2901   00160C                     
  2902                           ;APP/keypad.c: 367:         set_user_passcode[i]='B';
  2903   00160C  504F               	movf	_i^0,w,c
  2904   00160E  0F38               	addlw	low _set_user_passcode
  2905   001610  6ED9               	movwf	fsr2l,c
  2906   001612  6ADA               	clrf	fsr2h,c
  2907   001614  0E42               	movlw	66
  2908   001616  6EDF               	movwf	indf2,c
  2909   001618                     l3418:
  2910                           
  2911                           ;APP/keypad.c: 370:     PORTBbits.RB1=1;
  2912   001618  8281               	bsf	129,1,c	;volatile
  2913   00161A                     
  2914                           ;APP/keypad.c: 371:     PORTBbits.RB2=0;
  2915   00161A  9481               	bcf	129,2,c	;volatile
  2916   00161C                     
  2917                           ;APP/keypad.c: 372:     if(PORTBbits.RB7==0)
  2918   00161C  BE81               	btfsc	129,7,c	;volatile
  2919   00161E  EF13  F00B         	goto	u2911
  2920   001622  EF15  F00B         	goto	u2910
  2921   001626                     u2911:
  2922   001626  EF25  F00B         	goto	l3430
  2923   00162A                     u2910:
  2924   00162A                     l478:
  2925                           
  2926                           ;APP/keypad.c: 374:         while(PORTBbits.RB7==0)
  2927   00162A  AE81               	btfss	129,7,c	;volatile
  2928   00162C  EF1A  F00B         	goto	u2921
  2929   001630  EF1C  F00B         	goto	u2920
  2930   001634                     u2921:
  2931   001634  EF15  F00B         	goto	l478
  2932   001638                     u2920:
  2933   001638                     
  2934                           ;APP/keypad.c: 376:         lcd_data('*');
  2935   001638  0E2A               	movlw	42
  2936   00163A  ECC7  F00F         	call	_lcd_data
  2937   00163E                     
  2938                           ;APP/keypad.c: 378:         set_user_passcode[i]='C';
  2939   00163E  504F               	movf	_i^0,w,c
  2940   001640  0F38               	addlw	low _set_user_passcode
  2941   001642  6ED9               	movwf	fsr2l,c
  2942   001644  6ADA               	clrf	fsr2h,c
  2943   001646  0E43               	movlw	67
  2944   001648  6EDF               	movwf	indf2,c
  2945   00164A                     l3430:
  2946                           
  2947                           ;APP/keypad.c: 381:     PORTBbits.RB2=1;
  2948   00164A  8481               	bsf	129,2,c	;volatile
  2949   00164C                     
  2950                           ;APP/keypad.c: 382:     PORTBbits.RB3=0;
  2951   00164C  9681               	bcf	129,3,c	;volatile
  2952   00164E                     
  2953                           ;APP/keypad.c: 383:     if(PORTBbits.RB7==0)
  2954   00164E  BE81               	btfsc	129,7,c	;volatile
  2955   001650  EF2C  F00B         	goto	u2931
  2956   001654  EF2E  F00B         	goto	u2930
  2957   001658                     u2931:
  2958   001658  EF3E  F00B         	goto	l3442
  2959   00165C                     u2930:
  2960   00165C                     l482:
  2961                           
  2962                           ;APP/keypad.c: 385:         while(PORTBbits.RB7==0)
  2963   00165C  AE81               	btfss	129,7,c	;volatile
  2964   00165E  EF33  F00B         	goto	u2941
  2965   001662  EF35  F00B         	goto	u2940
  2966   001666                     u2941:
  2967   001666  EF2E  F00B         	goto	l482
  2968   00166A                     u2940:
  2969   00166A                     
  2970                           ;APP/keypad.c: 387:             lcd_data('*');
  2971   00166A  0E2A               	movlw	42
  2972   00166C  ECC7  F00F         	call	_lcd_data
  2973   001670                     
  2974                           ;APP/keypad.c: 389:            set_user_passcode[i]='D';
  2975   001670  504F               	movf	_i^0,w,c
  2976   001672  0F38               	addlw	low _set_user_passcode
  2977   001674  6ED9               	movwf	fsr2l,c
  2978   001676  6ADA               	clrf	fsr2h,c
  2979   001678  0E44               	movlw	68
  2980   00167A  6EDF               	movwf	indf2,c
  2981   00167C                     l3442:
  2982                           
  2983                           ;APP/keypad.c: 391:     PORTBbits.RB3=1;
  2984   00167C  8681               	bsf	129,3,c	;volatile
  2985   00167E  0012               	return		;funcret
  2986   001680                     __end_of_col8:
  2987                           	callstack 0
  2988                           
  2989 ;; *************** function _col7 *****************
  2990 ;; Defined at:
  2991 ;;		line 298 in file "APP/keypad.c"
  2992 ;; Parameters:    Size  Location     Type
  2993 ;;		None
  2994 ;; Auto vars:     Size  Location     Type
  2995 ;;		None
  2996 ;; Return value:  Size  Location     Type
  2997 ;;                  1    wreg      void 
  2998 ;; Registers used:
  2999 ;;		wreg, fsr2l, fsr2h, status,2, status,0, cstack
  3000 ;; Tracked objects:
  3001 ;;		On entry : 0/0
  3002 ;;		On exit  : 0/0
  3003 ;;		Unchanged: 0/0
  3004 ;; Data sizes:     COMRAM   BANK0   BANK1   BANK2   BANK3   BANK4   BANK5
  3005 ;;      Params:         0       0       0       0       0       0       0
  3006 ;;      Locals:         0       0       0       0       0       0       0
  3007 ;;      Temps:          0       0       0       0       0       0       0
  3008 ;;      Totals:         0       0       0       0       0       0       0
  3009 ;;Total ram usage:        0 bytes
  3010 ;; Hardware stack levels used: 1
  3011 ;; Hardware stack levels required when called: 4
  3012 ;; This function calls:
  3013 ;;		_lcd_data
  3014 ;; This function is called by:
  3015 ;;		_set_user_password
  3016 ;; This function uses a non-reentrant model
  3017 ;;
  3018                           
  3019                           	psect	text12
  3020   001680                     __ptext12:
  3021                           	callstack 0
  3022   001680                     _col7:
  3023                           	callstack 24
  3024   001680                     
  3025                           ;APP/keypad.c: 300:     PORTBbits.RB0=PORTBbits.RB1=PORTBbits.RB2=PORTBbits.RB3=1;
  3026   001680  8681               	bsf	129,3,c	;volatile
  3027   001682  8481               	bsf	129,2,c	;volatile
  3028   001684  8281               	bsf	129,1,c	;volatile
  3029   001686  8081               	bsf	129,0,c	;volatile
  3030                           
  3031                           ;APP/keypad.c: 301:     PORTBbits.RB0=0;
  3032   001688  9081               	bcf	129,0,c	;volatile
  3033                           
  3034                           ;APP/keypad.c: 302:     if(PORTBbits.RB6==0)
  3035   00168A  BC81               	btfsc	129,6,c	;volatile
  3036   00168C  EF4A  F00B         	goto	u2791
  3037   001690  EF4C  F00B         	goto	u2790
  3038   001694                     u2791:
  3039   001694  EF5C  F00B         	goto	l3360
  3040   001698                     u2790:
  3041   001698                     l451:
  3042                           
  3043                           ;APP/keypad.c: 304:         while(PORTBbits.RB6==0)
  3044   001698  AC81               	btfss	129,6,c	;volatile
  3045   00169A  EF51  F00B         	goto	u2801
  3046   00169E  EF53  F00B         	goto	u2800
  3047   0016A2                     u2801:
  3048   0016A2  EF4C  F00B         	goto	l451
  3049   0016A6                     u2800:
  3050   0016A6                     
  3051                           ;APP/keypad.c: 306:         lcd_data('*');
  3052   0016A6  0E2A               	movlw	42
  3053   0016A8  ECC7  F00F         	call	_lcd_data
  3054   0016AC                     
  3055                           ;APP/keypad.c: 308:         set_user_passcode[i]='3';
  3056   0016AC  504F               	movf	_i^0,w,c
  3057   0016AE  0F38               	addlw	low _set_user_passcode
  3058   0016B0  6ED9               	movwf	fsr2l,c
  3059   0016B2  6ADA               	clrf	fsr2h,c
  3060   0016B4  0E33               	movlw	51
  3061   0016B6  6EDF               	movwf	indf2,c
  3062   0016B8                     l3360:
  3063                           
  3064                           ;APP/keypad.c: 311:     PORTBbits.RB0=1;
  3065   0016B8  8081               	bsf	129,0,c	;volatile
  3066   0016BA                     
  3067                           ;APP/keypad.c: 312:     PORTBbits.RB1=0;
  3068   0016BA  9281               	bcf	129,1,c	;volatile
  3069   0016BC                     
  3070                           ;APP/keypad.c: 313:     if(PORTBbits.RB6==0)
  3071   0016BC  BC81               	btfsc	129,6,c	;volatile
  3072   0016BE  EF63  F00B         	goto	u2811
  3073   0016C2  EF65  F00B         	goto	u2810
  3074   0016C6                     u2811:
  3075   0016C6  EF75  F00B         	goto	l3372
  3076   0016CA                     u2810:
  3077   0016CA                     l455:
  3078                           
  3079                           ;APP/keypad.c: 315:         while(PORTBbits.RB6==0)
  3080   0016CA  AC81               	btfss	129,6,c	;volatile
  3081   0016CC  EF6A  F00B         	goto	u2821
  3082   0016D0  EF6C  F00B         	goto	u2820
  3083   0016D4                     u2821:
  3084   0016D4  EF65  F00B         	goto	l455
  3085   0016D8                     u2820:
  3086   0016D8                     
  3087                           ;APP/keypad.c: 317:         lcd_data('*');
  3088   0016D8  0E2A               	movlw	42
  3089   0016DA  ECC7  F00F         	call	_lcd_data
  3090   0016DE                     
  3091                           ;APP/keypad.c: 319:         set_user_passcode[i]='6';
  3092   0016DE  504F               	movf	_i^0,w,c
  3093   0016E0  0F38               	addlw	low _set_user_passcode
  3094   0016E2  6ED9               	movwf	fsr2l,c
  3095   0016E4  6ADA               	clrf	fsr2h,c
  3096   0016E6  0E36               	movlw	54
  3097   0016E8  6EDF               	movwf	indf2,c
  3098   0016EA                     l3372:
  3099                           
  3100                           ;APP/keypad.c: 322:     PORTBbits.RB1=1;
  3101   0016EA  8281               	bsf	129,1,c	;volatile
  3102   0016EC                     
  3103                           ;APP/keypad.c: 323:     PORTBbits.RB2=0;
  3104   0016EC  9481               	bcf	129,2,c	;volatile
  3105   0016EE                     
  3106                           ;APP/keypad.c: 324:     if(PORTBbits.RB6==0)
  3107   0016EE  BC81               	btfsc	129,6,c	;volatile
  3108   0016F0  EF7C  F00B         	goto	u2831
  3109   0016F4  EF7E  F00B         	goto	u2830
  3110   0016F8                     u2831:
  3111   0016F8  EF8E  F00B         	goto	l3384
  3112   0016FC                     u2830:
  3113   0016FC                     l459:
  3114                           
  3115                           ;APP/keypad.c: 326:         while(PORTBbits.RB6==0)
  3116   0016FC  AC81               	btfss	129,6,c	;volatile
  3117   0016FE  EF83  F00B         	goto	u2841
  3118   001702  EF85  F00B         	goto	u2840
  3119   001706                     u2841:
  3120   001706  EF7E  F00B         	goto	l459
  3121   00170A                     u2840:
  3122   00170A                     
  3123                           ;APP/keypad.c: 328:         lcd_data('*');
  3124   00170A  0E2A               	movlw	42
  3125   00170C  ECC7  F00F         	call	_lcd_data
  3126   001710                     
  3127                           ;APP/keypad.c: 330:         set_user_passcode[i]='9';
  3128   001710  504F               	movf	_i^0,w,c
  3129   001712  0F38               	addlw	low _set_user_passcode
  3130   001714  6ED9               	movwf	fsr2l,c
  3131   001716  6ADA               	clrf	fsr2h,c
  3132   001718  0E39               	movlw	57
  3133   00171A  6EDF               	movwf	indf2,c
  3134   00171C                     l3384:
  3135                           
  3136                           ;APP/keypad.c: 333:     PORTBbits.RB2=1;
  3137   00171C  8481               	bsf	129,2,c	;volatile
  3138   00171E                     
  3139                           ;APP/keypad.c: 334:     PORTBbits.RB3=0;
  3140   00171E  9681               	bcf	129,3,c	;volatile
  3141   001720                     
  3142                           ;APP/keypad.c: 335:     if(PORTBbits.RB6==0)
  3143   001720  BC81               	btfsc	129,6,c	;volatile
  3144   001722  EF95  F00B         	goto	u2851
  3145   001726  EF97  F00B         	goto	u2850
  3146   00172A                     u2851:
  3147   00172A  EFA7  F00B         	goto	l3396
  3148   00172E                     u2850:
  3149   00172E                     l463:
  3150                           
  3151                           ;APP/keypad.c: 337:         while(PORTBbits.RB6==0)
  3152   00172E  AC81               	btfss	129,6,c	;volatile
  3153   001730  EF9C  F00B         	goto	u2861
  3154   001734  EF9E  F00B         	goto	u2860
  3155   001738                     u2861:
  3156   001738  EF97  F00B         	goto	l463
  3157   00173C                     u2860:
  3158   00173C                     
  3159                           ;APP/keypad.c: 339:             lcd_data('*');
  3160   00173C  0E2A               	movlw	42
  3161   00173E  ECC7  F00F         	call	_lcd_data
  3162   001742                     
  3163                           ;APP/keypad.c: 341:             set_user_passcode[i]='#';
  3164   001742  504F               	movf	_i^0,w,c
  3165   001744  0F38               	addlw	low _set_user_passcode
  3166   001746  6ED9               	movwf	fsr2l,c
  3167   001748  6ADA               	clrf	fsr2h,c
  3168   00174A  0E23               	movlw	35
  3169   00174C  6EDF               	movwf	indf2,c
  3170   00174E                     l3396:
  3171                           
  3172                           ;APP/keypad.c: 343:     PORTBbits.RB3=1;
  3173   00174E  8681               	bsf	129,3,c	;volatile
  3174   001750  0012               	return		;funcret
  3175   001752                     __end_of_col7:
  3176                           	callstack 0
  3177                           
  3178 ;; *************** function _col6 *****************
  3179 ;; Defined at:
  3180 ;;		line 250 in file "APP/keypad.c"
  3181 ;; Parameters:    Size  Location     Type
  3182 ;;		None
  3183 ;; Auto vars:     Size  Location     Type
  3184 ;;		None
  3185 ;; Return value:  Size  Location     Type
  3186 ;;                  1    wreg      void 
  3187 ;; Registers used:
  3188 ;;		wreg, fsr2l, fsr2h, status,2, status,0, cstack
  3189 ;; Tracked objects:
  3190 ;;		On entry : 0/0
  3191 ;;		On exit  : 0/0
  3192 ;;		Unchanged: 0/0
  3193 ;; Data sizes:     COMRAM   BANK0   BANK1   BANK2   BANK3   BANK4   BANK5
  3194 ;;      Params:         0       0       0       0       0       0       0
  3195 ;;      Locals:         0       0       0       0       0       0       0
  3196 ;;      Temps:          0       0       0       0       0       0       0
  3197 ;;      Totals:         0       0       0       0       0       0       0
  3198 ;;Total ram usage:        0 bytes
  3199 ;; Hardware stack levels used: 1
  3200 ;; Hardware stack levels required when called: 4
  3201 ;; This function calls:
  3202 ;;		_lcd_data
  3203 ;; This function is called by:
  3204 ;;		_set_user_password
  3205 ;; This function uses a non-reentrant model
  3206 ;;
  3207                           
  3208                           	psect	text13
  3209   001752                     __ptext13:
  3210                           	callstack 0
  3211   001752                     _col6:
  3212                           	callstack 24
  3213   001752                     
  3214                           ;APP/keypad.c: 252:     PORTBbits.RB0=PORTBbits.RB1=PORTBbits.RB2=PORTBbits.RB3=1;
  3215   001752  8681               	bsf	129,3,c	;volatile
  3216   001754  8481               	bsf	129,2,c	;volatile
  3217   001756  8281               	bsf	129,1,c	;volatile
  3218   001758  8081               	bsf	129,0,c	;volatile
  3219                           
  3220                           ;APP/keypad.c: 253:     PORTBbits.RB0=0;
  3221   00175A  9081               	bcf	129,0,c	;volatile
  3222                           
  3223                           ;APP/keypad.c: 254:     if(PORTBbits.RB5==0)
  3224   00175C  BA81               	btfsc	129,5,c	;volatile
  3225   00175E  EFB3  F00B         	goto	u2711
  3226   001762  EFB5  F00B         	goto	u2710
  3227   001766                     u2711:
  3228   001766  EFC5  F00B         	goto	l3314
  3229   00176A                     u2710:
  3230   00176A                     l432:
  3231                           
  3232                           ;APP/keypad.c: 256:         while(PORTBbits.RB5==0)
  3233   00176A  AA81               	btfss	129,5,c	;volatile
  3234   00176C  EFBA  F00B         	goto	u2721
  3235   001770  EFBC  F00B         	goto	u2720
  3236   001774                     u2721:
  3237   001774  EFB5  F00B         	goto	l432
  3238   001778                     u2720:
  3239   001778                     
  3240                           ;APP/keypad.c: 258:         lcd_data('*');
  3241   001778  0E2A               	movlw	42
  3242   00177A  ECC7  F00F         	call	_lcd_data
  3243   00177E                     
  3244                           ;APP/keypad.c: 260:         set_user_passcode[i]='2';
  3245   00177E  504F               	movf	_i^0,w,c
  3246   001780  0F38               	addlw	low _set_user_passcode
  3247   001782  6ED9               	movwf	fsr2l,c
  3248   001784  6ADA               	clrf	fsr2h,c
  3249   001786  0E32               	movlw	50
  3250   001788  6EDF               	movwf	indf2,c
  3251   00178A                     l3314:
  3252                           
  3253                           ;APP/keypad.c: 264:     PORTBbits.RB0=1;
  3254   00178A  8081               	bsf	129,0,c	;volatile
  3255   00178C                     
  3256                           ;APP/keypad.c: 265:     PORTBbits.RB1=0;
  3257   00178C  9281               	bcf	129,1,c	;volatile
  3258   00178E                     
  3259                           ;APP/keypad.c: 266:     if(PORTBbits.RB5==0)
  3260   00178E  BA81               	btfsc	129,5,c	;volatile
  3261   001790  EFCC  F00B         	goto	u2731
  3262   001794  EFCE  F00B         	goto	u2730
  3263   001798                     u2731:
  3264   001798  EFDE  F00B         	goto	l3326
  3265   00179C                     u2730:
  3266   00179C                     l436:
  3267                           
  3268                           ;APP/keypad.c: 268:         while(PORTBbits.RB5==0)
  3269   00179C  AA81               	btfss	129,5,c	;volatile
  3270   00179E  EFD3  F00B         	goto	u2741
  3271   0017A2  EFD5  F00B         	goto	u2740
  3272   0017A6                     u2741:
  3273   0017A6  EFCE  F00B         	goto	l436
  3274   0017AA                     u2740:
  3275   0017AA                     
  3276                           ;APP/keypad.c: 270:         lcd_data('*');
  3277   0017AA  0E2A               	movlw	42
  3278   0017AC  ECC7  F00F         	call	_lcd_data
  3279   0017B0                     
  3280                           ;APP/keypad.c: 272:         set_user_passcode[i]='5';
  3281   0017B0  504F               	movf	_i^0,w,c
  3282   0017B2  0F38               	addlw	low _set_user_passcode
  3283   0017B4  6ED9               	movwf	fsr2l,c
  3284   0017B6  6ADA               	clrf	fsr2h,c
  3285   0017B8  0E35               	movlw	53
  3286   0017BA  6EDF               	movwf	indf2,c
  3287   0017BC                     l3326:
  3288                           
  3289                           ;APP/keypad.c: 275:     PORTBbits.RB1=1;
  3290   0017BC  8281               	bsf	129,1,c	;volatile
  3291   0017BE                     
  3292                           ;APP/keypad.c: 276:     PORTBbits.RB2=0;
  3293   0017BE  9481               	bcf	129,2,c	;volatile
  3294   0017C0                     
  3295                           ;APP/keypad.c: 277:     if(PORTBbits.RB5==0)
  3296   0017C0  BA81               	btfsc	129,5,c	;volatile
  3297   0017C2  EFE5  F00B         	goto	u2751
  3298   0017C6  EFE7  F00B         	goto	u2750
  3299   0017CA                     u2751:
  3300   0017CA  EFF7  F00B         	goto	l3338
  3301   0017CE                     u2750:
  3302   0017CE                     l440:
  3303                           
  3304                           ;APP/keypad.c: 279:         while(PORTBbits.RB5==0)
  3305   0017CE  AA81               	btfss	129,5,c	;volatile
  3306   0017D0  EFEC  F00B         	goto	u2761
  3307   0017D4  EFEE  F00B         	goto	u2760
  3308   0017D8                     u2761:
  3309   0017D8  EFE7  F00B         	goto	l440
  3310   0017DC                     u2760:
  3311   0017DC                     
  3312                           ;APP/keypad.c: 281:         lcd_data('*');
  3313   0017DC  0E2A               	movlw	42
  3314   0017DE  ECC7  F00F         	call	_lcd_data
  3315   0017E2                     
  3316                           ;APP/keypad.c: 283:         set_user_passcode[i]='8';
  3317   0017E2  504F               	movf	_i^0,w,c
  3318   0017E4  0F38               	addlw	low _set_user_passcode
  3319   0017E6  6ED9               	movwf	fsr2l,c
  3320   0017E8  6ADA               	clrf	fsr2h,c
  3321   0017EA  0E38               	movlw	56
  3322   0017EC  6EDF               	movwf	indf2,c
  3323   0017EE                     l3338:
  3324                           
  3325                           ;APP/keypad.c: 286:     PORTBbits.RB2=1;
  3326   0017EE  8481               	bsf	129,2,c	;volatile
  3327   0017F0                     
  3328                           ;APP/keypad.c: 287:     PORTBbits.RB3=0;
  3329   0017F0  9681               	bcf	129,3,c	;volatile
  3330   0017F2                     
  3331                           ;APP/keypad.c: 288:     if(PORTBbits.RB5==0)
  3332   0017F2  BA81               	btfsc	129,5,c	;volatile
  3333   0017F4  EFFE  F00B         	goto	u2771
  3334   0017F8  EF00  F00C         	goto	u2770
  3335   0017FC                     u2771:
  3336   0017FC  EF10  F00C         	goto	l3350
  3337   001800                     u2770:
  3338   001800                     l444:
  3339                           
  3340                           ;APP/keypad.c: 290:         while(PORTBbits.RB5==0)
  3341   001800  AA81               	btfss	129,5,c	;volatile
  3342   001802  EF05  F00C         	goto	u2781
  3343   001806  EF07  F00C         	goto	u2780
  3344   00180A                     u2781:
  3345   00180A  EF00  F00C         	goto	l444
  3346   00180E                     u2780:
  3347   00180E                     
  3348                           ;APP/keypad.c: 292:             lcd_data('*');
  3349   00180E  0E2A               	movlw	42
  3350   001810  ECC7  F00F         	call	_lcd_data
  3351   001814                     
  3352                           ;APP/keypad.c: 294:             set_user_passcode[i]='0';
  3353   001814  504F               	movf	_i^0,w,c
  3354   001816  0F38               	addlw	low _set_user_passcode
  3355   001818  6ED9               	movwf	fsr2l,c
  3356   00181A  6ADA               	clrf	fsr2h,c
  3357   00181C  0E30               	movlw	48
  3358   00181E  6EDF               	movwf	indf2,c
  3359   001820                     l3350:
  3360                           
  3361                           ;APP/keypad.c: 296:     PORTBbits.RB3=1;
  3362   001820  8681               	bsf	129,3,c	;volatile
  3363   001822  0012               	return		;funcret
  3364   001824                     __end_of_col6:
  3365                           	callstack 0
  3366                           
  3367 ;; *************** function _col5 *****************
  3368 ;; Defined at:
  3369 ;;		line 203 in file "APP/keypad.c"
  3370 ;; Parameters:    Size  Location     Type
  3371 ;;		None
  3372 ;; Auto vars:     Size  Location     Type
  3373 ;;		None
  3374 ;; Return value:  Size  Location     Type
  3375 ;;                  1    wreg      void 
  3376 ;; Registers used:
  3377 ;;		wreg, fsr2l, fsr2h, status,2, status,0, cstack
  3378 ;; Tracked objects:
  3379 ;;		On entry : 0/0
  3380 ;;		On exit  : 0/0
  3381 ;;		Unchanged: 0/0
  3382 ;; Data sizes:     COMRAM   BANK0   BANK1   BANK2   BANK3   BANK4   BANK5
  3383 ;;      Params:         0       0       0       0       0       0       0
  3384 ;;      Locals:         0       0       0       0       0       0       0
  3385 ;;      Temps:          0       0       0       0       0       0       0
  3386 ;;      Totals:         0       0       0       0       0       0       0
  3387 ;;Total ram usage:        0 bytes
  3388 ;; Hardware stack levels used: 1
  3389 ;; Hardware stack levels required when called: 4
  3390 ;; This function calls:
  3391 ;;		_lcd_data
  3392 ;; This function is called by:
  3393 ;;		_set_user_password
  3394 ;; This function uses a non-reentrant model
  3395 ;;
  3396                           
  3397                           	psect	text14
  3398   001824                     __ptext14:
  3399                           	callstack 0
  3400   001824                     _col5:
  3401                           	callstack 24
  3402   001824                     
  3403                           ;APP/keypad.c: 205:     PORTBbits.RB0=PORTBbits.RB1=PORTBbits.RB2=PORTBbits.RB3=1;
  3404   001824  8681               	bsf	129,3,c	;volatile
  3405   001826  8481               	bsf	129,2,c	;volatile
  3406   001828  8281               	bsf	129,1,c	;volatile
  3407   00182A  8081               	bsf	129,0,c	;volatile
  3408                           
  3409                           ;APP/keypad.c: 206:     PORTBbits.RB0=0;
  3410   00182C  9081               	bcf	129,0,c	;volatile
  3411                           
  3412                           ;APP/keypad.c: 207:     if(PORTBbits.RB4==0)
  3413   00182E  B881               	btfsc	129,4,c	;volatile
  3414   001830  EF1C  F00C         	goto	u2631
  3415   001834  EF1E  F00C         	goto	u2630
  3416   001838                     u2631:
  3417   001838  EF2E  F00C         	goto	l3268
  3418   00183C                     u2630:
  3419   00183C                     l413:
  3420                           
  3421                           ;APP/keypad.c: 209:         while(PORTBbits.RB4==0)
  3422   00183C  A881               	btfss	129,4,c	;volatile
  3423   00183E  EF23  F00C         	goto	u2641
  3424   001842  EF25  F00C         	goto	u2640
  3425   001846                     u2641:
  3426   001846  EF1E  F00C         	goto	l413
  3427   00184A                     u2640:
  3428   00184A                     
  3429                           ;APP/keypad.c: 211:         lcd_data('*');
  3430   00184A  0E2A               	movlw	42
  3431   00184C  ECC7  F00F         	call	_lcd_data
  3432   001850                     
  3433                           ;APP/keypad.c: 213:         set_user_passcode[i]='1';
  3434   001850  504F               	movf	_i^0,w,c
  3435   001852  0F38               	addlw	low _set_user_passcode
  3436   001854  6ED9               	movwf	fsr2l,c
  3437   001856  6ADA               	clrf	fsr2h,c
  3438   001858  0E31               	movlw	49
  3439   00185A  6EDF               	movwf	indf2,c
  3440   00185C                     l3268:
  3441                           
  3442                           ;APP/keypad.c: 216:     PORTBbits.RB0=1;
  3443   00185C  8081               	bsf	129,0,c	;volatile
  3444   00185E                     
  3445                           ;APP/keypad.c: 217:     PORTBbits.RB1=0;
  3446   00185E  9281               	bcf	129,1,c	;volatile
  3447   001860                     
  3448                           ;APP/keypad.c: 218:     if(PORTBbits.RB4==0)
  3449   001860  B881               	btfsc	129,4,c	;volatile
  3450   001862  EF35  F00C         	goto	u2651
  3451   001866  EF37  F00C         	goto	u2650
  3452   00186A                     u2651:
  3453   00186A  EF47  F00C         	goto	l3280
  3454   00186E                     u2650:
  3455   00186E                     l417:
  3456                           
  3457                           ;APP/keypad.c: 220:         while(PORTBbits.RB4==0)
  3458   00186E  A881               	btfss	129,4,c	;volatile
  3459   001870  EF3C  F00C         	goto	u2661
  3460   001874  EF3E  F00C         	goto	u2660
  3461   001878                     u2661:
  3462   001878  EF37  F00C         	goto	l417
  3463   00187C                     u2660:
  3464   00187C                     
  3465                           ;APP/keypad.c: 222:         lcd_data('*');
  3466   00187C  0E2A               	movlw	42
  3467   00187E  ECC7  F00F         	call	_lcd_data
  3468   001882                     
  3469                           ;APP/keypad.c: 224:         set_user_passcode[i]='4';
  3470   001882  504F               	movf	_i^0,w,c
  3471   001884  0F38               	addlw	low _set_user_passcode
  3472   001886  6ED9               	movwf	fsr2l,c
  3473   001888  6ADA               	clrf	fsr2h,c
  3474   00188A  0E34               	movlw	52
  3475   00188C  6EDF               	movwf	indf2,c
  3476   00188E                     l3280:
  3477                           
  3478                           ;APP/keypad.c: 227:     PORTBbits.RB1=1;
  3479   00188E  8281               	bsf	129,1,c	;volatile
  3480   001890                     
  3481                           ;APP/keypad.c: 228:     PORTBbits.RB2=0;
  3482   001890  9481               	bcf	129,2,c	;volatile
  3483   001892                     
  3484                           ;APP/keypad.c: 229:     if(PORTBbits.RB4==0)
  3485   001892  B881               	btfsc	129,4,c	;volatile
  3486   001894  EF4E  F00C         	goto	u2671
  3487   001898  EF50  F00C         	goto	u2670
  3488   00189C                     u2671:
  3489   00189C  EF60  F00C         	goto	l3292
  3490   0018A0                     u2670:
  3491   0018A0                     l421:
  3492                           
  3493                           ;APP/keypad.c: 231:         while(PORTBbits.RB4==0)
  3494   0018A0  A881               	btfss	129,4,c	;volatile
  3495   0018A2  EF55  F00C         	goto	u2681
  3496   0018A6  EF57  F00C         	goto	u2680
  3497   0018AA                     u2681:
  3498   0018AA  EF50  F00C         	goto	l421
  3499   0018AE                     u2680:
  3500   0018AE                     
  3501                           ;APP/keypad.c: 233:         lcd_data('*');
  3502   0018AE  0E2A               	movlw	42
  3503   0018B0  ECC7  F00F         	call	_lcd_data
  3504   0018B4                     
  3505                           ;APP/keypad.c: 235:        set_user_passcode[i]='7';
  3506   0018B4  504F               	movf	_i^0,w,c
  3507   0018B6  0F38               	addlw	low _set_user_passcode
  3508   0018B8  6ED9               	movwf	fsr2l,c
  3509   0018BA  6ADA               	clrf	fsr2h,c
  3510   0018BC  0E37               	movlw	55
  3511   0018BE  6EDF               	movwf	indf2,c
  3512   0018C0                     l3292:
  3513                           
  3514                           ;APP/keypad.c: 238:     PORTBbits.RB2=1;
  3515   0018C0  8481               	bsf	129,2,c	;volatile
  3516   0018C2                     
  3517                           ;APP/keypad.c: 239:     PORTBbits.RB3=0;
  3518   0018C2  9681               	bcf	129,3,c	;volatile
  3519   0018C4                     
  3520                           ;APP/keypad.c: 240:     if(PORTBbits.RB4==0)
  3521   0018C4  B881               	btfsc	129,4,c	;volatile
  3522   0018C6  EF67  F00C         	goto	u2691
  3523   0018CA  EF69  F00C         	goto	u2690
  3524   0018CE                     u2691:
  3525   0018CE  EF79  F00C         	goto	l3304
  3526   0018D2                     u2690:
  3527   0018D2                     l425:
  3528                           
  3529                           ;APP/keypad.c: 242:         while(PORTBbits.RB4==0)
  3530   0018D2  A881               	btfss	129,4,c	;volatile
  3531   0018D4  EF6E  F00C         	goto	u2701
  3532   0018D8  EF70  F00C         	goto	u2700
  3533   0018DC                     u2701:
  3534   0018DC  EF69  F00C         	goto	l425
  3535   0018E0                     u2700:
  3536   0018E0                     
  3537                           ;APP/keypad.c: 244:             lcd_data('*');
  3538   0018E0  0E2A               	movlw	42
  3539   0018E2  ECC7  F00F         	call	_lcd_data
  3540   0018E6                     
  3541                           ;APP/keypad.c: 246:           set_user_passcode[i]='*';
  3542   0018E6  504F               	movf	_i^0,w,c
  3543   0018E8  0F38               	addlw	low _set_user_passcode
  3544   0018EA  6ED9               	movwf	fsr2l,c
  3545   0018EC  6ADA               	clrf	fsr2h,c
  3546   0018EE  0E2A               	movlw	42
  3547   0018F0  6EDF               	movwf	indf2,c
  3548   0018F2                     l3304:
  3549                           
  3550                           ;APP/keypad.c: 248:     PORTBbits.RB3=1;
  3551   0018F2  8681               	bsf	129,3,c	;volatile
  3552   0018F4  0012               	return		;funcret
  3553   0018F6                     __end_of_col5:
  3554                           	callstack 0
  3555                           
  3556 ;; *************** function _read_from_eeprom *****************
  3557 ;; Defined at:
  3558 ;;		line 4 in file "APP/EEPROM.c"
  3559 ;; Parameters:    Size  Location     Type
  3560 ;;  address         1    wreg     unsigned char 
  3561 ;; Auto vars:     Size  Location     Type
  3562 ;;  address         1    0[COMRAM] unsigned char 
  3563 ;; Return value:  Size  Location     Type
  3564 ;;                  1    wreg      unsigned char 
  3565 ;; Registers used:
  3566 ;;		wreg, status,2
  3567 ;; Tracked objects:
  3568 ;;		On entry : 0/0
  3569 ;;		On exit  : 0/0
  3570 ;;		Unchanged: 0/0
  3571 ;; Data sizes:     COMRAM   BANK0   BANK1   BANK2   BANK3   BANK4   BANK5
  3572 ;;      Params:         0       0       0       0       0       0       0
  3573 ;;      Locals:         1       0       0       0       0       0       0
  3574 ;;      Temps:          0       0       0       0       0       0       0
  3575 ;;      Totals:         1       0       0       0       0       0       0
  3576 ;;Total ram usage:        1 bytes
  3577 ;; Hardware stack levels used: 1
  3578 ;; This function calls:
  3579 ;;		Nothing
  3580 ;; This function is called by:
  3581 ;;		_runApp
  3582 ;; This function uses a non-reentrant model
  3583 ;;
  3584                           
  3585                           	psect	text15
  3586   002010                     __ptext15:
  3587                           	callstack 0
  3588   002010                     _read_from_eeprom:
  3589                           	callstack 29
  3590                           
  3591                           ;incstack = 0
  3592                           ;read_from_eeprom@address stored from wreg
  3593   002010  6E01               	movwf	read_from_eeprom@address^0,c
  3594   002012                     l543:
  3595   002012  B2A6               	btfsc	166,1,c	;volsfr
  3596   002014  EF0E  F010         	goto	u2981
  3597   002018  EF10  F010         	goto	u2980
  3598   00201C                     u2981:
  3599   00201C  EF09  F010         	goto	l543
  3600   002020                     u2980:
  3601   002020  B0A6               	btfsc	166,0,c	;volsfr
  3602   002022  EF15  F010         	goto	u2991
  3603   002026  EF17  F010         	goto	u2990
  3604   00202A                     u2991:
  3605   00202A  EF09  F010         	goto	l543
  3606   00202E                     u2990:
  3607   00202E                     
  3608                           ;APP/EEPROM.c: 8:     EEADR = address;
  3609   00202E  C001  FFA9         	movff	read_from_eeprom@address,4009	;volatile
  3610   002032                     
  3611                           ;APP/EEPROM.c: 9:     EECON1bits.EEPGD = 0;
  3612   002032  9EA6               	bcf	166,7,c	;volsfr
  3613   002034                     
  3614                           ;APP/EEPROM.c: 10:     EECON1bits.CFGS = 0;
  3615   002034  9CA6               	bcf	166,6,c	;volsfr
  3616   002036                     
  3617                           ;APP/EEPROM.c: 11:     EECON1bits.RD = 1;
  3618   002036  80A6               	bsf	166,0,c	;volsfr
  3619   002038                     l546:
  3620   002038  B0A6               	btfsc	166,0,c	;volsfr
  3621   00203A  EF21  F010         	goto	u3001
  3622   00203E  EF23  F010         	goto	u3000
  3623   002042                     u3001:
  3624   002042  EF1C  F010         	goto	l546
  3625   002046                     u3000:
  3626   002046                     
  3627                           ;APP/EEPROM.c: 15:     return EEDATA;
  3628   002046  50A8               	movf	168,w,c	;volatile
  3629   002048  0012               	return		;funcret
  3630   00204A                     __end_of_read_from_eeprom:
  3631                           	callstack 0
  3632                           
  3633 ;; *************** function _lock_door *****************
  3634 ;; Defined at:
  3635 ;;		line 270 in file "APP/app.c"
  3636 ;; Parameters:    Size  Location     Type
  3637 ;;		None
  3638 ;; Auto vars:     Size  Location     Type
  3639 ;;		None
  3640 ;; Return value:  Size  Location     Type
  3641 ;;                  1    wreg      void 
  3642 ;; Registers used:
  3643 ;;		wreg, fsr1l, fsr1h, fsr2l, fsr2h, status,2, status,0, cstack
  3644 ;; Tracked objects:
  3645 ;;		On entry : 0/0
  3646 ;;		On exit  : 0/0
  3647 ;;		Unchanged: 0/0
  3648 ;; Data sizes:     COMRAM   BANK0   BANK1   BANK2   BANK3   BANK4   BANK5
  3649 ;;      Params:         0       0       0       0       0       0       0
  3650 ;;      Locals:         0       0       0       0       0       0       0
  3651 ;;      Temps:          0       0       0       0       0       0       0
  3652 ;;      Totals:         0       0       0       0       0       0       0
  3653 ;;Total ram usage:        0 bytes
  3654 ;; Hardware stack levels used: 1
  3655 ;; Hardware stack levels required when called: 6
  3656 ;; This function calls:
  3657 ;;		_col1
  3658 ;;		_col2
  3659 ;;		_col3
  3660 ;;		_col4
  3661 ;;		_compare
  3662 ;;		_delay
  3663 ;;		_lcd_cmd
  3664 ;;		_lcd_data
  3665 ;;		_lcd_reset
  3666 ;; This function is called by:
  3667 ;;		_runApp
  3668 ;; This function uses a non-reentrant model
  3669 ;;
  3670                           
  3671                           	psect	text16
  3672   001220                     __ptext16:
  3673                           	callstack 0
  3674   001220                     _lock_door:
  3675                           	callstack 23
  3676   001220                     
  3677                           ;APP/app.c: 272:         for(i=0;enter_pass_msg[i]!='\0';i++)
  3678   001220  0E00               	movlw	0
  3679   001222  6E50               	movwf	(_i+1)^0,c
  3680   001224  0E00               	movlw	0
  3681   001226  6E4F               	movwf	_i^0,c
  3682   001228  EF1F  F009         	goto	l3688
  3683   00122C                     l3684:
  3684                           
  3685                           ;APP/app.c: 273:          {;APP/app.c: 274:               lcd_data(enter_pass_msg[i]);
  3686   00122C  504F               	movf	_i^0,w,c
  3687   00122E  0F8D               	addlw	low _enter_pass_msg
  3688   001230  6ED9               	movwf	fsr2l,c
  3689   001232  6ADA               	clrf	fsr2h,c
  3690   001234  50DF               	movf	indf2,w,c
  3691   001236  ECC7  F00F         	call	_lcd_data
  3692   00123A                     
  3693                           ;APP/app.c: 275:          }
  3694   00123A  4A4F               	infsnz	_i^0,f,c
  3695   00123C  2A50               	incf	(_i+1)^0,f,c
  3696   00123E                     l3688:
  3697   00123E  504F               	movf	_i^0,w,c
  3698   001240  0F8D               	addlw	low _enter_pass_msg
  3699   001242  6ED9               	movwf	fsr2l,c
  3700   001244  6ADA               	clrf	fsr2h,c
  3701   001246  50DF               	movf	indf2,w,c
  3702   001248  A4D8               	btfss	status,2,c
  3703   00124A  EF29  F009         	goto	u3411
  3704   00124E  EF2B  F009         	goto	u3410
  3705   001252                     u3411:
  3706   001252  EF16  F009         	goto	l3684
  3707   001256                     u3410:
  3708   001256                     
  3709                           ;APP/app.c: 276:          lcd_cmd(0xc0);
  3710   001256  0EC0               	movlw	192
  3711   001258  ECA5  F00F         	call	_lcd_cmd
  3712   00125C                     
  3713                           ;APP/app.c: 278:          for(i=0;i<4;i++)
  3714   00125C  0E00               	movlw	0
  3715   00125E  6E50               	movwf	(_i+1)^0,c
  3716   001260  0E00               	movlw	0
  3717   001262  6E4F               	movwf	_i^0,c
  3718   001264                     l3694:
  3719   001264  BE50               	btfsc	(_i+1)^0,7,c
  3720   001266  EF3E  F009         	goto	u3421
  3721   00126A  5050               	movf	(_i+1)^0,w,c
  3722   00126C  E109               	bnz	u3420
  3723   00126E  0E04               	movlw	4
  3724   001270  5C4F               	subwf	_i^0,w,c
  3725   001272  A0D8               	btfss	status,0,c
  3726   001274  EF3E  F009         	goto	u3421
  3727   001278  EF40  F009         	goto	u3420
  3728   00127C                     u3421:
  3729   00127C  EF42  F009         	goto	l214
  3730   001280                     u3420:
  3731   001280  EF8A  F009         	goto	l3722
  3732   001284                     l214:
  3733                           
  3734                           ;APP/app.c: 279:          {;APP/app.c: 280:              PORTBbits.RB0=PORTBbits.RB1=POR
      +                          TBbits.RB2=PORTBbits.RB3=0;
  3735   001284  9681               	bcf	129,3,c	;volatile
  3736   001286  9481               	bcf	129,2,c	;volatile
  3737   001288  9281               	bcf	129,1,c	;volatile
  3738   00128A  9081               	bcf	129,0,c	;volatile
  3739   00128C                     l216:
  3740   00128C  A881               	btfss	129,4,c	;volatile
  3741   00128E  EF4B  F009         	goto	u3431
  3742   001292  EF4D  F009         	goto	u3430
  3743   001296                     u3431:
  3744   001296  EF62  F009         	goto	l220
  3745   00129A                     u3430:
  3746   00129A  AA81               	btfss	129,5,c	;volatile
  3747   00129C  EF52  F009         	goto	u3441
  3748   0012A0  EF54  F009         	goto	u3440
  3749   0012A4                     u3441:
  3750   0012A4  EF62  F009         	goto	l220
  3751   0012A8                     u3440:
  3752   0012A8  AC81               	btfss	129,6,c	;volatile
  3753   0012AA  EF59  F009         	goto	u3451
  3754   0012AE  EF5B  F009         	goto	u3450
  3755   0012B2                     u3451:
  3756   0012B2  EF62  F009         	goto	l220
  3757   0012B6                     u3450:
  3758   0012B6  BE81               	btfsc	129,7,c	;volatile
  3759   0012B8  EF60  F009         	goto	u3461
  3760   0012BC  EF62  F009         	goto	u3460
  3761   0012C0                     u3461:
  3762   0012C0  EF46  F009         	goto	l216
  3763   0012C4                     u3460:
  3764   0012C4                     l220:
  3765                           
  3766                           ;APP/app.c: 282:              if(PORTBbits.RB4==0)
  3767   0012C4  B881               	btfsc	129,4,c	;volatile
  3768   0012C6  EF67  F009         	goto	u3471
  3769   0012CA  EF69  F009         	goto	u3470
  3770   0012CE                     u3471:
  3771   0012CE  EF6B  F009         	goto	l3706
  3772   0012D2                     u3470:
  3773   0012D2                     
  3774                           ;APP/app.c: 283:              {;APP/app.c: 284:                  col1();
  3775   0012D2  EC6C  F00A         	call	_col1	;wreg free
  3776   0012D6                     l3706:
  3777                           
  3778                           ;APP/app.c: 286:              if(PORTBbits.RB5==0)
  3779   0012D6  BA81               	btfsc	129,5,c	;volatile
  3780   0012D8  EF70  F009         	goto	u3481
  3781   0012DC  EF72  F009         	goto	u3480
  3782   0012E0                     u3481:
  3783   0012E0  EF74  F009         	goto	l3710
  3784   0012E4                     u3480:
  3785   0012E4                     
  3786                           ;APP/app.c: 287:              {;APP/app.c: 288:                  col2();
  3787   0012E4  EC01  F00A         	call	_col2	;wreg free
  3788   0012E8                     l3710:
  3789                           
  3790                           ;APP/app.c: 290:              if(PORTBbits.RB6==0)
  3791   0012E8  BC81               	btfsc	129,6,c	;volatile
  3792   0012EA  EF79  F009         	goto	u3491
  3793   0012EE  EF7B  F009         	goto	u3490
  3794   0012F2                     u3491:
  3795   0012F2  EF7D  F009         	goto	l3714
  3796   0012F6                     u3490:
  3797   0012F6                     
  3798                           ;APP/app.c: 291:              {;APP/app.c: 292:                  col3();
  3799   0012F6  EC96  F009         	call	_col3	;wreg free
  3800   0012FA                     l3714:
  3801                           
  3802                           ;APP/app.c: 294:              if(PORTBbits.RB7==0)
  3803   0012FA  BE81               	btfsc	129,7,c	;volatile
  3804   0012FC  EF82  F009         	goto	u3501
  3805   001300  EF84  F009         	goto	u3500
  3806   001304                     u3501:
  3807   001304  EF86  F009         	goto	l3718
  3808   001308                     u3500:
  3809   001308                     
  3810                           ;APP/app.c: 295:              {;APP/app.c: 296:                  col4();
  3811   001308  EC7B  F00C         	call	_col4	;wreg free
  3812   00130C                     l3718:
  3813                           
  3814                           ;APP/app.c: 298:           }
  3815   00130C  4A4F               	infsnz	_i^0,f,c
  3816   00130E  2A50               	incf	(_i+1)^0,f,c
  3817   001310  EF32  F009         	goto	l3694
  3818   001314                     l3722:
  3819                           
  3820                           ;APP/app.c: 299:          compare(c);
  3821   001314  5053               	movf	_c^0,w,c
  3822   001316  EC74  F005         	call	_compare
  3823   00131A                     
  3824                           ;APP/app.c: 300:          delay(2000);
  3825   00131A  0E07               	movlw	7
  3826   00131C  6E02               	movwf	(delay@a+1)^0,c
  3827   00131E  0ED0               	movlw	208
  3828   001320  6E01               	movwf	delay@a^0,c
  3829   001322  EC06  F00F         	call	_delay	;wreg free
  3830   001326                     
  3831                           ;APP/app.c: 301:          lcd_reset();
  3832   001326  ECB6  F010         	call	_lcd_reset	;wreg free
  3833   00132A  0012               	return		;funcret
  3834   00132C                     __end_of_lock_door:
  3835                           	callstack 0
  3836                           
  3837 ;; *************** function _compare *****************
  3838 ;; Defined at:
  3839 ;;		line 337 in file "APP/app.c"
  3840 ;; Parameters:    Size  Location     Type
  3841 ;;  c               1    wreg     unsigned char 
  3842 ;; Auto vars:     Size  Location     Type
  3843 ;;  c               1   13[COMRAM] unsigned char 
  3844 ;;  q               3    0        PTR unsigned char 
  3845 ;;  p               2   18[COMRAM] PTR unsigned char 
  3846 ;;		 -> type_passcode(5), NULL(0), 
  3847 ;;  k               2   16[COMRAM] unsigned int 
  3848 ;;  j               2   14[COMRAM] unsigned int 
  3849 ;; Return value:  Size  Location     Type
  3850 ;;                  1    wreg      void 
  3851 ;; Registers used:
  3852 ;;		wreg, fsr1l, fsr1h, fsr2l, fsr2h, status,2, status,0, cstack
  3853 ;; Tracked objects:
  3854 ;;		On entry : 0/0
  3855 ;;		On exit  : 0/0
  3856 ;;		Unchanged: 0/0
  3857 ;; Data sizes:     COMRAM   BANK0   BANK1   BANK2   BANK3   BANK4   BANK5
  3858 ;;      Params:         0       0       0       0       0       0       0
  3859 ;;      Locals:         7       0       0       0       0       0       0
  3860 ;;      Temps:          0       0       0       0       0       0       0
  3861 ;;      Totals:         7       0       0       0       0       0       0
  3862 ;;Total ram usage:        7 bytes
  3863 ;; Hardware stack levels used: 1
  3864 ;; Hardware stack levels required when called: 5
  3865 ;; This function calls:
  3866 ;;		_delay
  3867 ;;		_lcd_cmd
  3868 ;;		_lcd_data
  3869 ;;		_lcd_reset
  3870 ;;		_motor_forward
  3871 ;;		_motor_off
  3872 ;;		_motor_reverse
  3873 ;;		_strstr
  3874 ;; This function is called by:
  3875 ;;		_unlock_door
  3876 ;;		_lock_door
  3877 ;; This function uses a non-reentrant model
  3878 ;;
  3879                           
  3880                           	psect	text17
  3881   000AE8                     __ptext17:
  3882                           	callstack 0
  3883   000AE8                     _compare:
  3884                           	callstack 23
  3885                           
  3886                           ;incstack = 0
  3887                           ;compare@c stored from wreg
  3888   000AE8  6E0E               	movwf	compare@c^0,c
  3889   000AEA                     
  3890                           ;APP/app.c: 337:     void compare(char c);APP/app.c: 338:     {;APP/app.c: 339:       ch
      +                          ar *p,*q;;APP/app.c: 340:      static unsigned int count = 0;;APP/app.c: 341:       unsi
      +                          gned int j,k;;APP/app.c: 342:       p=strstr((char*)type_passcode,(char*)old_user_passwo
      +                          rd);
  3891   000AEA  0E44               	movlw	low _type_passcode
  3892   000AEC  6E08               	movwf	strstr@h^0,c
  3893   000AEE  6A09               	clrf	(strstr@h+1)^0,c
  3894   000AF0  0E59               	movlw	low _old_user_password
  3895   000AF2  6E0A               	movwf	strstr@n^0,c
  3896   000AF4  EC41  F00D         	call	_strstr	;wreg free
  3897   000AF8  C008  F013         	movff	?_strstr,compare@p
  3898   000AFC  C009  F014         	movff	?_strstr+1,compare@p+1
  3899   000B00                     
  3900                           ;APP/app.c: 343:       if(p!=((void*)0))
  3901   000B00  5013               	movf	compare@p^0,w,c
  3902   000B02  1014               	iorwf	(compare@p+1)^0,w,c
  3903   000B04  B4D8               	btfsc	status,2,c
  3904   000B06  EF87  F005         	goto	u2491
  3905   000B0A  EF89  F005         	goto	u2490
  3906   000B0E                     u2491:
  3907   000B0E  EF3C  F006         	goto	l3200
  3908   000B12                     u2490:
  3909   000B12                     
  3910                           ;APP/app.c: 344:       {;APP/app.c: 345:           count = 0;
  3911   000B12  0E00               	movlw	0
  3912   000B14  6E4E               	movwf	(compare@count+1)^0,c
  3913   000B16  0E00               	movlw	0
  3914   000B18  6E4D               	movwf	compare@count^0,c
  3915                           
  3916                           ;APP/app.c: 346:       switch(c)
  3917   000B1A  EF31  F006         	goto	l3198
  3918   000B1E                     l3136:
  3919                           
  3920                           ;APP/app.c: 349:             if(p!=((void*)0))
  3921   000B1E  5013               	movf	compare@p^0,w,c
  3922   000B20  1014               	iorwf	(compare@p+1)^0,w,c
  3923   000B22  B4D8               	btfsc	status,2,c
  3924   000B24  EF96  F005         	goto	u2501
  3925   000B28  EF98  F005         	goto	u2500
  3926   000B2C                     u2501:
  3927   000B2C  EFC2  F005         	goto	l3154
  3928   000B30                     u2500:
  3929   000B30                     
  3930                           ;APP/app.c: 350:             {;APP/app.c: 352:             lcd_cmd(0x01);
  3931   000B30  0E01               	movlw	1
  3932   000B32  ECA5  F00F         	call	_lcd_cmd
  3933   000B36                     
  3934                           ;APP/app.c: 353:             for(i=0;s2[i]!='\0';i++)
  3935   000B36  0E00               	movlw	0
  3936   000B38  6E50               	movwf	(_i+1)^0,c
  3937   000B3A  0E00               	movlw	0
  3938   000B3C  6E4F               	movwf	_i^0,c
  3939   000B3E  EFAC  F005         	goto	l3148
  3940   000B42                     l3142:
  3941                           
  3942                           ;APP/app.c: 354:             {;APP/app.c: 355:               lcd_data(s2[i]);
  3943   000B42  504F               	movf	_i^0,w,c
  3944   000B44  0FAB               	addlw	low _s2
  3945   000B46  6ED9               	movwf	fsr2l,c
  3946   000B48  6ADA               	clrf	fsr2h,c
  3947   000B4A  50DF               	movf	indf2,w,c
  3948   000B4C  ECC7  F00F         	call	_lcd_data
  3949   000B50                     
  3950                           ;APP/app.c: 356:               motor_forward();
  3951   000B50  ECF5  F010         	call	_motor_forward	;wreg free
  3952   000B54                     
  3953                           ;APP/app.c: 357:             }
  3954   000B54  4A4F               	infsnz	_i^0,f,c
  3955   000B56  2A50               	incf	(_i+1)^0,f,c
  3956   000B58                     l3148:
  3957   000B58  504F               	movf	_i^0,w,c
  3958   000B5A  0FAB               	addlw	low _s2
  3959   000B5C  6ED9               	movwf	fsr2l,c
  3960   000B5E  6ADA               	clrf	fsr2h,c
  3961   000B60  50DF               	movf	indf2,w,c
  3962   000B62  A4D8               	btfss	status,2,c
  3963   000B64  EFB6  F005         	goto	u2511
  3964   000B68  EFB8  F005         	goto	u2510
  3965   000B6C                     u2511:
  3966   000B6C  EFA1  F005         	goto	l3142
  3967   000B70                     u2510:
  3968   000B70                     l3150:
  3969                           
  3970                           ;APP/app.c: 358:             delay(20000);
  3971   000B70  0E4E               	movlw	78
  3972   000B72  6E02               	movwf	(delay@a+1)^0,c
  3973   000B74  0E20               	movlw	32
  3974   000B76  6E01               	movwf	delay@a^0,c
  3975   000B78  EC06  F00F         	call	_delay	;wreg free
  3976   000B7C                     
  3977                           ;APP/app.c: 360:             motor_off();
  3978   000B7C  ECF1  F010         	call	_motor_off	;wreg free
  3979                           
  3980                           ;APP/app.c: 361:              }
  3981   000B80  EFE6  F006         	goto	l283
  3982   000B84                     l3154:
  3983                           
  3984                           ;APP/app.c: 363:             {;APP/app.c: 364:             lcd_cmd(0x01);
  3985   000B84  0E01               	movlw	1
  3986   000B86  ECA5  F00F         	call	_lcd_cmd
  3987   000B8A                     
  3988                           ;APP/app.c: 366:             for(i=0;s3[i]!='\0';i++)
  3989   000B8A  0E00               	movlw	0
  3990   000B8C  6E50               	movwf	(_i+1)^0,c
  3991   000B8E  0E00               	movlw	0
  3992   000B90  6E4F               	movwf	_i^0,c
  3993   000B92  EFD6  F005         	goto	l3164
  3994   000B96                     l3158:
  3995                           
  3996                           ;APP/app.c: 367:             {;APP/app.c: 368:               lcd_data(s3[i]);
  3997   000B96  504F               	movf	_i^0,w,c
  3998   000B98  0FBA               	addlw	low _s3
  3999   000B9A  6ED9               	movwf	fsr2l,c
  4000   000B9C  6ADA               	clrf	fsr2h,c
  4001   000B9E  50DF               	movf	indf2,w,c
  4002   000BA0  ECC7  F00F         	call	_lcd_data
  4003   000BA4                     
  4004                           ;APP/app.c: 369:               motor_off();
  4005   000BA4  ECF1  F010         	call	_motor_off	;wreg free
  4006   000BA8                     
  4007                           ;APP/app.c: 370:             }
  4008   000BA8  4A4F               	infsnz	_i^0,f,c
  4009   000BAA  2A50               	incf	(_i+1)^0,f,c
  4010   000BAC                     l3164:
  4011   000BAC  504F               	movf	_i^0,w,c
  4012   000BAE  0FBA               	addlw	low _s3
  4013   000BB0  6ED9               	movwf	fsr2l,c
  4014   000BB2  6ADA               	clrf	fsr2h,c
  4015   000BB4  50DF               	movf	indf2,w,c
  4016   000BB6  A4D8               	btfss	status,2,c
  4017   000BB8  EFE0  F005         	goto	u2521
  4018   000BBC  EFE2  F005         	goto	u2520
  4019   000BC0                     u2521:
  4020   000BC0  EFCB  F005         	goto	l3158
  4021   000BC4                     u2520:
  4022   000BC4  EFE6  F006         	goto	l283
  4023   000BC8                     l3166:
  4024                           
  4025                           ;APP/app.c: 375:             if(p!=((void*)0))
  4026   000BC8  5013               	movf	compare@p^0,w,c
  4027   000BCA  1014               	iorwf	(compare@p+1)^0,w,c
  4028   000BCC  B4D8               	btfsc	status,2,c
  4029   000BCE  EFEB  F005         	goto	u2531
  4030   000BD2  EFED  F005         	goto	u2530
  4031   000BD6                     u2531:
  4032   000BD6  EF0F  F006         	goto	l3184
  4033   000BDA                     u2530:
  4034   000BDA                     
  4035                           ;APP/app.c: 376:             {;APP/app.c: 378:             lcd_cmd(0x01);
  4036   000BDA  0E01               	movlw	1
  4037   000BDC  ECA5  F00F         	call	_lcd_cmd
  4038   000BE0                     
  4039                           ;APP/app.c: 379:             for(i=0;s2[i]!='\0';i++)
  4040   000BE0  0E00               	movlw	0
  4041   000BE2  6E50               	movwf	(_i+1)^0,c
  4042   000BE4  0E00               	movlw	0
  4043   000BE6  6E4F               	movwf	_i^0,c
  4044   000BE8  EF01  F006         	goto	l3178
  4045   000BEC                     l3172:
  4046                           
  4047                           ;APP/app.c: 380:             {;APP/app.c: 381:               lcd_data(s2[i]);
  4048   000BEC  504F               	movf	_i^0,w,c
  4049   000BEE  0FAB               	addlw	low _s2
  4050   000BF0  6ED9               	movwf	fsr2l,c
  4051   000BF2  6ADA               	clrf	fsr2h,c
  4052   000BF4  50DF               	movf	indf2,w,c
  4053   000BF6  ECC7  F00F         	call	_lcd_data
  4054   000BFA                     
  4055                           ;APP/app.c: 382:               motor_reverse();
  4056   000BFA  ECED  F010         	call	_motor_reverse	;wreg free
  4057   000BFE                     
  4058                           ;APP/app.c: 383:             }
  4059   000BFE  4A4F               	infsnz	_i^0,f,c
  4060   000C00  2A50               	incf	(_i+1)^0,f,c
  4061   000C02                     l3178:
  4062   000C02  504F               	movf	_i^0,w,c
  4063   000C04  0FAB               	addlw	low _s2
  4064   000C06  6ED9               	movwf	fsr2l,c
  4065   000C08  6ADA               	clrf	fsr2h,c
  4066   000C0A  50DF               	movf	indf2,w,c
  4067   000C0C  A4D8               	btfss	status,2,c
  4068   000C0E  EF0B  F006         	goto	u2541
  4069   000C12  EF0D  F006         	goto	u2540
  4070   000C16                     u2541:
  4071   000C16  EFF6  F005         	goto	l3172
  4072   000C1A                     u2540:
  4073   000C1A  EFB8  F005         	goto	l3150
  4074   000C1E                     l3184:
  4075                           
  4076                           ;APP/app.c: 389:             {;APP/app.c: 390:             lcd_cmd(0x01);
  4077   000C1E  0E01               	movlw	1
  4078   000C20  ECA5  F00F         	call	_lcd_cmd
  4079   000C24                     
  4080                           ;APP/app.c: 392:             for(i=0;s3[i]!='\0';i++)
  4081   000C24  0E00               	movlw	0
  4082   000C26  6E50               	movwf	(_i+1)^0,c
  4083   000C28  0E00               	movlw	0
  4084   000C2A  6E4F               	movwf	_i^0,c
  4085   000C2C  EF23  F006         	goto	l3194
  4086   000C30                     l3188:
  4087                           
  4088                           ;APP/app.c: 393:             {;APP/app.c: 394:               lcd_data(s3[i]);
  4089   000C30  504F               	movf	_i^0,w,c
  4090   000C32  0FBA               	addlw	low _s3
  4091   000C34  6ED9               	movwf	fsr2l,c
  4092   000C36  6ADA               	clrf	fsr2h,c
  4093   000C38  50DF               	movf	indf2,w,c
  4094   000C3A  ECC7  F00F         	call	_lcd_data
  4095   000C3E                     
  4096                           ;APP/app.c: 395:               motor_off();
  4097   000C3E  ECF1  F010         	call	_motor_off	;wreg free
  4098   000C42                     
  4099                           ;APP/app.c: 396:             }
  4100   000C42  4A4F               	infsnz	_i^0,f,c
  4101   000C44  2A50               	incf	(_i+1)^0,f,c
  4102   000C46                     l3194:
  4103   000C46  504F               	movf	_i^0,w,c
  4104   000C48  0FBA               	addlw	low _s3
  4105   000C4A  6ED9               	movwf	fsr2l,c
  4106   000C4C  6ADA               	clrf	fsr2h,c
  4107   000C4E  50DF               	movf	indf2,w,c
  4108   000C50  A4D8               	btfss	status,2,c
  4109   000C52  EF2D  F006         	goto	u2551
  4110   000C56  EF2F  F006         	goto	u2550
  4111   000C5A                     u2551:
  4112   000C5A  EF18  F006         	goto	l3188
  4113   000C5E                     u2550:
  4114   000C5E  EFE6  F006         	goto	l283
  4115   000C62                     l3198:
  4116   000C62  500E               	movf	compare@c^0,w,c
  4117                           
  4118                           ; Switch size 1, requested type "simple"
  4119                           ; Number of cases is 2, Range of values is 49 to 50
  4120                           ; switch strategies available:
  4121                           ; Name         Instructions Cycles
  4122                           ; simple_byte            7     4 (average)
  4123                           ;	Chosen strategy is simple_byte
  4124   000C64  0A31               	xorlw	49	; case 49
  4125   000C66  B4D8               	btfsc	status,2,c
  4126   000C68  EF8F  F005         	goto	l3136
  4127   000C6C  0A03               	xorlw	3	; case 50
  4128   000C6E  B4D8               	btfsc	status,2,c
  4129   000C70  EFE4  F005         	goto	l3166
  4130   000C74  EFE6  F006         	goto	l283
  4131   000C78                     l3200:
  4132                           
  4133                           ;APP/app.c: 403:     {;APP/app.c: 404:        count++;
  4134   000C78  4A4D               	infsnz	compare@count^0,f,c
  4135   000C7A  2A4E               	incf	(compare@count+1)^0,f,c
  4136   000C7C                     
  4137                           ;APP/app.c: 405:        lcd_reset();
  4138   000C7C  ECB6  F010         	call	_lcd_reset	;wreg free
  4139   000C80                     
  4140                           ;APP/app.c: 406:        for(i=0;s3[i]!='\0';i++)
  4141   000C80  0E00               	movlw	0
  4142   000C82  6E50               	movwf	(_i+1)^0,c
  4143   000C84  0E00               	movlw	0
  4144   000C86  6E4F               	movwf	_i^0,c
  4145   000C88  EF4F  F006         	goto	l3210
  4146   000C8C                     l3206:
  4147                           
  4148                           ;APP/app.c: 407:             {;APP/app.c: 408:               lcd_data(s3[i]);
  4149   000C8C  504F               	movf	_i^0,w,c
  4150   000C8E  0FBA               	addlw	low _s3
  4151   000C90  6ED9               	movwf	fsr2l,c
  4152   000C92  6ADA               	clrf	fsr2h,c
  4153   000C94  50DF               	movf	indf2,w,c
  4154   000C96  ECC7  F00F         	call	_lcd_data
  4155   000C9A                     
  4156                           ;APP/app.c: 409:             }
  4157   000C9A  4A4F               	infsnz	_i^0,f,c
  4158   000C9C  2A50               	incf	(_i+1)^0,f,c
  4159   000C9E                     l3210:
  4160   000C9E  504F               	movf	_i^0,w,c
  4161   000CA0  0FBA               	addlw	low _s3
  4162   000CA2  6ED9               	movwf	fsr2l,c
  4163   000CA4  6ADA               	clrf	fsr2h,c
  4164   000CA6  50DF               	movf	indf2,w,c
  4165   000CA8  A4D8               	btfss	status,2,c
  4166   000CAA  EF59  F006         	goto	u2561
  4167   000CAE  EF5B  F006         	goto	u2560
  4168   000CB2                     u2561:
  4169   000CB2  EF46  F006         	goto	l3206
  4170   000CB6                     u2560:
  4171   000CB6                     
  4172                           ;APP/app.c: 410:        if(p==((void*)0)&&count==3)
  4173   000CB6  5013               	movf	compare@p^0,w,c
  4174   000CB8  1014               	iorwf	(compare@p+1)^0,w,c
  4175   000CBA  A4D8               	btfss	status,2,c
  4176   000CBC  EF62  F006         	goto	u2571
  4177   000CC0  EF64  F006         	goto	u2570
  4178   000CC4                     u2571:
  4179   000CC4  EFE6  F006         	goto	l283
  4180   000CC8                     u2570:
  4181   000CC8  0E03               	movlw	3
  4182   000CCA  184D               	xorwf	compare@count^0,w,c
  4183   000CCC  104E               	iorwf	(compare@count+1)^0,w,c
  4184   000CCE  A4D8               	btfss	status,2,c
  4185   000CD0  EF6C  F006         	goto	u2581
  4186   000CD4  EF6E  F006         	goto	u2580
  4187   000CD8                     u2581:
  4188   000CD8  EFE6  F006         	goto	l283
  4189   000CDC                     u2580:
  4190   000CDC                     
  4191                           ;APP/app.c: 411:        {;APP/app.c: 412:         lcd_reset();
  4192   000CDC  ECB6  F010         	call	_lcd_reset	;wreg free
  4193   000CE0                     
  4194                           ;APP/app.c: 413:         for(i=0;wait1[i]!='\0';i++)
  4195   000CE0  0E00               	movlw	0
  4196   000CE2  6E50               	movwf	(_i+1)^0,c
  4197   000CE4  0E00               	movlw	0
  4198   000CE6  6E4F               	movwf	_i^0,c
  4199   000CE8  EF7F  F006         	goto	l3224
  4200   000CEC                     l3220:
  4201                           
  4202                           ;APP/app.c: 414:          {;APP/app.c: 415:               lcd_data(wait1[i]);
  4203   000CEC  504F               	movf	_i^0,w,c
  4204   000CEE  0F28               	addlw	low _wait1
  4205   000CF0  6ED9               	movwf	fsr2l,c
  4206   000CF2  6ADA               	clrf	fsr2h,c
  4207   000CF4  50DF               	movf	indf2,w,c
  4208   000CF6  ECC7  F00F         	call	_lcd_data
  4209   000CFA                     
  4210                           ;APP/app.c: 416:          }
  4211   000CFA  4A4F               	infsnz	_i^0,f,c
  4212   000CFC  2A50               	incf	(_i+1)^0,f,c
  4213   000CFE                     l3224:
  4214   000CFE  504F               	movf	_i^0,w,c
  4215   000D00  0F28               	addlw	low _wait1
  4216   000D02  6ED9               	movwf	fsr2l,c
  4217   000D04  6ADA               	clrf	fsr2h,c
  4218   000D06  50DF               	movf	indf2,w,c
  4219   000D08  A4D8               	btfss	status,2,c
  4220   000D0A  EF89  F006         	goto	u2591
  4221   000D0E  EF8B  F006         	goto	u2590
  4222   000D12                     u2591:
  4223   000D12  EF76  F006         	goto	l3220
  4224   000D16                     u2590:
  4225   000D16                     
  4226                           ;APP/app.c: 417:          lcd_cmd(0xc0);
  4227   000D16  0EC0               	movlw	192
  4228   000D18  ECA5  F00F         	call	_lcd_cmd
  4229   000D1C                     
  4230                           ;APP/app.c: 418:          for(i=0;wait2[i]!='\0';i++)
  4231   000D1C  0E00               	movlw	0
  4232   000D1E  6E50               	movwf	(_i+1)^0,c
  4233   000D20  0E00               	movlw	0
  4234   000D22  6E4F               	movwf	_i^0,c
  4235   000D24  EF9D  F006         	goto	l3234
  4236   000D28                     l3230:
  4237                           
  4238                           ;APP/app.c: 419:          {;APP/app.c: 420:               lcd_data(wait2[i]);
  4239   000D28  504F               	movf	_i^0,w,c
  4240   000D2A  0FED               	addlw	low _wait2
  4241   000D2C  6ED9               	movwf	fsr2l,c
  4242   000D2E  6ADA               	clrf	fsr2h,c
  4243   000D30  50DF               	movf	indf2,w,c
  4244   000D32  ECC7  F00F         	call	_lcd_data
  4245   000D36                     
  4246                           ;APP/app.c: 421:          }
  4247   000D36  4A4F               	infsnz	_i^0,f,c
  4248   000D38  2A50               	incf	(_i+1)^0,f,c
  4249   000D3A                     l3234:
  4250   000D3A  504F               	movf	_i^0,w,c
  4251   000D3C  0FED               	addlw	low _wait2
  4252   000D3E  6ED9               	movwf	fsr2l,c
  4253   000D40  6ADA               	clrf	fsr2h,c
  4254   000D42  50DF               	movf	indf2,w,c
  4255   000D44  A4D8               	btfss	status,2,c
  4256   000D46  EFA7  F006         	goto	u2601
  4257   000D4A  EFA9  F006         	goto	u2600
  4258   000D4E                     u2601:
  4259   000D4E  EF94  F006         	goto	l3230
  4260   000D52                     u2600:
  4261   000D52                     
  4262                           ;APP/app.c: 422:         for(j=0;j<3;j++)
  4263   000D52  0E00               	movlw	0
  4264   000D54  6E10               	movwf	(compare@j+1)^0,c
  4265   000D56  0E00               	movlw	0
  4266   000D58  6E0F               	movwf	compare@j^0,c
  4267   000D5A                     l3242:
  4268                           
  4269                           ;APP/app.c: 423:          {;APP/app.c: 424:            for(k=0;k<=9;k++)
  4270   000D5A  0E00               	movlw	0
  4271   000D5C  6E12               	movwf	(compare@k+1)^0,c
  4272   000D5E  0E00               	movlw	0
  4273   000D60  6E11               	movwf	compare@k^0,c
  4274   000D62                     l3248:
  4275                           
  4276                           ;APP/app.c: 425:            {;APP/app.c: 426:               lcd_cmd(0xca);
  4277   000D62  0ECA               	movlw	202
  4278   000D64  ECA5  F00F         	call	_lcd_cmd
  4279                           
  4280                           ;APP/app.c: 427:               delay(200);
  4281   000D68  0E00               	movlw	0
  4282   000D6A  6E02               	movwf	(delay@a+1)^0,c
  4283   000D6C  0EC8               	movlw	200
  4284   000D6E  6E01               	movwf	delay@a^0,c
  4285   000D70  EC06  F00F         	call	_delay	;wreg free
  4286                           
  4287                           ;APP/app.c: 428:               lcd_data(j+'0');
  4288   000D74  500F               	movf	compare@j^0,w,c
  4289   000D76  0F30               	addlw	48
  4290   000D78  ECC7  F00F         	call	_lcd_data
  4291                           
  4292                           ;APP/app.c: 429:               lcd_data(k+'0');
  4293   000D7C  5011               	movf	compare@k^0,w,c
  4294   000D7E  0F30               	addlw	48
  4295   000D80  ECC7  F00F         	call	_lcd_data
  4296                           
  4297                           ;APP/app.c: 430:               delay(2000);
  4298   000D84  0E07               	movlw	7
  4299   000D86  6E02               	movwf	(delay@a+1)^0,c
  4300   000D88  0ED0               	movlw	208
  4301   000D8A  6E01               	movwf	delay@a^0,c
  4302   000D8C  EC06  F00F         	call	_delay	;wreg free
  4303   000D90                     
  4304                           ;APP/app.c: 431:            }
  4305   000D90  4A11               	infsnz	compare@k^0,f,c
  4306   000D92  2A12               	incf	(compare@k+1)^0,f,c
  4307   000D94  5012               	movf	(compare@k+1)^0,w,c
  4308   000D96  E109               	bnz	u2610
  4309   000D98  0E0A               	movlw	10
  4310   000D9A  5C11               	subwf	compare@k^0,w,c
  4311   000D9C  A0D8               	btfss	status,0,c
  4312   000D9E  EFD3  F006         	goto	u2611
  4313   000DA2  EFD5  F006         	goto	u2610
  4314   000DA6                     u2611:
  4315   000DA6  EFB1  F006         	goto	l3248
  4316   000DAA                     u2610:
  4317   000DAA                     
  4318                           ;APP/app.c: 432:          }
  4319   000DAA  4A0F               	infsnz	compare@j^0,f,c
  4320   000DAC  2A10               	incf	(compare@j+1)^0,f,c
  4321   000DAE  5010               	movf	(compare@j+1)^0,w,c
  4322   000DB0  E109               	bnz	u2620
  4323   000DB2  0E03               	movlw	3
  4324   000DB4  5C0F               	subwf	compare@j^0,w,c
  4325   000DB6  A0D8               	btfss	status,0,c
  4326   000DB8  EFE0  F006         	goto	u2621
  4327   000DBC  EFE2  F006         	goto	u2620
  4328   000DC0                     u2621:
  4329   000DC0  EFAD  F006         	goto	l3242
  4330   000DC4                     u2620:
  4331   000DC4                     
  4332                           ;APP/app.c: 433:          count = 0;
  4333   000DC4  0E00               	movlw	0
  4334   000DC6  6E4E               	movwf	(compare@count+1)^0,c
  4335   000DC8  0E00               	movlw	0
  4336   000DCA  6E4D               	movwf	compare@count^0,c
  4337   000DCC                     l283:
  4338   000DCC  0012               	return		;funcret
  4339   000DCE                     __end_of_compare:
  4340                           	callstack 0
  4341                           
  4342 ;; *************** function _motor_reverse *****************
  4343 ;; Defined at:
  4344 ;;		line 8 in file "APP/l293d.c"
  4345 ;; Parameters:    Size  Location     Type
  4346 ;;		None
  4347 ;; Auto vars:     Size  Location     Type
  4348 ;;		None
  4349 ;; Return value:  Size  Location     Type
  4350 ;;                  1    wreg      void 
  4351 ;; Registers used:
  4352 ;;		None
  4353 ;; Tracked objects:
  4354 ;;		On entry : 0/0
  4355 ;;		On exit  : 0/0
  4356 ;;		Unchanged: 0/0
  4357 ;; Data sizes:     COMRAM   BANK0   BANK1   BANK2   BANK3   BANK4   BANK5
  4358 ;;      Params:         0       0       0       0       0       0       0
  4359 ;;      Locals:         0       0       0       0       0       0       0
  4360 ;;      Temps:          0       0       0       0       0       0       0
  4361 ;;      Totals:         0       0       0       0       0       0       0
  4362 ;;Total ram usage:        0 bytes
  4363 ;; Hardware stack levels used: 1
  4364 ;; This function calls:
  4365 ;;		Nothing
  4366 ;; This function is called by:
  4367 ;;		_compare
  4368 ;; This function uses a non-reentrant model
  4369 ;;
  4370                           
  4371                           	psect	text18
  4372   0021DA                     __ptext18:
  4373                           	callstack 0
  4374   0021DA                     _motor_reverse:
  4375                           	callstack 27
  4376   0021DA                     
  4377                           ;APP/l293d.c: 10:     PORTDbits.RD6 = 0;
  4378   0021DA  9C83               	bcf	131,6,c	;volatile
  4379                           
  4380                           ;APP/l293d.c: 11:     PORTDbits.RD7 = 1;
  4381   0021DC  8E83               	bsf	131,7,c	;volatile
  4382                           
  4383                           ;APP/l293d.c: 12:     PORTAbits.RA0 = 1;
  4384   0021DE  8080               	bsf	128,0,c	;volatile
  4385   0021E0  0012               	return		;funcret
  4386   0021E2                     __end_of_motor_reverse:
  4387                           	callstack 0
  4388                           
  4389 ;; *************** function _motor_off *****************
  4390 ;; Defined at:
  4391 ;;		line 14 in file "APP/l293d.c"
  4392 ;; Parameters:    Size  Location     Type
  4393 ;;		None
  4394 ;; Auto vars:     Size  Location     Type
  4395 ;;		None
  4396 ;; Return value:  Size  Location     Type
  4397 ;;                  1    wreg      void 
  4398 ;; Registers used:
  4399 ;;		None
  4400 ;; Tracked objects:
  4401 ;;		On entry : 0/0
  4402 ;;		On exit  : 0/0
  4403 ;;		Unchanged: 0/0
  4404 ;; Data sizes:     COMRAM   BANK0   BANK1   BANK2   BANK3   BANK4   BANK5
  4405 ;;      Params:         0       0       0       0       0       0       0
  4406 ;;      Locals:         0       0       0       0       0       0       0
  4407 ;;      Temps:          0       0       0       0       0       0       0
  4408 ;;      Totals:         0       0       0       0       0       0       0
  4409 ;;Total ram usage:        0 bytes
  4410 ;; Hardware stack levels used: 1
  4411 ;; This function calls:
  4412 ;;		Nothing
  4413 ;; This function is called by:
  4414 ;;		_compare
  4415 ;; This function uses a non-reentrant model
  4416 ;;
  4417                           
  4418                           	psect	text19
  4419   0021E2                     __ptext19:
  4420                           	callstack 0
  4421   0021E2                     _motor_off:
  4422                           	callstack 27
  4423   0021E2                     
  4424                           ;APP/l293d.c: 16:     PORTDbits.RD6 = 0;
  4425   0021E2  9C83               	bcf	131,6,c	;volatile
  4426                           
  4427                           ;APP/l293d.c: 17:     PORTDbits.RD7 = 0;
  4428   0021E4  9E83               	bcf	131,7,c	;volatile
  4429                           
  4430                           ;APP/l293d.c: 18:     PORTAbits.RA0 = 0;
  4431   0021E6  9080               	bcf	128,0,c	;volatile
  4432   0021E8  0012               	return		;funcret
  4433   0021EA                     __end_of_motor_off:
  4434                           	callstack 0
  4435                           
  4436 ;; *************** function _motor_forward *****************
  4437 ;; Defined at:
  4438 ;;		line 2 in file "APP/l293d.c"
  4439 ;; Parameters:    Size  Location     Type
  4440 ;;		None
  4441 ;; Auto vars:     Size  Location     Type
  4442 ;;		None
  4443 ;; Return value:  Size  Location     Type
  4444 ;;                  1    wreg      void 
  4445 ;; Registers used:
  4446 ;;		None
  4447 ;; Tracked objects:
  4448 ;;		On entry : 0/0
  4449 ;;		On exit  : 0/0
  4450 ;;		Unchanged: 0/0
  4451 ;; Data sizes:     COMRAM   BANK0   BANK1   BANK2   BANK3   BANK4   BANK5
  4452 ;;      Params:         0       0       0       0       0       0       0
  4453 ;;      Locals:         0       0       0       0       0       0       0
  4454 ;;      Temps:          0       0       0       0       0       0       0
  4455 ;;      Totals:         0       0       0       0       0       0       0
  4456 ;;Total ram usage:        0 bytes
  4457 ;; Hardware stack levels used: 1
  4458 ;; This function calls:
  4459 ;;		Nothing
  4460 ;; This function is called by:
  4461 ;;		_compare
  4462 ;; This function uses a non-reentrant model
  4463 ;;
  4464                           
  4465                           	psect	text20
  4466   0021EA                     __ptext20:
  4467                           	callstack 0
  4468   0021EA                     _motor_forward:
  4469                           	callstack 27
  4470   0021EA                     
  4471                           ;APP/l293d.c: 4:     PORTDbits.RD6 = 1;
  4472   0021EA  8C83               	bsf	131,6,c	;volatile
  4473                           
  4474                           ;APP/l293d.c: 5:     PORTDbits.RD7 = 0;
  4475   0021EC  9E83               	bcf	131,7,c	;volatile
  4476                           
  4477                           ;APP/l293d.c: 6:     PORTAbits.RA0 = 1;
  4478   0021EE  8080               	bsf	128,0,c	;volatile
  4479   0021F0  0012               	return		;funcret
  4480   0021F2                     __end_of_motor_forward:
  4481                           	callstack 0
  4482                           
  4483 ;; *************** function _lcd_reset *****************
  4484 ;; Defined at:
  4485 ;;		line 4 in file "APP/lcd.c"
  4486 ;; Parameters:    Size  Location     Type
  4487 ;;		None
  4488 ;; Auto vars:     Size  Location     Type
  4489 ;;		None
  4490 ;; Return value:  Size  Location     Type
  4491 ;;                  1    wreg      void 
  4492 ;; Registers used:
  4493 ;;		wreg, status,2, status,0, cstack
  4494 ;; Tracked objects:
  4495 ;;		On entry : 0/0
  4496 ;;		On exit  : 0/0
  4497 ;;		Unchanged: 0/0
  4498 ;; Data sizes:     COMRAM   BANK0   BANK1   BANK2   BANK3   BANK4   BANK5
  4499 ;;      Params:         0       0       0       0       0       0       0
  4500 ;;      Locals:         0       0       0       0       0       0       0
  4501 ;;      Temps:          0       0       0       0       0       0       0
  4502 ;;      Totals:         0       0       0       0       0       0       0
  4503 ;;Total ram usage:        0 bytes
  4504 ;; Hardware stack levels used: 1
  4505 ;; Hardware stack levels required when called: 4
  4506 ;; This function calls:
  4507 ;;		_lcd_cmd
  4508 ;; This function is called by:
  4509 ;;		_runApp
  4510 ;;		_unlock_door
  4511 ;;		_lock_door
  4512 ;;		_compare
  4513 ;; This function uses a non-reentrant model
  4514 ;;
  4515                           
  4516                           	psect	text21
  4517   00216C                     __ptext21:
  4518                           	callstack 0
  4519   00216C                     _lcd_reset:
  4520                           	callstack 24
  4521   00216C                     
  4522                           ;APP/lcd.c: 6:  lcd_cmd(0x02);
  4523   00216C  0E02               	movlw	2
  4524   00216E  ECA5  F00F         	call	_lcd_cmd
  4525                           
  4526                           ;APP/lcd.c: 7:  lcd_cmd(0x0e);
  4527   002172  0E0E               	movlw	14
  4528   002174  ECA5  F00F         	call	_lcd_cmd
  4529                           
  4530                           ;APP/lcd.c: 8:  lcd_cmd(0x01);
  4531   002178  0E01               	movlw	1
  4532   00217A  ECA5  F00F         	call	_lcd_cmd
  4533                           
  4534                           ;APP/lcd.c: 9:  lcd_cmd(0x28);
  4535   00217E  0E28               	movlw	40
  4536   002180  ECA5  F00F         	call	_lcd_cmd
  4537                           
  4538                           ;APP/lcd.c: 10:  lcd_cmd(0x80);
  4539   002184  0E80               	movlw	128
  4540   002186  ECA5  F00F         	call	_lcd_cmd
  4541   00218A  0012               	return		;funcret
  4542   00218C                     __end_of_lcd_reset:
  4543                           	callstack 0
  4544                           
  4545 ;; *************** function _delay *****************
  4546 ;; Defined at:
  4547 ;;		line 84 in file "APP/lcd.c"
  4548 ;; Parameters:    Size  Location     Type
  4549 ;;  a               2    0[COMRAM] int 
  4550 ;; Auto vars:     Size  Location     Type
  4551 ;;  i               2    5[COMRAM] int 
  4552 ;;  j               2    3[COMRAM] int 
  4553 ;; Return value:  Size  Location     Type
  4554 ;;                  1    wreg      void 
  4555 ;; Registers used:
  4556 ;;		wreg, status,2, status,0
  4557 ;; Tracked objects:
  4558 ;;		On entry : 0/0
  4559 ;;		On exit  : 0/0
  4560 ;;		Unchanged: 0/0
  4561 ;; Data sizes:     COMRAM   BANK0   BANK1   BANK2   BANK3   BANK4   BANK5
  4562 ;;      Params:         2       0       0       0       0       0       0
  4563 ;;      Locals:         4       0       0       0       0       0       0
  4564 ;;      Temps:          1       0       0       0       0       0       0
  4565 ;;      Totals:         7       0       0       0       0       0       0
  4566 ;;Total ram usage:        7 bytes
  4567 ;; Hardware stack levels used: 1
  4568 ;; This function calls:
  4569 ;;		Nothing
  4570 ;; This function is called by:
  4571 ;;		_runApp
  4572 ;;		_unlock_door
  4573 ;;		_lock_door
  4574 ;;		_compare
  4575 ;; This function uses a non-reentrant model
  4576 ;;
  4577                           
  4578                           	psect	text22
  4579   001E0C                     __ptext22:
  4580                           	callstack 0
  4581   001E0C                     _delay:
  4582                           	callstack 28
  4583   001E0C                     
  4584                           ;APP/lcd.c: 84: void delay(int a);APP/lcd.c: 85: {;APP/lcd.c: 86:     int i,j;;APP/lcd.c
      +                          : 87:     for(i = 0; i<100;i++)
  4585   001E0C  0E00               	movlw	0
  4586   001E0E  6E07               	movwf	(delay@i+1)^0,c
  4587   001E10  0E00               	movlw	0
  4588   001E12  6E06               	movwf	delay@i^0,c
  4589   001E14                     l2838:
  4590                           
  4591                           ;APP/lcd.c: 88:         for(j = 0;j<a;j++);
  4592   001E14  0E00               	movlw	0
  4593   001E16  6E05               	movwf	(delay@j+1)^0,c
  4594   001E18  0E00               	movlw	0
  4595   001E1A  6E04               	movwf	delay@j^0,c
  4596   001E1C  EF12  F00F         	goto	l2842
  4597   001E20                     l2840:
  4598   001E20  4A04               	infsnz	delay@j^0,f,c
  4599   001E22  2A05               	incf	(delay@j+1)^0,f,c
  4600   001E24                     l2842:
  4601   001E24  5001               	movf	delay@a^0,w,c
  4602   001E26  5C04               	subwf	delay@j^0,w,c
  4603   001E28  5005               	movf	(delay@j+1)^0,w,c
  4604   001E2A  0A80               	xorlw	128
  4605   001E2C  6E03               	movwf	??_delay^0,c
  4606   001E2E  5002               	movf	(delay@a+1)^0,w,c
  4607   001E30  0A80               	xorlw	128
  4608   001E32  5803               	subwfb	??_delay^0,w,c
  4609   001E34  A0D8               	btfss	status,0,c
  4610   001E36  EF1F  F00F         	goto	u2061
  4611   001E3A  EF21  F00F         	goto	u2060
  4612   001E3E                     u2061:
  4613   001E3E  EF10  F00F         	goto	l2840
  4614   001E42                     u2060:
  4615   001E42  4A06               	infsnz	delay@i^0,f,c
  4616   001E44  2A07               	incf	(delay@i+1)^0,f,c
  4617   001E46  BE07               	btfsc	(delay@i+1)^0,7,c
  4618   001E48  EF2F  F00F         	goto	u2071
  4619   001E4C  5007               	movf	(delay@i+1)^0,w,c
  4620   001E4E  E109               	bnz	u2070
  4621   001E50  0E64               	movlw	100
  4622   001E52  5C06               	subwf	delay@i^0,w,c
  4623   001E54  A0D8               	btfss	status,0,c
  4624   001E56  EF2F  F00F         	goto	u2071
  4625   001E5A  EF31  F00F         	goto	u2070
  4626   001E5E                     u2071:
  4627   001E5E  EF0A  F00F         	goto	l2838
  4628   001E62                     u2070:
  4629   001E62  0012               	return		;funcret
  4630   001E64                     __end_of_delay:
  4631                           	callstack 0
  4632                           
  4633 ;; *************** function _delay2 *****************
  4634 ;; Defined at:
  4635 ;;		line 47 in file "APP/I2C_.c"
  4636 ;; Parameters:    Size  Location     Type
  4637 ;;  a               2    0[COMRAM] int 
  4638 ;; Auto vars:     Size  Location     Type
  4639 ;;  j               2    4[COMRAM] int 
  4640 ;;  i               2    2[COMRAM] int 
  4641 ;; Return value:  Size  Location     Type
  4642 ;;                  1    wreg      void 
  4643 ;; Registers used:
  4644 ;;		wreg, status,2, status,0
  4645 ;; Tracked objects:
  4646 ;;		On entry : 0/0
  4647 ;;		On exit  : 0/0
  4648 ;;		Unchanged: 0/0
  4649 ;; Data sizes:     COMRAM   BANK0   BANK1   BANK2   BANK3   BANK4   BANK5
  4650 ;;      Params:         2       0       0       0       0       0       0
  4651 ;;      Locals:         4       0       0       0       0       0       0
  4652 ;;      Temps:          0       0       0       0       0       0       0
  4653 ;;      Totals:         6       0       0       0       0       0       0
  4654 ;;Total ram usage:        6 bytes
  4655 ;; Hardware stack levels used: 1
  4656 ;; This function calls:
  4657 ;;		Nothing
  4658 ;; This function is called by:
  4659 ;;		_runApp
  4660 ;; This function uses a non-reentrant model
  4661 ;;
  4662                           
  4663                           	psect	text23
  4664   001DB2                     __ptext23:
  4665                           	callstack 0
  4666   001DB2                     _delay2:
  4667                           	callstack 29
  4668   001DB2                     
  4669                           ;APP/I2C_.c: 47: void delay2(int a);APP/I2C_.c: 48: {;APP/I2C_.c: 49:  int i,j;;APP/I2C_
      +                          .c: 50:  for(i=a;i<345;i++)
  4670   001DB2  C001  F003         	movff	delay2@a,delay2@i
  4671   001DB6  C002  F004         	movff	delay2@a+1,delay2@i+1
  4672   001DBA                     l3460:
  4673   001DBA  BE04               	btfsc	(delay2@i+1)^0,7,c
  4674   001DBC  EFE9  F00E         	goto	u2961
  4675   001DC0  0E59               	movlw	89
  4676   001DC2  5C03               	subwf	delay2@i^0,w,c
  4677   001DC4  0E01               	movlw	1
  4678   001DC6  5804               	subwfb	(delay2@i+1)^0,w,c
  4679   001DC8  A0D8               	btfss	status,0,c
  4680   001DCA  EFE9  F00E         	goto	u2961
  4681   001DCE  EFEB  F00E         	goto	u2960
  4682   001DD2                     u2961:
  4683   001DD2  EFED  F00E         	goto	l3464
  4684   001DD6                     u2960:
  4685   001DD6  EF05  F00F         	goto	l614
  4686   001DDA                     l3464:
  4687                           
  4688                           ;APP/I2C_.c: 51:  for(j=0;j<12;j++);
  4689   001DDA  0E00               	movlw	0
  4690   001DDC  6E06               	movwf	(delay2@j+1)^0,c
  4691   001DDE  0E00               	movlw	0
  4692   001DE0  6E05               	movwf	delay2@j^0,c
  4693   001DE2                     l3470:
  4694   001DE2  4A05               	infsnz	delay2@j^0,f,c
  4695   001DE4  2A06               	incf	(delay2@j+1)^0,f,c
  4696   001DE6  BE06               	btfsc	(delay2@j+1)^0,7,c
  4697   001DE8  EFFF  F00E         	goto	u2971
  4698   001DEC  5006               	movf	(delay2@j+1)^0,w,c
  4699   001DEE  E109               	bnz	u2970
  4700   001DF0  0E0C               	movlw	12
  4701   001DF2  5C05               	subwf	delay2@j^0,w,c
  4702   001DF4  A0D8               	btfss	status,0,c
  4703   001DF6  EFFF  F00E         	goto	u2971
  4704   001DFA  EF01  F00F         	goto	u2970
  4705   001DFE                     u2971:
  4706   001DFE  EFF1  F00E         	goto	l3470
  4707   001E02                     u2970:
  4708   001E02  4A03               	infsnz	delay2@i^0,f,c
  4709   001E04  2A04               	incf	(delay2@i+1)^0,f,c
  4710   001E06  EFDD  F00E         	goto	l3460
  4711   001E0A                     l614:
  4712   001E0A  0012               	return		;funcret
  4713   001E0C                     __end_of_delay2:
  4714                           	callstack 0
  4715                           
  4716 ;; *************** function _admin_validation *****************
  4717 ;; Defined at:
  4718 ;;		line 169 in file "APP/app.c"
  4719 ;; Parameters:    Size  Location     Type
  4720 ;;  adminP          1   13[COMRAM] PTR const unsigned char 
  4721 ;;		 -> admin_password(4), 
  4722 ;; Auto vars:     Size  Location     Type
  4723 ;;  q               3    0        PTR unsigned char 
  4724 ;;  p               2   15[COMRAM] PTR unsigned char 
  4725 ;;		 -> type_passcode(5), NULL(0), 
  4726 ;; Return value:  Size  Location     Type
  4727 ;;                  2   13[COMRAM] PTR unsigned char 
  4728 ;; Registers used:
  4729 ;;		wreg, fsr1l, fsr1h, fsr2l, fsr2h, status,2, status,0, cstack
  4730 ;; Tracked objects:
  4731 ;;		On entry : 0/0
  4732 ;;		On exit  : 0/0
  4733 ;;		Unchanged: 0/0
  4734 ;; Data sizes:     COMRAM   BANK0   BANK1   BANK2   BANK3   BANK4   BANK5
  4735 ;;      Params:         2       0       0       0       0       0       0
  4736 ;;      Locals:         2       0       0       0       0       0       0
  4737 ;;      Temps:          0       0       0       0       0       0       0
  4738 ;;      Totals:         4       0       0       0       0       0       0
  4739 ;;Total ram usage:        4 bytes
  4740 ;; Hardware stack levels used: 1
  4741 ;; Hardware stack levels required when called: 5
  4742 ;; This function calls:
  4743 ;;		_col1
  4744 ;;		_col2
  4745 ;;		_col3
  4746 ;;		_col4
  4747 ;;		_lcd_cmd
  4748 ;;		_lcd_data
  4749 ;;		_strstr
  4750 ;; This function is called by:
  4751 ;;		_runApp
  4752 ;; This function uses a non-reentrant model
  4753 ;;
  4754                           
  4755                           	psect	text24
  4756   001000                     __ptext24:
  4757                           	callstack 0
  4758   001000                     _admin_validation:
  4759                           	callstack 24
  4760   001000                     
  4761                           ;APP/app.c: 169:     char* admin_validation(const char *adminP);APP/app.c: 170:     {;AP
      +                          P/app.c: 171:         for(i=0;admin_password_msg[i]!='\0';i++)
  4762   001000  0E00               	movlw	0
  4763   001002  6E50               	movwf	(_i+1)^0,c
  4764   001004  0E00               	movlw	0
  4765   001006  6E4F               	movwf	_i^0,c
  4766   001008  EF0F  F008         	goto	l3508
  4767   00100C                     l3504:
  4768                           
  4769                           ;APP/app.c: 172:          {;APP/app.c: 173:               lcd_data(admin_password_msg[i]
      +                          );
  4770   00100C  504F               	movf	_i^0,w,c
  4771   00100E  0F9C               	addlw	low _admin_password_msg
  4772   001010  6ED9               	movwf	fsr2l,c
  4773   001012  6ADA               	clrf	fsr2h,c
  4774   001014  50DF               	movf	indf2,w,c
  4775   001016  ECC7  F00F         	call	_lcd_data
  4776   00101A                     
  4777                           ;APP/app.c: 174:          }
  4778   00101A  4A4F               	infsnz	_i^0,f,c
  4779   00101C  2A50               	incf	(_i+1)^0,f,c
  4780   00101E                     l3508:
  4781   00101E  504F               	movf	_i^0,w,c
  4782   001020  0F9C               	addlw	low _admin_password_msg
  4783   001022  6ED9               	movwf	fsr2l,c
  4784   001024  6ADA               	clrf	fsr2h,c
  4785   001026  50DF               	movf	indf2,w,c
  4786   001028  A4D8               	btfss	status,2,c
  4787   00102A  EF19  F008         	goto	u3011
  4788   00102E  EF1B  F008         	goto	u3010
  4789   001032                     u3011:
  4790   001032  EF06  F008         	goto	l3504
  4791   001036                     u3010:
  4792   001036                     
  4793                           ;APP/app.c: 175:         lcd_cmd(0xc0);
  4794   001036  0EC0               	movlw	192
  4795   001038  ECA5  F00F         	call	_lcd_cmd
  4796   00103C                     
  4797                           ;APP/app.c: 176:         for(i=0;i<4;i++)
  4798   00103C  0E00               	movlw	0
  4799   00103E  6E50               	movwf	(_i+1)^0,c
  4800   001040  0E00               	movlw	0
  4801   001042  6E4F               	movwf	_i^0,c
  4802   001044                     l3514:
  4803   001044  BE50               	btfsc	(_i+1)^0,7,c
  4804   001046  EF2E  F008         	goto	u3021
  4805   00104A  5050               	movf	(_i+1)^0,w,c
  4806   00104C  E109               	bnz	u3020
  4807   00104E  0E04               	movlw	4
  4808   001050  5C4F               	subwf	_i^0,w,c
  4809   001052  A0D8               	btfss	status,0,c
  4810   001054  EF2E  F008         	goto	u3021
  4811   001058  EF30  F008         	goto	u3020
  4812   00105C                     u3021:
  4813   00105C  EF32  F008         	goto	l163
  4814   001060                     u3020:
  4815   001060  EF7A  F008         	goto	l3542
  4816   001064                     l163:
  4817                           
  4818                           ;APP/app.c: 177:          {;APP/app.c: 178:              PORTBbits.RB0=PORTBbits.RB1=POR
      +                          TBbits.RB2=PORTBbits.RB3=0;
  4819   001064  9681               	bcf	129,3,c	;volatile
  4820   001066  9481               	bcf	129,2,c	;volatile
  4821   001068  9281               	bcf	129,1,c	;volatile
  4822   00106A  9081               	bcf	129,0,c	;volatile
  4823   00106C                     l165:
  4824   00106C  A881               	btfss	129,4,c	;volatile
  4825   00106E  EF3B  F008         	goto	u3031
  4826   001072  EF3D  F008         	goto	u3030
  4827   001076                     u3031:
  4828   001076  EF52  F008         	goto	l169
  4829   00107A                     u3030:
  4830   00107A  AA81               	btfss	129,5,c	;volatile
  4831   00107C  EF42  F008         	goto	u3041
  4832   001080  EF44  F008         	goto	u3040
  4833   001084                     u3041:
  4834   001084  EF52  F008         	goto	l169
  4835   001088                     u3040:
  4836   001088  AC81               	btfss	129,6,c	;volatile
  4837   00108A  EF49  F008         	goto	u3051
  4838   00108E  EF4B  F008         	goto	u3050
  4839   001092                     u3051:
  4840   001092  EF52  F008         	goto	l169
  4841   001096                     u3050:
  4842   001096  BE81               	btfsc	129,7,c	;volatile
  4843   001098  EF50  F008         	goto	u3061
  4844   00109C  EF52  F008         	goto	u3060
  4845   0010A0                     u3061:
  4846   0010A0  EF36  F008         	goto	l165
  4847   0010A4                     u3060:
  4848   0010A4                     l169:
  4849                           
  4850                           ;APP/app.c: 180:              if(PORTBbits.RB4==0)
  4851   0010A4  B881               	btfsc	129,4,c	;volatile
  4852   0010A6  EF57  F008         	goto	u3071
  4853   0010AA  EF59  F008         	goto	u3070
  4854   0010AE                     u3071:
  4855   0010AE  EF5B  F008         	goto	l3526
  4856   0010B2                     u3070:
  4857   0010B2                     
  4858                           ;APP/app.c: 181:              {;APP/app.c: 182:                  col1();
  4859   0010B2  EC6C  F00A         	call	_col1	;wreg free
  4860   0010B6                     l3526:
  4861                           
  4862                           ;APP/app.c: 184:              if(PORTBbits.RB5==0)
  4863   0010B6  BA81               	btfsc	129,5,c	;volatile
  4864   0010B8  EF60  F008         	goto	u3081
  4865   0010BC  EF62  F008         	goto	u3080
  4866   0010C0                     u3081:
  4867   0010C0  EF64  F008         	goto	l3530
  4868   0010C4                     u3080:
  4869   0010C4                     
  4870                           ;APP/app.c: 185:              {;APP/app.c: 186:                  col2();
  4871   0010C4  EC01  F00A         	call	_col2	;wreg free
  4872   0010C8                     l3530:
  4873                           
  4874                           ;APP/app.c: 188:              if(PORTBbits.RB6==0)
  4875   0010C8  BC81               	btfsc	129,6,c	;volatile
  4876   0010CA  EF69  F008         	goto	u3091
  4877   0010CE  EF6B  F008         	goto	u3090
  4878   0010D2                     u3091:
  4879   0010D2  EF6D  F008         	goto	l3534
  4880   0010D6                     u3090:
  4881   0010D6                     
  4882                           ;APP/app.c: 189:              {;APP/app.c: 190:                  col3();
  4883   0010D6  EC96  F009         	call	_col3	;wreg free
  4884   0010DA                     l3534:
  4885                           
  4886                           ;APP/app.c: 192:              if(PORTBbits.RB7==0)
  4887   0010DA  BE81               	btfsc	129,7,c	;volatile
  4888   0010DC  EF72  F008         	goto	u3101
  4889   0010E0  EF74  F008         	goto	u3100
  4890   0010E4                     u3101:
  4891   0010E4  EF76  F008         	goto	l3538
  4892   0010E8                     u3100:
  4893   0010E8                     
  4894                           ;APP/app.c: 193:              {;APP/app.c: 194:                  col4();
  4895   0010E8  EC7B  F00C         	call	_col4	;wreg free
  4896   0010EC                     l3538:
  4897                           
  4898                           ;APP/app.c: 196:           }
  4899   0010EC  4A4F               	infsnz	_i^0,f,c
  4900   0010EE  2A50               	incf	(_i+1)^0,f,c
  4901   0010F0  EF22  F008         	goto	l3514
  4902   0010F4                     l3542:
  4903                           
  4904                           ;APP/app.c: 197:       char *p,*q;;APP/app.c: 198:       p=strstr((char*)type_passcode,(
      +                          char*)adminP);
  4905   0010F4  0E44               	movlw	low _type_passcode
  4906   0010F6  6E08               	movwf	strstr@h^0,c
  4907   0010F8  6A09               	clrf	(strstr@h+1)^0,c
  4908   0010FA  C00E  F00A         	movff	admin_validation@adminP,strstr@n
  4909   0010FE  EC41  F00D         	call	_strstr	;wreg free
  4910   001102  C008  F010         	movff	?_strstr,admin_validation@p
  4911   001106  C009  F011         	movff	?_strstr+1,admin_validation@p+1
  4912   00110A                     
  4913                           ;APP/app.c: 200:       return p;
  4914   00110A  C010  F00E         	movff	admin_validation@p,?_admin_validation
  4915   00110E  C011  F00F         	movff	admin_validation@p+1,?_admin_validation+1
  4916   001112  0012               	return		;funcret
  4917   001114                     __end_of_admin_validation:
  4918                           	callstack 0
  4919                           
  4920 ;; *************** function _strstr *****************
  4921 ;; Defined at:
  4922 ;;		line 4 in file "C:\Program Files\Microchip\xc8\v2.46\pic\sources\c99\common\strstr.c"
  4923 ;; Parameters:    Size  Location     Type
  4924 ;;  h               2    7[COMRAM] PTR const unsigned char 
  4925 ;;		 -> type_passcode(5), NULL(0), 
  4926 ;;  n               1    9[COMRAM] PTR const unsigned char 
  4927 ;;		 -> old_user_password(4), admin_password(4), 
  4928 ;; Auto vars:     Size  Location     Type
  4929 ;;  nl              2   11[COMRAM] unsigned int 
  4930 ;; Return value:  Size  Location     Type
  4931 ;;                  2    7[COMRAM] PTR unsigned char 
  4932 ;; Registers used:
  4933 ;;		wreg, fsr1l, fsr1h, fsr2l, fsr2h, status,2, status,0, cstack
  4934 ;; Tracked objects:
  4935 ;;		On entry : 0/0
  4936 ;;		On exit  : 0/0
  4937 ;;		Unchanged: 0/0
  4938 ;; Data sizes:     COMRAM   BANK0   BANK1   BANK2   BANK3   BANK4   BANK5
  4939 ;;      Params:         3       0       0       0       0       0       0
  4940 ;;      Locals:         2       0       0       0       0       0       0
  4941 ;;      Temps:          1       0       0       0       0       0       0
  4942 ;;      Totals:         6       0       0       0       0       0       0
  4943 ;;Total ram usage:        6 bytes
  4944 ;; Hardware stack levels used: 1
  4945 ;; Hardware stack levels required when called: 1
  4946 ;; This function calls:
  4947 ;;		_strchr
  4948 ;;		_strlen
  4949 ;;		_strncmp
  4950 ;; This function is called by:
  4951 ;;		_admin_validation
  4952 ;;		_user_validation
  4953 ;;		_compare
  4954 ;; This function uses a non-reentrant model
  4955 ;;
  4956                           
  4957                           	psect	text25
  4958   001A82                     __ptext25:
  4959                           	callstack 0
  4960   001A82                     _strstr:
  4961                           	callstack 27
  4962   001A82  500A               	movf	strstr@n^0,w,c
  4963   001A84  B4D8               	btfsc	status,2,c
  4964   001A86  EF47  F00D         	goto	u2081
  4965   001A8A  EF49  F00D         	goto	u2080
  4966   001A8E                     u2081:
  4967   001A8E  EF97  F00D         	goto	l2882
  4968   001A92                     u2080:
  4969   001A92  C00A  F001         	movff	strstr@n,strlen@s
  4970   001A96  EC3F  F010         	call	_strlen	;wreg free
  4971   001A9A  C001  F00C         	movff	?_strlen,strstr@nl
  4972   001A9E  C002  F00D         	movff	?_strlen+1,strstr@nl+1
  4973   001AA2  EF82  F00D         	goto	l2878
  4974   001AA6                     l2870:
  4975   001AA6  C008  F001         	movff	strstr@h,strncmp@l
  4976   001AAA  C009  F002         	movff	strstr@h+1,strncmp@l+1
  4977   001AAE  C00A  F003         	movff	strstr@n,strncmp@r
  4978   001AB2  C00C  F004         	movff	strstr@nl,strncmp@n
  4979   001AB6  C00D  F005         	movff	strstr@nl+1,strncmp@n+1
  4980   001ABA  EC9C  F00D         	call	_strncmp	;wreg free
  4981   001ABE  5001               	movf	?_strncmp^0,w,c
  4982   001AC0  1002               	iorwf	(?_strncmp+1)^0,w,c
  4983   001AC2  A4D8               	btfss	status,2,c
  4984   001AC4  EF66  F00D         	goto	u2091
  4985   001AC8  EF68  F00D         	goto	u2090
  4986   001ACC                     u2091:
  4987   001ACC  EF6E  F00D         	goto	l2876
  4988   001AD0                     u2090:
  4989   001AD0  C008  F008         	movff	strstr@h,?_strstr
  4990   001AD4  C009  F009         	movff	strstr@h+1,?_strstr+1
  4991   001AD8  EF9B  F00D         	goto	l1432
  4992   001ADC                     l2876:
  4993   001ADC  0E01               	movlw	1
  4994   001ADE  2408               	addwf	strstr@h^0,w,c
  4995   001AE0  6E01               	movwf	strchr@s^0,c
  4996   001AE2  0E00               	movlw	0
  4997   001AE4  2009               	addwfc	(strstr@h+1)^0,w,c
  4998   001AE6  6E02               	movwf	(strchr@s+1)^0,c
  4999   001AE8  500A               	movf	strstr@n^0,w,c
  5000   001AEA  6ED9               	movwf	fsr2l,c
  5001   001AEC  6ADA               	clrf	fsr2h,c
  5002   001AEE  50DF               	movf	indf2,w,c
  5003   001AF0  6E0B               	movwf	??_strstr^0,c
  5004   001AF2  500B               	movf	??_strstr^0,w,c
  5005   001AF4  6E03               	movwf	strchr@c^0,c
  5006   001AF6  6A04               	clrf	(strchr@c+1)^0,c
  5007   001AF8  EC5B  F00F         	call	_strchr	;wreg free
  5008   001AFC  C001  F008         	movff	?_strchr,strstr@h
  5009   001B00  C002  F009         	movff	?_strchr+1,strstr@h+1
  5010   001B04                     l2878:
  5011   001B04  5008               	movf	strstr@h^0,w,c
  5012   001B06  1009               	iorwf	(strstr@h+1)^0,w,c
  5013   001B08  B4D8               	btfsc	status,2,c
  5014   001B0A  EF89  F00D         	goto	u2101
  5015   001B0E  EF8B  F00D         	goto	u2100
  5016   001B12                     u2101:
  5017   001B12  EF97  F00D         	goto	l2882
  5018   001B16                     u2100:
  5019   001B16  C008  FFD9         	movff	strstr@h,fsr2l
  5020   001B1A  C009  FFDA         	movff	strstr@h+1,fsr2h
  5021   001B1E  50DF               	movf	indf2,w,c
  5022   001B20  A4D8               	btfss	status,2,c
  5023   001B22  EF95  F00D         	goto	u2111
  5024   001B26  EF97  F00D         	goto	u2110
  5025   001B2A                     u2111:
  5026   001B2A  EF53  F00D         	goto	l2870
  5027   001B2E                     u2110:
  5028   001B2E                     l2882:
  5029   001B2E  0E00               	movlw	0
  5030   001B30  6E08               	movwf	?_strstr^0,c
  5031   001B32  0E00               	movlw	0
  5032   001B34  6E09               	movwf	(?_strstr+1)^0,c
  5033   001B36                     l1432:
  5034   001B36  0012               	return		;funcret
  5035   001B38                     __end_of_strstr:
  5036                           	callstack 0
  5037                           
  5038 ;; *************** function _strncmp *****************
  5039 ;; Defined at:
  5040 ;;		line 3 in file "C:\Program Files\Microchip\xc8\v2.46\pic\sources\c99\common\strncmp.c"
  5041 ;; Parameters:    Size  Location     Type
  5042 ;;  l               2    0[COMRAM] PTR const unsigned char 
  5043 ;;		 -> type_passcode(5), NULL(0), 
  5044 ;;  r               1    2[COMRAM] PTR const unsigned char 
  5045 ;;		 -> old_user_password(4), admin_password(4), 
  5046 ;;  n               2    3[COMRAM] unsigned int 
  5047 ;; Auto vars:     Size  Location     Type
  5048 ;;		None
  5049 ;; Return value:  Size  Location     Type
  5050 ;;                  2    0[COMRAM] int 
  5051 ;; Registers used:
  5052 ;;		wreg, fsr1l, fsr1h, fsr2l, fsr2h, status,2, status,0
  5053 ;; Tracked objects:
  5054 ;;		On entry : 0/0
  5055 ;;		On exit  : 0/0
  5056 ;;		Unchanged: 0/0
  5057 ;; Data sizes:     COMRAM   BANK0   BANK1   BANK2   BANK3   BANK4   BANK5
  5058 ;;      Params:         5       0       0       0       0       0       0
  5059 ;;      Locals:         0       0       0       0       0       0       0
  5060 ;;      Temps:          2       0       0       0       0       0       0
  5061 ;;      Totals:         7       0       0       0       0       0       0
  5062 ;;Total ram usage:        7 bytes
  5063 ;; Hardware stack levels used: 1
  5064 ;; This function calls:
  5065 ;;		Nothing
  5066 ;; This function is called by:
  5067 ;;		_strstr
  5068 ;; This function uses a non-reentrant model
  5069 ;;
  5070                           
  5071                           	psect	text26
  5072   001B38                     __ptext26:
  5073                           	callstack 0
  5074   001B38                     _strncmp:
  5075                           	callstack 27
  5076   001B38  0604               	decf	strncmp@n^0,f,c
  5077   001B3A  A0D8               	btfss	status,0,c
  5078   001B3C  0605               	decf	(strncmp@n+1)^0,f,c
  5079   001B3E  2804               	incf	strncmp@n^0,w,c
  5080   001B40  E106               	bnz	u1991
  5081   001B42  2805               	incf	(strncmp@n+1)^0,w,c
  5082   001B44  A4D8               	btfss	status,2,c
  5083   001B46  EFA7  F00D         	goto	u1991
  5084   001B4A  EFA9  F00D         	goto	u1990
  5085   001B4E                     u1991:
  5086   001B4E  EFB5  F00D         	goto	l2806
  5087   001B52                     u1990:
  5088   001B52  0E00               	movlw	0
  5089   001B54  6E02               	movwf	(?_strncmp+1)^0,c
  5090   001B56  0E00               	movlw	0
  5091   001B58  6E01               	movwf	?_strncmp^0,c
  5092   001B5A  EFF6  F00D         	goto	l1451
  5093   001B5E                     l2804:
  5094   001B5E  4A01               	infsnz	strncmp@l^0,f,c
  5095   001B60  2A02               	incf	(strncmp@l+1)^0,f,c
  5096   001B62  2A03               	incf	strncmp@r^0,f,c
  5097   001B64  0604               	decf	strncmp@n^0,f,c
  5098   001B66  A0D8               	btfss	status,0,c
  5099   001B68  0605               	decf	(strncmp@n+1)^0,f,c
  5100   001B6A                     l2806:
  5101   001B6A  C001  FFD9         	movff	strncmp@l,fsr2l
  5102   001B6E  C002  FFDA         	movff	strncmp@l+1,fsr2h
  5103   001B72  50DF               	movf	indf2,w,c
  5104   001B74  B4D8               	btfsc	status,2,c
  5105   001B76  EFBF  F00D         	goto	u2001
  5106   001B7A  EFC1  F00D         	goto	u2000
  5107   001B7E                     u2001:
  5108   001B7E  EFE5  F00D         	goto	l2814
  5109   001B82                     u2000:
  5110   001B82  5003               	movf	strncmp@r^0,w,c
  5111   001B84  6ED9               	movwf	fsr2l,c
  5112   001B86  6ADA               	clrf	fsr2h,c
  5113   001B88  50DF               	movf	indf2,w,c
  5114   001B8A  B4D8               	btfsc	status,2,c
  5115   001B8C  EFCA  F00D         	goto	u2011
  5116   001B90  EFCC  F00D         	goto	u2010
  5117   001B94                     u2011:
  5118   001B94  EFE5  F00D         	goto	l2814
  5119   001B98                     u2010:
  5120   001B98  5004               	movf	strncmp@n^0,w,c
  5121   001B9A  1005               	iorwf	(strncmp@n+1)^0,w,c
  5122   001B9C  B4D8               	btfsc	status,2,c
  5123   001B9E  EFD3  F00D         	goto	u2021
  5124   001BA2  EFD5  F00D         	goto	u2020
  5125   001BA6                     u2021:
  5126   001BA6  EFE5  F00D         	goto	l2814
  5127   001BAA                     u2020:
  5128   001BAA  5003               	movf	strncmp@r^0,w,c
  5129   001BAC  6ED9               	movwf	fsr2l,c
  5130   001BAE  6ADA               	clrf	fsr2h,c
  5131   001BB0  C001  FFE1         	movff	strncmp@l,fsr1l
  5132   001BB4  C002  FFE2         	movff	strncmp@l+1,fsr1h
  5133   001BB8  50DE               	movf	postinc2,w,c
  5134   001BBA  18E6               	xorwf	postinc1,w,c
  5135   001BBC  B4D8               	btfsc	status,2,c
  5136   001BBE  EFE3  F00D         	goto	u2031
  5137   001BC2  EFE5  F00D         	goto	u2030
  5138   001BC6                     u2031:
  5139   001BC6  EFAF  F00D         	goto	l2804
  5140   001BCA                     u2030:
  5141   001BCA                     l2814:
  5142   001BCA  C001  FFD9         	movff	strncmp@l,fsr2l
  5143   001BCE  C002  FFDA         	movff	strncmp@l+1,fsr2h
  5144   001BD2  50DF               	movf	indf2,w,c
  5145   001BD4  6E06               	movwf	??_strncmp^0,c
  5146   001BD6  5003               	movf	strncmp@r^0,w,c
  5147   001BD8  6ED9               	movwf	fsr2l,c
  5148   001BDA  6ADA               	clrf	fsr2h,c
  5149   001BDC  50DF               	movf	indf2,w,c
  5150   001BDE  6E07               	movwf	(??_strncmp+1)^0,c
  5151   001BE0  5007               	movf	(??_strncmp+1)^0,w,c
  5152   001BE2  5C06               	subwf	??_strncmp^0,w,c
  5153   001BE4  6E01               	movwf	?_strncmp^0,c
  5154   001BE6  6A02               	clrf	(?_strncmp+1)^0,c
  5155   001BE8  A0D8               	btfss	status,0,c
  5156   001BEA  0602               	decf	(?_strncmp+1)^0,f,c
  5157   001BEC                     l1451:
  5158   001BEC  0012               	return		;funcret
  5159   001BEE                     __end_of_strncmp:
  5160                           	callstack 0
  5161                           
  5162 ;; *************** function _strlen *****************
  5163 ;; Defined at:
  5164 ;;		line 5 in file "C:\Program Files\Microchip\xc8\v2.46\pic\sources\c99\common\strlen.c"
  5165 ;; Parameters:    Size  Location     Type
  5166 ;;  s               1    0[COMRAM] PTR const unsigned char 
  5167 ;;		 -> old_user_password(4), admin_password(4), 
  5168 ;; Auto vars:     Size  Location     Type
  5169 ;;  a               1    2[COMRAM] PTR const unsigned char 
  5170 ;;		 -> old_user_password(4), admin_password(4), 
  5171 ;; Return value:  Size  Location     Type
  5172 ;;                  2    0[COMRAM] unsigned int 
  5173 ;; Registers used:
  5174 ;;		wreg, fsr2l, fsr2h, status,2, status,0
  5175 ;; Tracked objects:
  5176 ;;		On entry : 0/0
  5177 ;;		On exit  : 0/0
  5178 ;;		Unchanged: 0/0
  5179 ;; Data sizes:     COMRAM   BANK0   BANK1   BANK2   BANK3   BANK4   BANK5
  5180 ;;      Params:         2       0       0       0       0       0       0
  5181 ;;      Locals:         1       0       0       0       0       0       0
  5182 ;;      Temps:          0       0       0       0       0       0       0
  5183 ;;      Totals:         3       0       0       0       0       0       0
  5184 ;;Total ram usage:        3 bytes
  5185 ;; Hardware stack levels used: 1
  5186 ;; This function calls:
  5187 ;;		Nothing
  5188 ;; This function is called by:
  5189 ;;		_strstr
  5190 ;; This function uses a non-reentrant model
  5191 ;;
  5192                           
  5193                           	psect	text27
  5194   00207E                     __ptext27:
  5195                           	callstack 0
  5196   00207E                     _strlen:
  5197                           	callstack 27
  5198   00207E  C001  F003         	movff	strlen@s,strlen@a
  5199   002082  EF44  F010         	goto	l2792
  5200   002086                     l2790:
  5201   002086  2A01               	incf	strlen@s^0,f,c
  5202   002088                     l2792:
  5203   002088  5001               	movf	strlen@s^0,w,c
  5204   00208A  6ED9               	movwf	fsr2l,c
  5205   00208C  6ADA               	clrf	fsr2h,c
  5206   00208E  50DF               	movf	indf2,w,c
  5207   002090  A4D8               	btfss	status,2,c
  5208   002092  EF4D  F010         	goto	u1981
  5209   002096  EF4F  F010         	goto	u1980
  5210   00209A                     u1981:
  5211   00209A  EF43  F010         	goto	l2790
  5212   00209E                     u1980:
  5213   00209E  5003               	movf	strlen@a^0,w,c
  5214   0020A0  5C01               	subwf	strlen@s^0,w,c
  5215   0020A2  6E01               	movwf	?_strlen^0,c
  5216   0020A4  6A02               	clrf	(?_strlen+1)^0,c
  5217   0020A6  BE01               	btfsc	?_strlen^0,7,c
  5218   0020A8  0602               	decf	(?_strlen+1)^0,f,c
  5219   0020AA  0012               	return		;funcret
  5220   0020AC                     __end_of_strlen:
  5221                           	callstack 0
  5222                           
  5223 ;; *************** function _strchr *****************
  5224 ;; Defined at:
  5225 ;;		line 3 in file "C:\Program Files\Microchip\xc8\v2.46\pic\sources\c99\common\strchr.c"
  5226 ;; Parameters:    Size  Location     Type
  5227 ;;  s               2    0[COMRAM] PTR const unsigned char 
  5228 ;;		 -> type_passcode(5), NULL(0), 
  5229 ;;  c               2    2[COMRAM] int 
  5230 ;; Auto vars:     Size  Location     Type
  5231 ;;		None
  5232 ;; Return value:  Size  Location     Type
  5233 ;;                  2    0[COMRAM] PTR unsigned char 
  5234 ;; Registers used:
  5235 ;;		wreg, fsr2l, fsr2h, status,2, status,0
  5236 ;; Tracked objects:
  5237 ;;		On entry : 0/0
  5238 ;;		On exit  : 0/0
  5239 ;;		Unchanged: 0/0
  5240 ;; Data sizes:     COMRAM   BANK0   BANK1   BANK2   BANK3   BANK4   BANK5
  5241 ;;      Params:         4       0       0       0       0       0       0
  5242 ;;      Locals:         0       0       0       0       0       0       0
  5243 ;;      Temps:          1       0       0       0       0       0       0
  5244 ;;      Totals:         5       0       0       0       0       0       0
  5245 ;;Total ram usage:        5 bytes
  5246 ;; Hardware stack levels used: 1
  5247 ;; This function calls:
  5248 ;;		Nothing
  5249 ;; This function is called by:
  5250 ;;		_strstr
  5251 ;; This function uses a non-reentrant model
  5252 ;;
  5253                           
  5254                           	psect	text28
  5255   001EB6                     __ptext28:
  5256                           	callstack 0
  5257   001EB6                     _strchr:
  5258                           	callstack 27
  5259   001EB6                     l1438:
  5260   001EB6  C001  FFD9         	movff	strchr@s,fsr2l
  5261   001EBA  C002  FFDA         	movff	strchr@s+1,fsr2h
  5262   001EBE  5003               	movf	strchr@c^0,w,c
  5263   001EC0  18DE               	xorwf	postinc2,w,c
  5264   001EC2  A4D8               	btfss	status,2,c
  5265   001EC4  EF66  F00F         	goto	u2041
  5266   001EC8  EF68  F00F         	goto	u2040
  5267   001ECC                     u2041:
  5268   001ECC  EF6E  F00F         	goto	l2824
  5269   001ED0                     u2040:
  5270   001ED0  C001  F001         	movff	strchr@s,?_strchr
  5271   001ED4  C002  F002         	movff	strchr@s+1,?_strchr+1
  5272   001ED8  EF80  F00F         	goto	l1440
  5273   001EDC                     l2824:
  5274   001EDC  C001  FFD9         	movff	strchr@s,fsr2l
  5275   001EE0  C002  FFDA         	movff	strchr@s+1,fsr2h
  5276   001EE4  4A01               	infsnz	strchr@s^0,f,c
  5277   001EE6  2A02               	incf	(strchr@s+1)^0,f,c
  5278   001EE8  50DF               	movf	indf2,w,c
  5279   001EEA  A4D8               	btfss	status,2,c
  5280   001EEC  EF7A  F00F         	goto	u2051
  5281   001EF0  EF7C  F00F         	goto	u2050
  5282   001EF4                     u2051:
  5283   001EF4  EF5B  F00F         	goto	l1438
  5284   001EF8                     u2050:
  5285   001EF8  0E00               	movlw	0
  5286   001EFA  6E01               	movwf	?_strchr^0,c
  5287   001EFC  0E00               	movlw	0
  5288   001EFE  6E02               	movwf	(?_strchr+1)^0,c
  5289   001F00                     l1440:
  5290   001F00  0012               	return		;funcret
  5291   001F02                     __end_of_strchr:
  5292                           	callstack 0
  5293                           
  5294 ;; *************** function _lcd_cmd *****************
  5295 ;; Defined at:
  5296 ;;		line 12 in file "APP/lcd.c"
  5297 ;; Parameters:    Size  Location     Type
  5298 ;;  data            1    wreg     unsigned char 
  5299 ;; Auto vars:     Size  Location     Type
  5300 ;;  data            1    4[COMRAM] unsigned char 
  5301 ;;  data_u          1    6[COMRAM] unsigned char 
  5302 ;;  data_l          1    5[COMRAM] unsigned char 
  5303 ;; Return value:  Size  Location     Type
  5304 ;;                  1    wreg      void 
  5305 ;; Registers used:
  5306 ;;		wreg, status,2, status,0, cstack
  5307 ;; Tracked objects:
  5308 ;;		On entry : 0/0
  5309 ;;		On exit  : 0/0
  5310 ;;		Unchanged: 0/0
  5311 ;; Data sizes:     COMRAM   BANK0   BANK1   BANK2   BANK3   BANK4   BANK5
  5312 ;;      Params:         0       0       0       0       0       0       0
  5313 ;;      Locals:         3       0       0       0       0       0       0
  5314 ;;      Temps:          0       0       0       0       0       0       0
  5315 ;;      Totals:         3       0       0       0       0       0       0
  5316 ;;Total ram usage:        3 bytes
  5317 ;; Hardware stack levels used: 1
  5318 ;; Hardware stack levels required when called: 3
  5319 ;; This function calls:
  5320 ;;		_I2C_Start
  5321 ;;		_I2C_Stop
  5322 ;;		_I2C_Write
  5323 ;;		_delay1
  5324 ;; This function is called by:
  5325 ;;		_runApp
  5326 ;;		_admin_validation
  5327 ;;		_user_validation
  5328 ;;		_unlock_door
  5329 ;;		_lock_door
  5330 ;;		_set_user_password
  5331 ;;		_compare
  5332 ;;		_lcd_reset
  5333 ;; This function uses a non-reentrant model
  5334 ;;
  5335                           
  5336                           	psect	text29
  5337   001F4A                     __ptext29:
  5338                           	callstack 0
  5339   001F4A                     _lcd_cmd:
  5340                           	callstack 25
  5341                           
  5342                           ;incstack = 0
  5343                           ;lcd_cmd@data stored from wreg
  5344   001F4A  6E05               	movwf	lcd_cmd@data^0,c
  5345   001F4C                     
  5346                           ;APP/lcd.c: 12: void lcd_cmd(unsigned char data);APP/lcd.c: 13: {;APP/lcd.c: 14:  unsign
      +                          ed char data_l, data_u;;APP/lcd.c: 15:  data_l = (data<<4)&0xf0;
  5347   001F4C  3805               	swapf	lcd_cmd@data^0,w,c
  5348   001F4E  0BF0               	andlw	240
  5349   001F50  0BF0               	andlw	240
  5350   001F52  6E06               	movwf	lcd_cmd@data_l^0,c
  5351                           
  5352                           ;APP/lcd.c: 16:  data_u = data&0xf0;
  5353   001F54  5005               	movf	lcd_cmd@data^0,w,c
  5354   001F56  0BF0               	andlw	240
  5355   001F58  6E07               	movwf	lcd_cmd@data_u^0,c
  5356   001F5A                     
  5357                           ;APP/lcd.c: 18:  I2C_Start(0x27<<1);
  5358   001F5A  0E4E               	movlw	78
  5359   001F5C  EC56  F010         	call	_I2C_Start
  5360   001F60                     
  5361                           ;APP/lcd.c: 20:  I2C_Write (data_u|0x0C);
  5362   001F60  5007               	movf	lcd_cmd@data_u^0,w,c
  5363   001F62  090C               	iorlw	12
  5364   001F64  EC84  F010         	call	_I2C_Write
  5365   001F68                     
  5366                           ;APP/lcd.c: 21:  delay1();
  5367   001F68  EC32  F00F         	call	_delay1	;wreg free
  5368   001F6C                     
  5369                           ;APP/lcd.c: 22:  I2C_Write (data_u|0x08);
  5370   001F6C  5007               	movf	lcd_cmd@data_u^0,w,c
  5371   001F6E  0908               	iorlw	8
  5372   001F70  EC84  F010         	call	_I2C_Write
  5373   001F74                     
  5374                           ;APP/lcd.c: 24:  I2C_Write (data_l|0x0C);
  5375   001F74  5006               	movf	lcd_cmd@data_l^0,w,c
  5376   001F76  090C               	iorlw	12
  5377   001F78  EC84  F010         	call	_I2C_Write
  5378   001F7C                     
  5379                           ;APP/lcd.c: 25:  delay1();
  5380   001F7C  EC32  F00F         	call	_delay1	;wreg free
  5381   001F80                     
  5382                           ;APP/lcd.c: 26:  I2C_Write (data_l|0x08);
  5383   001F80  5006               	movf	lcd_cmd@data_l^0,w,c
  5384   001F82  0908               	iorlw	8
  5385   001F84  EC84  F010         	call	_I2C_Write
  5386   001F88                     
  5387                           ;APP/lcd.c: 28:  I2C_Stop();
  5388   001F88  ECC6  F010         	call	_I2C_Stop	;wreg free
  5389   001F8C  0012               	return		;funcret
  5390   001F8E                     __end_of_lcd_cmd:
  5391                           	callstack 0
  5392                           
  5393 ;; *************** function _col4 *****************
  5394 ;; Defined at:
  5395 ;;		line 156 in file "APP/keypad.c"
  5396 ;; Parameters:    Size  Location     Type
  5397 ;;		None
  5398 ;; Auto vars:     Size  Location     Type
  5399 ;;		None
  5400 ;; Return value:  Size  Location     Type
  5401 ;;                  1    wreg      void 
  5402 ;; Registers used:
  5403 ;;		wreg, fsr2l, fsr2h, status,2, status,0, cstack
  5404 ;; Tracked objects:
  5405 ;;		On entry : 0/0
  5406 ;;		On exit  : 0/0
  5407 ;;		Unchanged: 0/0
  5408 ;; Data sizes:     COMRAM   BANK0   BANK1   BANK2   BANK3   BANK4   BANK5
  5409 ;;      Params:         0       0       0       0       0       0       0
  5410 ;;      Locals:         0       0       0       0       0       0       0
  5411 ;;      Temps:          0       0       0       0       0       0       0
  5412 ;;      Totals:         0       0       0       0       0       0       0
  5413 ;;Total ram usage:        0 bytes
  5414 ;; Hardware stack levels used: 1
  5415 ;; Hardware stack levels required when called: 4
  5416 ;; This function calls:
  5417 ;;		_lcd_data
  5418 ;; This function is called by:
  5419 ;;		_admin_validation
  5420 ;;		_user_validation
  5421 ;;		_unlock_door
  5422 ;;		_lock_door
  5423 ;; This function uses a non-reentrant model
  5424 ;;
  5425                           
  5426                           	psect	text30
  5427   0018F6                     __ptext30:
  5428                           	callstack 0
  5429   0018F6                     _col4:
  5430                           	callstack 24
  5431   0018F6                     
  5432                           ;APP/keypad.c: 158:     PORTBbits.RB0=PORTBbits.RB1=PORTBbits.RB2=PORTBbits.RB3=1;
  5433   0018F6  8681               	bsf	129,3,c	;volatile
  5434   0018F8  8481               	bsf	129,2,c	;volatile
  5435   0018FA  8281               	bsf	129,1,c	;volatile
  5436   0018FC  8081               	bsf	129,0,c	;volatile
  5437                           
  5438                           ;APP/keypad.c: 159:     PORTBbits.RB0=0;
  5439   0018FE  9081               	bcf	129,0,c	;volatile
  5440                           
  5441                           ;APP/keypad.c: 160:     if(PORTBbits.RB7==0)
  5442   001900  BE81               	btfsc	129,7,c	;volatile
  5443   001902  EF85  F00C         	goto	u2411
  5444   001906  EF87  F00C         	goto	u2410
  5445   00190A                     u2411:
  5446   00190A  EF97  F00C         	goto	l3092
  5447   00190E                     u2410:
  5448   00190E                     l394:
  5449                           
  5450                           ;APP/keypad.c: 162:         while(PORTBbits.RB7==0)
  5451   00190E  AE81               	btfss	129,7,c	;volatile
  5452   001910  EF8C  F00C         	goto	u2421
  5453   001914  EF8E  F00C         	goto	u2420
  5454   001918                     u2421:
  5455   001918  EF87  F00C         	goto	l394
  5456   00191C                     u2420:
  5457   00191C                     
  5458                           ;APP/keypad.c: 164:         lcd_data('*');
  5459   00191C  0E2A               	movlw	42
  5460   00191E  ECC7  F00F         	call	_lcd_data
  5461   001922                     
  5462                           ;APP/keypad.c: 166:         type_passcode[i]='A';
  5463   001922  504F               	movf	_i^0,w,c
  5464   001924  0F44               	addlw	low _type_passcode
  5465   001926  6ED9               	movwf	fsr2l,c
  5466   001928  6ADA               	clrf	fsr2h,c
  5467   00192A  0E41               	movlw	65
  5468   00192C  6EDF               	movwf	indf2,c
  5469   00192E                     l3092:
  5470                           
  5471                           ;APP/keypad.c: 169:     PORTBbits.RB0=1;
  5472   00192E  8081               	bsf	129,0,c	;volatile
  5473   001930                     
  5474                           ;APP/keypad.c: 170:     PORTBbits.RB1=0;
  5475   001930  9281               	bcf	129,1,c	;volatile
  5476   001932                     
  5477                           ;APP/keypad.c: 171:     if(PORTBbits.RB7==0)
  5478   001932  BE81               	btfsc	129,7,c	;volatile
  5479   001934  EF9E  F00C         	goto	u2431
  5480   001938  EFA0  F00C         	goto	u2430
  5481   00193C                     u2431:
  5482   00193C  EFB0  F00C         	goto	l3104
  5483   001940                     u2430:
  5484   001940                     l398:
  5485                           
  5486                           ;APP/keypad.c: 173:         while(PORTBbits.RB7==0)
  5487   001940  AE81               	btfss	129,7,c	;volatile
  5488   001942  EFA5  F00C         	goto	u2441
  5489   001946  EFA7  F00C         	goto	u2440
  5490   00194A                     u2441:
  5491   00194A  EFA0  F00C         	goto	l398
  5492   00194E                     u2440:
  5493   00194E                     
  5494                           ;APP/keypad.c: 175:         lcd_data('*');
  5495   00194E  0E2A               	movlw	42
  5496   001950  ECC7  F00F         	call	_lcd_data
  5497   001954                     
  5498                           ;APP/keypad.c: 177:         type_passcode[i]='B';
  5499   001954  504F               	movf	_i^0,w,c
  5500   001956  0F44               	addlw	low _type_passcode
  5501   001958  6ED9               	movwf	fsr2l,c
  5502   00195A  6ADA               	clrf	fsr2h,c
  5503   00195C  0E42               	movlw	66
  5504   00195E  6EDF               	movwf	indf2,c
  5505   001960                     l3104:
  5506                           
  5507                           ;APP/keypad.c: 180:     PORTBbits.RB1=1;
  5508   001960  8281               	bsf	129,1,c	;volatile
  5509   001962                     
  5510                           ;APP/keypad.c: 181:     PORTBbits.RB2=0;
  5511   001962  9481               	bcf	129,2,c	;volatile
  5512   001964                     
  5513                           ;APP/keypad.c: 182:     if(PORTBbits.RB7==0)
  5514   001964  BE81               	btfsc	129,7,c	;volatile
  5515   001966  EFB7  F00C         	goto	u2451
  5516   00196A  EFB9  F00C         	goto	u2450
  5517   00196E                     u2451:
  5518   00196E  EFC9  F00C         	goto	l3116
  5519   001972                     u2450:
  5520   001972                     l402:
  5521                           
  5522                           ;APP/keypad.c: 184:         while(PORTBbits.RB7==0)
  5523   001972  AE81               	btfss	129,7,c	;volatile
  5524   001974  EFBE  F00C         	goto	u2461
  5525   001978  EFC0  F00C         	goto	u2460
  5526   00197C                     u2461:
  5527   00197C  EFB9  F00C         	goto	l402
  5528   001980                     u2460:
  5529   001980                     
  5530                           ;APP/keypad.c: 186:         lcd_data('*');
  5531   001980  0E2A               	movlw	42
  5532   001982  ECC7  F00F         	call	_lcd_data
  5533   001986                     
  5534                           ;APP/keypad.c: 188:         type_passcode[i]='C';
  5535   001986  504F               	movf	_i^0,w,c
  5536   001988  0F44               	addlw	low _type_passcode
  5537   00198A  6ED9               	movwf	fsr2l,c
  5538   00198C  6ADA               	clrf	fsr2h,c
  5539   00198E  0E43               	movlw	67
  5540   001990  6EDF               	movwf	indf2,c
  5541   001992                     l3116:
  5542                           
  5543                           ;APP/keypad.c: 191:     PORTBbits.RB2=1;
  5544   001992  8481               	bsf	129,2,c	;volatile
  5545   001994                     
  5546                           ;APP/keypad.c: 192:     PORTBbits.RB3=0;
  5547   001994  9681               	bcf	129,3,c	;volatile
  5548   001996                     
  5549                           ;APP/keypad.c: 193:     if(PORTBbits.RB7==0)
  5550   001996  BE81               	btfsc	129,7,c	;volatile
  5551   001998  EFD0  F00C         	goto	u2471
  5552   00199C  EFD2  F00C         	goto	u2470
  5553   0019A0                     u2471:
  5554   0019A0  EFE2  F00C         	goto	l3128
  5555   0019A4                     u2470:
  5556   0019A4                     l406:
  5557                           
  5558                           ;APP/keypad.c: 195:         while(PORTBbits.RB7==0)
  5559   0019A4  AE81               	btfss	129,7,c	;volatile
  5560   0019A6  EFD7  F00C         	goto	u2481
  5561   0019AA  EFD9  F00C         	goto	u2480
  5562   0019AE                     u2481:
  5563   0019AE  EFD2  F00C         	goto	l406
  5564   0019B2                     u2480:
  5565   0019B2                     
  5566                           ;APP/keypad.c: 197:             lcd_data('*');
  5567   0019B2  0E2A               	movlw	42
  5568   0019B4  ECC7  F00F         	call	_lcd_data
  5569   0019B8                     
  5570                           ;APP/keypad.c: 199:             type_passcode[i]='D';
  5571   0019B8  504F               	movf	_i^0,w,c
  5572   0019BA  0F44               	addlw	low _type_passcode
  5573   0019BC  6ED9               	movwf	fsr2l,c
  5574   0019BE  6ADA               	clrf	fsr2h,c
  5575   0019C0  0E44               	movlw	68
  5576   0019C2  6EDF               	movwf	indf2,c
  5577   0019C4                     l3128:
  5578                           
  5579                           ;APP/keypad.c: 201:     PORTBbits.RB3=1;
  5580   0019C4  8681               	bsf	129,3,c	;volatile
  5581   0019C6  0012               	return		;funcret
  5582   0019C8                     __end_of_col4:
  5583                           	callstack 0
  5584                           
  5585 ;; *************** function _col3 *****************
  5586 ;; Defined at:
  5587 ;;		line 106 in file "APP/keypad.c"
  5588 ;; Parameters:    Size  Location     Type
  5589 ;;		None
  5590 ;; Auto vars:     Size  Location     Type
  5591 ;;		None
  5592 ;; Return value:  Size  Location     Type
  5593 ;;                  1    wreg      void 
  5594 ;; Registers used:
  5595 ;;		wreg, fsr2l, fsr2h, status,2, status,0, cstack
  5596 ;; Tracked objects:
  5597 ;;		On entry : 0/0
  5598 ;;		On exit  : 0/0
  5599 ;;		Unchanged: 0/0
  5600 ;; Data sizes:     COMRAM   BANK0   BANK1   BANK2   BANK3   BANK4   BANK5
  5601 ;;      Params:         0       0       0       0       0       0       0
  5602 ;;      Locals:         0       0       0       0       0       0       0
  5603 ;;      Temps:          0       0       0       0       0       0       0
  5604 ;;      Totals:         0       0       0       0       0       0       0
  5605 ;;Total ram usage:        0 bytes
  5606 ;; Hardware stack levels used: 1
  5607 ;; Hardware stack levels required when called: 4
  5608 ;; This function calls:
  5609 ;;		_lcd_data
  5610 ;; This function is called by:
  5611 ;;		_runApp
  5612 ;;		_admin_validation
  5613 ;;		_user_validation
  5614 ;;		_unlock_door
  5615 ;;		_lock_door
  5616 ;; This function uses a non-reentrant model
  5617 ;;
  5618                           
  5619                           	psect	text31
  5620   00132C                     __ptext31:
  5621                           	callstack 0
  5622   00132C                     _col3:
  5623                           	callstack 24
  5624   00132C                     
  5625                           ;APP/keypad.c: 108:     PORTBbits.RB0=PORTBbits.RB1=PORTBbits.RB2=PORTBbits.RB3=1;
  5626   00132C  8681               	bsf	129,3,c	;volatile
  5627   00132E  8481               	bsf	129,2,c	;volatile
  5628   001330  8281               	bsf	129,1,c	;volatile
  5629   001332  8081               	bsf	129,0,c	;volatile
  5630                           
  5631                           ;APP/keypad.c: 109:     PORTBbits.RB0=0;
  5632   001334  9081               	bcf	129,0,c	;volatile
  5633                           
  5634                           ;APP/keypad.c: 110:     if(PORTBbits.RB6==0)
  5635   001336  BC81               	btfsc	129,6,c	;volatile
  5636   001338  EFA0  F009         	goto	u2331
  5637   00133C  EFA2  F009         	goto	u2330
  5638   001340                     u2331:
  5639   001340  EFB4  F009         	goto	l3046
  5640   001344                     u2330:
  5641   001344                     l375:
  5642                           
  5643                           ;APP/keypad.c: 112:         while(PORTBbits.RB6==0)
  5644   001344  AC81               	btfss	129,6,c	;volatile
  5645   001346  EFA7  F009         	goto	u2341
  5646   00134A  EFA9  F009         	goto	u2340
  5647   00134E                     u2341:
  5648   00134E  EFA2  F009         	goto	l375
  5649   001352                     u2340:
  5650   001352                     
  5651                           ;APP/keypad.c: 114:         lcd_data('*');
  5652   001352  0E2A               	movlw	42
  5653   001354  ECC7  F00F         	call	_lcd_data
  5654   001358                     
  5655                           ;APP/keypad.c: 116:         type_passcode[i]='3';
  5656   001358  504F               	movf	_i^0,w,c
  5657   00135A  0F44               	addlw	low _type_passcode
  5658   00135C  6ED9               	movwf	fsr2l,c
  5659   00135E  6ADA               	clrf	fsr2h,c
  5660   001360  0E33               	movlw	51
  5661   001362  6EDF               	movwf	indf2,c
  5662   001364                     
  5663                           ;APP/keypad.c: 117:         ch = '3';
  5664   001364  0E33               	movlw	51
  5665   001366  6E54               	movwf	_ch^0,c
  5666   001368                     l3046:
  5667                           
  5668                           ;APP/keypad.c: 120:     PORTBbits.RB0=1;
  5669   001368  8081               	bsf	129,0,c	;volatile
  5670   00136A                     
  5671                           ;APP/keypad.c: 121:     PORTBbits.RB1=0;
  5672   00136A  9281               	bcf	129,1,c	;volatile
  5673   00136C                     
  5674                           ;APP/keypad.c: 122:     if(PORTBbits.RB6==0)
  5675   00136C  BC81               	btfsc	129,6,c	;volatile
  5676   00136E  EFBB  F009         	goto	u2351
  5677   001372  EFBD  F009         	goto	u2350
  5678   001376                     u2351:
  5679   001376  EFCD  F009         	goto	l3058
  5680   00137A                     u2350:
  5681   00137A                     l379:
  5682                           
  5683                           ;APP/keypad.c: 124:         while(PORTBbits.RB6==0)
  5684   00137A  AC81               	btfss	129,6,c	;volatile
  5685   00137C  EFC2  F009         	goto	u2361
  5686   001380  EFC4  F009         	goto	u2360
  5687   001384                     u2361:
  5688   001384  EFBD  F009         	goto	l379
  5689   001388                     u2360:
  5690   001388                     
  5691                           ;APP/keypad.c: 126:         lcd_data('*');
  5692   001388  0E2A               	movlw	42
  5693   00138A  ECC7  F00F         	call	_lcd_data
  5694   00138E                     
  5695                           ;APP/keypad.c: 128:         type_passcode[i]='6';
  5696   00138E  504F               	movf	_i^0,w,c
  5697   001390  0F44               	addlw	low _type_passcode
  5698   001392  6ED9               	movwf	fsr2l,c
  5699   001394  6ADA               	clrf	fsr2h,c
  5700   001396  0E36               	movlw	54
  5701   001398  6EDF               	movwf	indf2,c
  5702   00139A                     l3058:
  5703                           
  5704                           ;APP/keypad.c: 131:     PORTBbits.RB1=1;
  5705   00139A  8281               	bsf	129,1,c	;volatile
  5706   00139C                     
  5707                           ;APP/keypad.c: 132:     PORTBbits.RB2=0;
  5708   00139C  9481               	bcf	129,2,c	;volatile
  5709   00139E                     
  5710                           ;APP/keypad.c: 133:     if(PORTBbits.RB6==0)
  5711   00139E  BC81               	btfsc	129,6,c	;volatile
  5712   0013A0  EFD4  F009         	goto	u2371
  5713   0013A4  EFD6  F009         	goto	u2370
  5714   0013A8                     u2371:
  5715   0013A8  EFE6  F009         	goto	l3070
  5716   0013AC                     u2370:
  5717   0013AC                     l383:
  5718                           
  5719                           ;APP/keypad.c: 135:         while(PORTBbits.RB6==0)
  5720   0013AC  AC81               	btfss	129,6,c	;volatile
  5721   0013AE  EFDB  F009         	goto	u2381
  5722   0013B2  EFDD  F009         	goto	u2380
  5723   0013B6                     u2381:
  5724   0013B6  EFD6  F009         	goto	l383
  5725   0013BA                     u2380:
  5726   0013BA                     
  5727                           ;APP/keypad.c: 137:         lcd_data('*');
  5728   0013BA  0E2A               	movlw	42
  5729   0013BC  ECC7  F00F         	call	_lcd_data
  5730   0013C0                     
  5731                           ;APP/keypad.c: 140:         type_passcode[i]='9';
  5732   0013C0  504F               	movf	_i^0,w,c
  5733   0013C2  0F44               	addlw	low _type_passcode
  5734   0013C4  6ED9               	movwf	fsr2l,c
  5735   0013C6  6ADA               	clrf	fsr2h,c
  5736   0013C8  0E39               	movlw	57
  5737   0013CA  6EDF               	movwf	indf2,c
  5738   0013CC                     l3070:
  5739                           
  5740                           ;APP/keypad.c: 143:     PORTBbits.RB2=1;
  5741   0013CC  8481               	bsf	129,2,c	;volatile
  5742   0013CE                     
  5743                           ;APP/keypad.c: 144:     PORTBbits.RB3=0;
  5744   0013CE  9681               	bcf	129,3,c	;volatile
  5745   0013D0                     
  5746                           ;APP/keypad.c: 145:     if(PORTBbits.RB6==0)
  5747   0013D0  BC81               	btfsc	129,6,c	;volatile
  5748   0013D2  EFED  F009         	goto	u2391
  5749   0013D6  EFEF  F009         	goto	u2390
  5750   0013DA                     u2391:
  5751   0013DA  EFFF  F009         	goto	l3082
  5752   0013DE                     u2390:
  5753   0013DE                     l387:
  5754                           
  5755                           ;APP/keypad.c: 147:         while(PORTBbits.RB6==0)
  5756   0013DE  AC81               	btfss	129,6,c	;volatile
  5757   0013E0  EFF4  F009         	goto	u2401
  5758   0013E4  EFF6  F009         	goto	u2400
  5759   0013E8                     u2401:
  5760   0013E8  EFEF  F009         	goto	l387
  5761   0013EC                     u2400:
  5762   0013EC                     
  5763                           ;APP/keypad.c: 149:             lcd_data('*');
  5764   0013EC  0E2A               	movlw	42
  5765   0013EE  ECC7  F00F         	call	_lcd_data
  5766   0013F2                     
  5767                           ;APP/keypad.c: 151:             type_passcode[i]='#';
  5768   0013F2  504F               	movf	_i^0,w,c
  5769   0013F4  0F44               	addlw	low _type_passcode
  5770   0013F6  6ED9               	movwf	fsr2l,c
  5771   0013F8  6ADA               	clrf	fsr2h,c
  5772   0013FA  0E23               	movlw	35
  5773   0013FC  6EDF               	movwf	indf2,c
  5774   0013FE                     l3082:
  5775                           
  5776                           ;APP/keypad.c: 153:     PORTBbits.RB3=1;
  5777   0013FE  8681               	bsf	129,3,c	;volatile
  5778   001400  0012               	return		;funcret
  5779   001402                     __end_of_col3:
  5780                           	callstack 0
  5781                           
  5782 ;; *************** function _col2 *****************
  5783 ;; Defined at:
  5784 ;;		line 56 in file "APP/keypad.c"
  5785 ;; Parameters:    Size  Location     Type
  5786 ;;		None
  5787 ;; Auto vars:     Size  Location     Type
  5788 ;;		None
  5789 ;; Return value:  Size  Location     Type
  5790 ;;                  1    wreg      void 
  5791 ;; Registers used:
  5792 ;;		wreg, fsr2l, fsr2h, status,2, status,0, cstack
  5793 ;; Tracked objects:
  5794 ;;		On entry : 0/0
  5795 ;;		On exit  : 0/0
  5796 ;;		Unchanged: 0/0
  5797 ;; Data sizes:     COMRAM   BANK0   BANK1   BANK2   BANK3   BANK4   BANK5
  5798 ;;      Params:         0       0       0       0       0       0       0
  5799 ;;      Locals:         0       0       0       0       0       0       0
  5800 ;;      Temps:          0       0       0       0       0       0       0
  5801 ;;      Totals:         0       0       0       0       0       0       0
  5802 ;;Total ram usage:        0 bytes
  5803 ;; Hardware stack levels used: 1
  5804 ;; Hardware stack levels required when called: 4
  5805 ;; This function calls:
  5806 ;;		_lcd_data
  5807 ;; This function is called by:
  5808 ;;		_runApp
  5809 ;;		_admin_validation
  5810 ;;		_user_validation
  5811 ;;		_unlock_door
  5812 ;;		_lock_door
  5813 ;; This function uses a non-reentrant model
  5814 ;;
  5815                           
  5816                           	psect	text32
  5817   001402                     __ptext32:
  5818                           	callstack 0
  5819   001402                     _col2:
  5820                           	callstack 24
  5821   001402                     
  5822                           ;APP/keypad.c: 58:     PORTBbits.RB0=PORTBbits.RB1=PORTBbits.RB2=PORTBbits.RB3=1;
  5823   001402  8681               	bsf	129,3,c	;volatile
  5824   001404  8481               	bsf	129,2,c	;volatile
  5825   001406  8281               	bsf	129,1,c	;volatile
  5826   001408  8081               	bsf	129,0,c	;volatile
  5827                           
  5828                           ;APP/keypad.c: 59:     PORTBbits.RB0=0;
  5829   00140A  9081               	bcf	129,0,c	;volatile
  5830                           
  5831                           ;APP/keypad.c: 60:     if(PORTBbits.RB5==0)
  5832   00140C  BA81               	btfsc	129,5,c	;volatile
  5833   00140E  EF0B  F00A         	goto	u2251
  5834   001412  EF0D  F00A         	goto	u2250
  5835   001416                     u2251:
  5836   001416  EF1F  F00A         	goto	l2998
  5837   00141A                     u2250:
  5838   00141A                     l356:
  5839                           
  5840                           ;APP/keypad.c: 62:         while(PORTBbits.RB5==0)
  5841   00141A  AA81               	btfss	129,5,c	;volatile
  5842   00141C  EF12  F00A         	goto	u2261
  5843   001420  EF14  F00A         	goto	u2260
  5844   001424                     u2261:
  5845   001424  EF0D  F00A         	goto	l356
  5846   001428                     u2260:
  5847   001428                     
  5848                           ;APP/keypad.c: 64:         lcd_data('*');
  5849   001428  0E2A               	movlw	42
  5850   00142A  ECC7  F00F         	call	_lcd_data
  5851   00142E                     
  5852                           ;APP/keypad.c: 66:         type_passcode[i]='2';
  5853   00142E  504F               	movf	_i^0,w,c
  5854   001430  0F44               	addlw	low _type_passcode
  5855   001432  6ED9               	movwf	fsr2l,c
  5856   001434  6ADA               	clrf	fsr2h,c
  5857   001436  0E32               	movlw	50
  5858   001438  6EDF               	movwf	indf2,c
  5859   00143A                     
  5860                           ;APP/keypad.c: 67:         ch ='2';
  5861   00143A  0E32               	movlw	50
  5862   00143C  6E54               	movwf	_ch^0,c
  5863   00143E                     l2998:
  5864                           
  5865                           ;APP/keypad.c: 71:     PORTBbits.RB0=1;
  5866   00143E  8081               	bsf	129,0,c	;volatile
  5867   001440                     
  5868                           ;APP/keypad.c: 72:     PORTBbits.RB1=0;
  5869   001440  9281               	bcf	129,1,c	;volatile
  5870   001442                     
  5871                           ;APP/keypad.c: 73:     if(PORTBbits.RB5==0)
  5872   001442  BA81               	btfsc	129,5,c	;volatile
  5873   001444  EF26  F00A         	goto	u2271
  5874   001448  EF28  F00A         	goto	u2270
  5875   00144C                     u2271:
  5876   00144C  EF38  F00A         	goto	l3010
  5877   001450                     u2270:
  5878   001450                     l360:
  5879                           
  5880                           ;APP/keypad.c: 75:         while(PORTBbits.RB5==0)
  5881   001450  AA81               	btfss	129,5,c	;volatile
  5882   001452  EF2D  F00A         	goto	u2281
  5883   001456  EF2F  F00A         	goto	u2280
  5884   00145A                     u2281:
  5885   00145A  EF28  F00A         	goto	l360
  5886   00145E                     u2280:
  5887   00145E                     
  5888                           ;APP/keypad.c: 77:         lcd_data('*');
  5889   00145E  0E2A               	movlw	42
  5890   001460  ECC7  F00F         	call	_lcd_data
  5891   001464                     
  5892                           ;APP/keypad.c: 79:         type_passcode[i]='5';
  5893   001464  504F               	movf	_i^0,w,c
  5894   001466  0F44               	addlw	low _type_passcode
  5895   001468  6ED9               	movwf	fsr2l,c
  5896   00146A  6ADA               	clrf	fsr2h,c
  5897   00146C  0E35               	movlw	53
  5898   00146E  6EDF               	movwf	indf2,c
  5899   001470                     l3010:
  5900                           
  5901                           ;APP/keypad.c: 82:     PORTBbits.RB1=1;
  5902   001470  8281               	bsf	129,1,c	;volatile
  5903   001472                     
  5904                           ;APP/keypad.c: 83:     PORTBbits.RB2=0;
  5905   001472  9481               	bcf	129,2,c	;volatile
  5906   001474                     
  5907                           ;APP/keypad.c: 84:     if(PORTBbits.RB5==0)
  5908   001474  BA81               	btfsc	129,5,c	;volatile
  5909   001476  EF3F  F00A         	goto	u2291
  5910   00147A  EF41  F00A         	goto	u2290
  5911   00147E                     u2291:
  5912   00147E  EF51  F00A         	goto	l3022
  5913   001482                     u2290:
  5914   001482                     l364:
  5915                           
  5916                           ;APP/keypad.c: 86:         while(PORTBbits.RB5==0)
  5917   001482  AA81               	btfss	129,5,c	;volatile
  5918   001484  EF46  F00A         	goto	u2301
  5919   001488  EF48  F00A         	goto	u2300
  5920   00148C                     u2301:
  5921   00148C  EF41  F00A         	goto	l364
  5922   001490                     u2300:
  5923   001490                     
  5924                           ;APP/keypad.c: 88:         lcd_data('*');
  5925   001490  0E2A               	movlw	42
  5926   001492  ECC7  F00F         	call	_lcd_data
  5927   001496                     
  5928                           ;APP/keypad.c: 91:         type_passcode[i]='8';
  5929   001496  504F               	movf	_i^0,w,c
  5930   001498  0F44               	addlw	low _type_passcode
  5931   00149A  6ED9               	movwf	fsr2l,c
  5932   00149C  6ADA               	clrf	fsr2h,c
  5933   00149E  0E38               	movlw	56
  5934   0014A0  6EDF               	movwf	indf2,c
  5935   0014A2                     l3022:
  5936                           
  5937                           ;APP/keypad.c: 94:     PORTBbits.RB2=1;
  5938   0014A2  8481               	bsf	129,2,c	;volatile
  5939   0014A4                     
  5940                           ;APP/keypad.c: 95:     PORTBbits.RB3=0;
  5941   0014A4  9681               	bcf	129,3,c	;volatile
  5942   0014A6                     
  5943                           ;APP/keypad.c: 96:     if(PORTBbits.RB5==0)
  5944   0014A6  BA81               	btfsc	129,5,c	;volatile
  5945   0014A8  EF58  F00A         	goto	u2311
  5946   0014AC  EF5A  F00A         	goto	u2310
  5947   0014B0                     u2311:
  5948   0014B0  EF6A  F00A         	goto	l3034
  5949   0014B4                     u2310:
  5950   0014B4                     l368:
  5951                           
  5952                           ;APP/keypad.c: 98:         while(PORTBbits.RB5==0)
  5953   0014B4  AA81               	btfss	129,5,c	;volatile
  5954   0014B6  EF5F  F00A         	goto	u2321
  5955   0014BA  EF61  F00A         	goto	u2320
  5956   0014BE                     u2321:
  5957   0014BE  EF5A  F00A         	goto	l368
  5958   0014C2                     u2320:
  5959   0014C2                     
  5960                           ;APP/keypad.c: 100:             lcd_data('*');
  5961   0014C2  0E2A               	movlw	42
  5962   0014C4  ECC7  F00F         	call	_lcd_data
  5963   0014C8                     
  5964                           ;APP/keypad.c: 102:             type_passcode[i]='0';
  5965   0014C8  504F               	movf	_i^0,w,c
  5966   0014CA  0F44               	addlw	low _type_passcode
  5967   0014CC  6ED9               	movwf	fsr2l,c
  5968   0014CE  6ADA               	clrf	fsr2h,c
  5969   0014D0  0E30               	movlw	48
  5970   0014D2  6EDF               	movwf	indf2,c
  5971   0014D4                     l3034:
  5972                           
  5973                           ;APP/keypad.c: 104:     PORTBbits.RB3=1;
  5974   0014D4  8681               	bsf	129,3,c	;volatile
  5975   0014D6  0012               	return		;funcret
  5976   0014D8                     __end_of_col2:
  5977                           	callstack 0
  5978                           
  5979 ;; *************** function _col1 *****************
  5980 ;; Defined at:
  5981 ;;		line 7 in file "APP/keypad.c"
  5982 ;; Parameters:    Size  Location     Type
  5983 ;;		None
  5984 ;; Auto vars:     Size  Location     Type
  5985 ;;		None
  5986 ;; Return value:  Size  Location     Type
  5987 ;;                  1    wreg      void 
  5988 ;; Registers used:
  5989 ;;		wreg, fsr2l, fsr2h, status,2, status,0, cstack
  5990 ;; Tracked objects:
  5991 ;;		On entry : 0/0
  5992 ;;		On exit  : 0/0
  5993 ;;		Unchanged: 0/0
  5994 ;; Data sizes:     COMRAM   BANK0   BANK1   BANK2   BANK3   BANK4   BANK5
  5995 ;;      Params:         0       0       0       0       0       0       0
  5996 ;;      Locals:         0       0       0       0       0       0       0
  5997 ;;      Temps:          0       0       0       0       0       0       0
  5998 ;;      Totals:         0       0       0       0       0       0       0
  5999 ;;Total ram usage:        0 bytes
  6000 ;; Hardware stack levels used: 1
  6001 ;; Hardware stack levels required when called: 4
  6002 ;; This function calls:
  6003 ;;		_lcd_data
  6004 ;; This function is called by:
  6005 ;;		_runApp
  6006 ;;		_admin_validation
  6007 ;;		_user_validation
  6008 ;;		_unlock_door
  6009 ;;		_lock_door
  6010 ;; This function uses a non-reentrant model
  6011 ;;
  6012                           
  6013                           	psect	text33
  6014   0014D8                     __ptext33:
  6015                           	callstack 0
  6016   0014D8                     _col1:
  6017                           	callstack 24
  6018   0014D8                     
  6019                           ;APP/keypad.c: 9:     PORTBbits.RB0=PORTBbits.RB1=PORTBbits.RB2=PORTBbits.RB3=1;
  6020   0014D8  8681               	bsf	129,3,c	;volatile
  6021   0014DA  8481               	bsf	129,2,c	;volatile
  6022   0014DC  8281               	bsf	129,1,c	;volatile
  6023   0014DE  8081               	bsf	129,0,c	;volatile
  6024                           
  6025                           ;APP/keypad.c: 10:     PORTBbits.RB0=0;
  6026   0014E0  9081               	bcf	129,0,c	;volatile
  6027                           
  6028                           ;APP/keypad.c: 11:     if(PORTBbits.RB4==0)
  6029   0014E2  B881               	btfsc	129,4,c	;volatile
  6030   0014E4  EF76  F00A         	goto	u2171
  6031   0014E8  EF78  F00A         	goto	u2170
  6032   0014EC                     u2171:
  6033   0014EC  EF8A  F00A         	goto	l2950
  6034   0014F0                     u2170:
  6035   0014F0                     l337:
  6036                           
  6037                           ;APP/keypad.c: 13:         while(PORTBbits.RB4==0)
  6038   0014F0  A881               	btfss	129,4,c	;volatile
  6039   0014F2  EF7D  F00A         	goto	u2181
  6040   0014F6  EF7F  F00A         	goto	u2180
  6041   0014FA                     u2181:
  6042   0014FA  EF78  F00A         	goto	l337
  6043   0014FE                     u2180:
  6044   0014FE                     
  6045                           ;APP/keypad.c: 15:         lcd_data('*');
  6046   0014FE  0E2A               	movlw	42
  6047   001500  ECC7  F00F         	call	_lcd_data
  6048   001504                     
  6049                           ;APP/keypad.c: 17:         type_passcode[i]='1';
  6050   001504  504F               	movf	_i^0,w,c
  6051   001506  0F44               	addlw	low _type_passcode
  6052   001508  6ED9               	movwf	fsr2l,c
  6053   00150A  6ADA               	clrf	fsr2h,c
  6054   00150C  0E31               	movlw	49
  6055   00150E  6EDF               	movwf	indf2,c
  6056   001510                     
  6057                           ;APP/keypad.c: 18:         ch = '1';
  6058   001510  0E31               	movlw	49
  6059   001512  6E54               	movwf	_ch^0,c
  6060   001514                     l2950:
  6061                           
  6062                           ;APP/keypad.c: 21:     PORTBbits.RB0=1;
  6063   001514  8081               	bsf	129,0,c	;volatile
  6064   001516                     
  6065                           ;APP/keypad.c: 22:     PORTBbits.RB1=0;
  6066   001516  9281               	bcf	129,1,c	;volatile
  6067   001518                     
  6068                           ;APP/keypad.c: 23:     if(PORTBbits.RB4==0)
  6069   001518  B881               	btfsc	129,4,c	;volatile
  6070   00151A  EF91  F00A         	goto	u2191
  6071   00151E  EF93  F00A         	goto	u2190
  6072   001522                     u2191:
  6073   001522  EFA3  F00A         	goto	l2962
  6074   001526                     u2190:
  6075   001526                     l341:
  6076                           
  6077                           ;APP/keypad.c: 25:         while(PORTBbits.RB4==0)
  6078   001526  A881               	btfss	129,4,c	;volatile
  6079   001528  EF98  F00A         	goto	u2201
  6080   00152C  EF9A  F00A         	goto	u2200
  6081   001530                     u2201:
  6082   001530  EF93  F00A         	goto	l341
  6083   001534                     u2200:
  6084   001534                     
  6085                           ;APP/keypad.c: 27:         lcd_data('*');
  6086   001534  0E2A               	movlw	42
  6087   001536  ECC7  F00F         	call	_lcd_data
  6088   00153A                     
  6089                           ;APP/keypad.c: 29:         type_passcode[i]='4';
  6090   00153A  504F               	movf	_i^0,w,c
  6091   00153C  0F44               	addlw	low _type_passcode
  6092   00153E  6ED9               	movwf	fsr2l,c
  6093   001540  6ADA               	clrf	fsr2h,c
  6094   001542  0E34               	movlw	52
  6095   001544  6EDF               	movwf	indf2,c
  6096   001546                     l2962:
  6097                           
  6098                           ;APP/keypad.c: 32:     PORTBbits.RB1=1;
  6099   001546  8281               	bsf	129,1,c	;volatile
  6100   001548                     
  6101                           ;APP/keypad.c: 33:     PORTBbits.RB2=0;
  6102   001548  9481               	bcf	129,2,c	;volatile
  6103   00154A                     
  6104                           ;APP/keypad.c: 34:     if(PORTBbits.RB4==0)
  6105   00154A  B881               	btfsc	129,4,c	;volatile
  6106   00154C  EFAA  F00A         	goto	u2211
  6107   001550  EFAC  F00A         	goto	u2210
  6108   001554                     u2211:
  6109   001554  EFBC  F00A         	goto	l2974
  6110   001558                     u2210:
  6111   001558                     l345:
  6112                           
  6113                           ;APP/keypad.c: 36:         while(PORTBbits.RB4==0)
  6114   001558  A881               	btfss	129,4,c	;volatile
  6115   00155A  EFB1  F00A         	goto	u2221
  6116   00155E  EFB3  F00A         	goto	u2220
  6117   001562                     u2221:
  6118   001562  EFAC  F00A         	goto	l345
  6119   001566                     u2220:
  6120   001566                     
  6121                           ;APP/keypad.c: 38:         lcd_data('*');
  6122   001566  0E2A               	movlw	42
  6123   001568  ECC7  F00F         	call	_lcd_data
  6124   00156C                     
  6125                           ;APP/keypad.c: 41:        type_passcode[i]='7';
  6126   00156C  504F               	movf	_i^0,w,c
  6127   00156E  0F44               	addlw	low _type_passcode
  6128   001570  6ED9               	movwf	fsr2l,c
  6129   001572  6ADA               	clrf	fsr2h,c
  6130   001574  0E37               	movlw	55
  6131   001576  6EDF               	movwf	indf2,c
  6132   001578                     l2974:
  6133                           
  6134                           ;APP/keypad.c: 44:     PORTBbits.RB2=1;
  6135   001578  8481               	bsf	129,2,c	;volatile
  6136   00157A                     
  6137                           ;APP/keypad.c: 45:     PORTBbits.RB3=0;
  6138   00157A  9681               	bcf	129,3,c	;volatile
  6139   00157C                     
  6140                           ;APP/keypad.c: 46:     if(PORTBbits.RB4==0)
  6141   00157C  B881               	btfsc	129,4,c	;volatile
  6142   00157E  EFC3  F00A         	goto	u2231
  6143   001582  EFC5  F00A         	goto	u2230
  6144   001586                     u2231:
  6145   001586  EFD5  F00A         	goto	l2986
  6146   00158A                     u2230:
  6147   00158A                     l349:
  6148                           
  6149                           ;APP/keypad.c: 48:         while(PORTBbits.RB4==0)
  6150   00158A  A881               	btfss	129,4,c	;volatile
  6151   00158C  EFCA  F00A         	goto	u2241
  6152   001590  EFCC  F00A         	goto	u2240
  6153   001594                     u2241:
  6154   001594  EFC5  F00A         	goto	l349
  6155   001598                     u2240:
  6156   001598                     
  6157                           ;APP/keypad.c: 50:             lcd_data('*');
  6158   001598  0E2A               	movlw	42
  6159   00159A  ECC7  F00F         	call	_lcd_data
  6160   00159E                     
  6161                           ;APP/keypad.c: 52:           type_passcode[i]='*';
  6162   00159E  504F               	movf	_i^0,w,c
  6163   0015A0  0F44               	addlw	low _type_passcode
  6164   0015A2  6ED9               	movwf	fsr2l,c
  6165   0015A4  6ADA               	clrf	fsr2h,c
  6166   0015A6  0E2A               	movlw	42
  6167   0015A8  6EDF               	movwf	indf2,c
  6168   0015AA                     l2986:
  6169                           
  6170                           ;APP/keypad.c: 54:     PORTBbits.RB3=1;
  6171   0015AA  8681               	bsf	129,3,c	;volatile
  6172   0015AC  0012               	return		;funcret
  6173   0015AE                     __end_of_col1:
  6174                           	callstack 0
  6175                           
  6176 ;; *************** function _lcd_data *****************
  6177 ;; Defined at:
  6178 ;;		line 30 in file "APP/lcd.c"
  6179 ;; Parameters:    Size  Location     Type
  6180 ;;  data            1    wreg     unsigned char 
  6181 ;; Auto vars:     Size  Location     Type
  6182 ;;  data            1    4[COMRAM] unsigned char 
  6183 ;;  data_u          1    6[COMRAM] unsigned char 
  6184 ;;  data_l          1    5[COMRAM] unsigned char 
  6185 ;; Return value:  Size  Location     Type
  6186 ;;                  1    wreg      void 
  6187 ;; Registers used:
  6188 ;;		wreg, status,2, status,0, cstack
  6189 ;; Tracked objects:
  6190 ;;		On entry : 0/0
  6191 ;;		On exit  : 0/0
  6192 ;;		Unchanged: 0/0
  6193 ;; Data sizes:     COMRAM   BANK0   BANK1   BANK2   BANK3   BANK4   BANK5
  6194 ;;      Params:         0       0       0       0       0       0       0
  6195 ;;      Locals:         3       0       0       0       0       0       0
  6196 ;;      Temps:          0       0       0       0       0       0       0
  6197 ;;      Totals:         3       0       0       0       0       0       0
  6198 ;;Total ram usage:        3 bytes
  6199 ;; Hardware stack levels used: 1
  6200 ;; Hardware stack levels required when called: 3
  6201 ;; This function calls:
  6202 ;;		_I2C_Start
  6203 ;;		_I2C_Stop
  6204 ;;		_I2C_Write
  6205 ;;		_delay1
  6206 ;; This function is called by:
  6207 ;;		_runApp
  6208 ;;		_admin_validation
  6209 ;;		_user_validation
  6210 ;;		_unlock_door
  6211 ;;		_lock_door
  6212 ;;		_set_user_password
  6213 ;;		_compare
  6214 ;;		_col1
  6215 ;;		_col2
  6216 ;;		_col3
  6217 ;;		_col4
  6218 ;;		_col5
  6219 ;;		_col6
  6220 ;;		_col7
  6221 ;;		_col8
  6222 ;; This function uses a non-reentrant model
  6223 ;;
  6224                           
  6225                           	psect	text34
  6226   001F8E                     __ptext34:
  6227                           	callstack 0
  6228   001F8E                     _lcd_data:
  6229                           	callstack 25
  6230                           
  6231                           ;incstack = 0
  6232                           ;lcd_data@data stored from wreg
  6233   001F8E  6E05               	movwf	lcd_data@data^0,c
  6234   001F90                     
  6235                           ;APP/lcd.c: 30: void lcd_data(unsigned char data);APP/lcd.c: 31: {;APP/lcd.c: 32: unsign
      +                          ed char data_l, data_u;;APP/lcd.c: 33:  data_l = (data<<4)&0xf0;
  6236   001F90  3805               	swapf	lcd_data@data^0,w,c
  6237   001F92  0BF0               	andlw	240
  6238   001F94  0BF0               	andlw	240
  6239   001F96  6E06               	movwf	lcd_data@data_l^0,c
  6240                           
  6241                           ;APP/lcd.c: 34:  data_u = data&0xf0;
  6242   001F98  5005               	movf	lcd_data@data^0,w,c
  6243   001F9A  0BF0               	andlw	240
  6244   001F9C  6E07               	movwf	lcd_data@data_u^0,c
  6245   001F9E                     
  6246                           ;APP/lcd.c: 36:  I2C_Start(0x27<<1);
  6247   001F9E  0E4E               	movlw	78
  6248   001FA0  EC56  F010         	call	_I2C_Start
  6249   001FA4                     
  6250                           ;APP/lcd.c: 38:  I2C_Write (data_u|0x0D);
  6251   001FA4  5007               	movf	lcd_data@data_u^0,w,c
  6252   001FA6  090D               	iorlw	13
  6253   001FA8  EC84  F010         	call	_I2C_Write
  6254   001FAC                     
  6255                           ;APP/lcd.c: 39:  delay1();
  6256   001FAC  EC32  F00F         	call	_delay1	;wreg free
  6257   001FB0                     
  6258                           ;APP/lcd.c: 40:  I2C_Write (data_u|0x09);
  6259   001FB0  5007               	movf	lcd_data@data_u^0,w,c
  6260   001FB2  0909               	iorlw	9
  6261   001FB4  EC84  F010         	call	_I2C_Write
  6262   001FB8                     
  6263                           ;APP/lcd.c: 42:  I2C_Write (data_l|0x0D);
  6264   001FB8  5006               	movf	lcd_data@data_l^0,w,c
  6265   001FBA  090D               	iorlw	13
  6266   001FBC  EC84  F010         	call	_I2C_Write
  6267   001FC0                     
  6268                           ;APP/lcd.c: 43:  delay1();
  6269   001FC0  EC32  F00F         	call	_delay1	;wreg free
  6270   001FC4                     
  6271                           ;APP/lcd.c: 44:  I2C_Write (data_l|0x09);
  6272   001FC4  5006               	movf	lcd_data@data_l^0,w,c
  6273   001FC6  0909               	iorlw	9
  6274   001FC8  EC84  F010         	call	_I2C_Write
  6275   001FCC                     
  6276                           ;APP/lcd.c: 46:  I2C_Stop();
  6277   001FCC  ECC6  F010         	call	_I2C_Stop	;wreg free
  6278   001FD0  0012               	return		;funcret
  6279   001FD2                     __end_of_lcd_data:
  6280                           	callstack 0
  6281                           
  6282 ;; *************** function _delay1 *****************
  6283 ;; Defined at:
  6284 ;;		line 48 in file "APP/lcd.c"
  6285 ;; Parameters:    Size  Location     Type
  6286 ;;		None
  6287 ;; Auto vars:     Size  Location     Type
  6288 ;;  j               2    2[COMRAM] int 
  6289 ;;  i               2    0[COMRAM] int 
  6290 ;; Return value:  Size  Location     Type
  6291 ;;                  1    wreg      void 
  6292 ;; Registers used:
  6293 ;;		wreg, status,2, status,0
  6294 ;; Tracked objects:
  6295 ;;		On entry : 0/0
  6296 ;;		On exit  : 0/0
  6297 ;;		Unchanged: 0/0
  6298 ;; Data sizes:     COMRAM   BANK0   BANK1   BANK2   BANK3   BANK4   BANK5
  6299 ;;      Params:         0       0       0       0       0       0       0
  6300 ;;      Locals:         4       0       0       0       0       0       0
  6301 ;;      Temps:          0       0       0       0       0       0       0
  6302 ;;      Totals:         4       0       0       0       0       0       0
  6303 ;;Total ram usage:        4 bytes
  6304 ;; Hardware stack levels used: 1
  6305 ;; This function calls:
  6306 ;;		Nothing
  6307 ;; This function is called by:
  6308 ;;		_lcd_cmd
  6309 ;;		_lcd_data
  6310 ;; This function uses a non-reentrant model
  6311 ;;
  6312                           
  6313                           	psect	text35
  6314   001E64                     __ptext35:
  6315                           	callstack 0
  6316   001E64                     _delay1:
  6317                           	callstack 27
  6318   001E64                     
  6319                           ;APP/lcd.c: 50:  int i,j;;APP/lcd.c: 51:  for(i=0;i<100;i++)
  6320   001E64  0E00               	movlw	0
  6321   001E66  6E02               	movwf	(delay1@i+1)^0,c
  6322   001E68  0E00               	movlw	0
  6323   001E6A  6E01               	movwf	delay1@i^0,c
  6324   001E6C                     l2736:
  6325                           
  6326                           ;APP/lcd.c: 52:   for(j=0;j<50;j++);
  6327   001E6C  0E00               	movlw	0
  6328   001E6E  6E04               	movwf	(delay1@j+1)^0,c
  6329   001E70  0E00               	movlw	0
  6330   001E72  6E03               	movwf	delay1@j^0,c
  6331   001E74                     l2742:
  6332   001E74  4A03               	infsnz	delay1@j^0,f,c
  6333   001E76  2A04               	incf	(delay1@j+1)^0,f,c
  6334   001E78  BE04               	btfsc	(delay1@j+1)^0,7,c
  6335   001E7A  EF48  F00F         	goto	u1911
  6336   001E7E  5004               	movf	(delay1@j+1)^0,w,c
  6337   001E80  E109               	bnz	u1910
  6338   001E82  0E32               	movlw	50
  6339   001E84  5C03               	subwf	delay1@j^0,w,c
  6340   001E86  A0D8               	btfss	status,0,c
  6341   001E88  EF48  F00F         	goto	u1911
  6342   001E8C  EF4A  F00F         	goto	u1910
  6343   001E90                     u1911:
  6344   001E90  EF3A  F00F         	goto	l2742
  6345   001E94                     u1910:
  6346   001E94  4A01               	infsnz	delay1@i^0,f,c
  6347   001E96  2A02               	incf	(delay1@i+1)^0,f,c
  6348   001E98  BE02               	btfsc	(delay1@i+1)^0,7,c
  6349   001E9A  EF58  F00F         	goto	u1921
  6350   001E9E  5002               	movf	(delay1@i+1)^0,w,c
  6351   001EA0  E109               	bnz	u1920
  6352   001EA2  0E64               	movlw	100
  6353   001EA4  5C01               	subwf	delay1@i^0,w,c
  6354   001EA6  A0D8               	btfss	status,0,c
  6355   001EA8  EF58  F00F         	goto	u1921
  6356   001EAC  EF5A  F00F         	goto	u1920
  6357   001EB0                     u1921:
  6358   001EB0  EF36  F00F         	goto	l2736
  6359   001EB4                     u1920:
  6360   001EB4  0012               	return		;funcret
  6361   001EB6                     __end_of_delay1:
  6362                           	callstack 0
  6363                           
  6364 ;; *************** function _I2C_Stop *****************
  6365 ;; Defined at:
  6366 ;;		line 38 in file "APP/I2C_.c"
  6367 ;; Parameters:    Size  Location     Type
  6368 ;;		None
  6369 ;; Auto vars:     Size  Location     Type
  6370 ;;		None
  6371 ;; Return value:  Size  Location     Type
  6372 ;;                  1    wreg      unsigned char 
  6373 ;; Registers used:
  6374 ;;		wreg, cstack
  6375 ;; Tracked objects:
  6376 ;;		On entry : 0/0
  6377 ;;		On exit  : 0/0
  6378 ;;		Unchanged: 0/0
  6379 ;; Data sizes:     COMRAM   BANK0   BANK1   BANK2   BANK3   BANK4   BANK5
  6380 ;;      Params:         0       0       0       0       0       0       0
  6381 ;;      Locals:         0       0       0       0       0       0       0
  6382 ;;      Temps:          0       0       0       0       0       0       0
  6383 ;;      Totals:         0       0       0       0       0       0       0
  6384 ;;Total ram usage:        0 bytes
  6385 ;; Hardware stack levels used: 1
  6386 ;; Hardware stack levels required when called: 1
  6387 ;; This function calls:
  6388 ;;		_I2C_Ready
  6389 ;; This function is called by:
  6390 ;;		_lcd_cmd
  6391 ;;		_lcd_data
  6392 ;; This function uses a non-reentrant model
  6393 ;;
  6394                           
  6395                           	psect	text36
  6396   00218C                     __ptext36:
  6397                           	callstack 0
  6398   00218C                     _I2C_Stop:
  6399                           	callstack 26
  6400   00218C                     
  6401                           ;APP/I2C_.c: 40:  I2C_Ready();
  6402   00218C  EC6D  F010         	call	_I2C_Ready	;wreg free
  6403   002190                     
  6404                           ;APP/I2C_.c: 41:  SSPCON2bits.PEN = 1;
  6405   002190  84C5               	bsf	197,2,c	;volatile
  6406   002192                     l603:
  6407   002192  B4C5               	btfsc	197,2,c	;volatile
  6408   002194  EFCE  F010         	goto	u1931
  6409   002198  EFD0  F010         	goto	u1930
  6410   00219C                     u1931:
  6411   00219C  EFC9  F010         	goto	l603
  6412   0021A0                     u1930:
  6413   0021A0                     
  6414                           ;APP/I2C_.c: 43:  PIR1bits.SSPIF = 0;
  6415   0021A0  969E               	bcf	158,3,c	;volatile
  6416                           
  6417                           ;APP/I2C_.c: 44:  if(!SSPSTATbits.P)
  6418   0021A2  50C7               	movf	199,w,c	;volatile
  6419   0021A4  0012               	return		;funcret
  6420   0021A6                     __end_of_I2C_Stop:
  6421                           	callstack 0
  6422                           
  6423 ;; *************** function _I2C_Start *****************
  6424 ;; Defined at:
  6425 ;;		line 29 in file "APP/I2C_.c"
  6426 ;; Parameters:    Size  Location     Type
  6427 ;;  slave_write_    1    wreg     unsigned char 
  6428 ;; Auto vars:     Size  Location     Type
  6429 ;;  slave_write_    1    1[COMRAM] unsigned char 
  6430 ;; Return value:  Size  Location     Type
  6431 ;;                  1    wreg      unsigned char 
  6432 ;; Registers used:
  6433 ;;		wreg, status,2, cstack
  6434 ;; Tracked objects:
  6435 ;;		On entry : 0/0
  6436 ;;		On exit  : 0/0
  6437 ;;		Unchanged: 0/0
  6438 ;; Data sizes:     COMRAM   BANK0   BANK1   BANK2   BANK3   BANK4   BANK5
  6439 ;;      Params:         0       0       0       0       0       0       0
  6440 ;;      Locals:         1       0       0       0       0       0       0
  6441 ;;      Temps:          0       0       0       0       0       0       0
  6442 ;;      Totals:         1       0       0       0       0       0       0
  6443 ;;Total ram usage:        1 bytes
  6444 ;; Hardware stack levels used: 1
  6445 ;; Hardware stack levels required when called: 2
  6446 ;; This function calls:
  6447 ;;		_I2C_Write
  6448 ;; This function is called by:
  6449 ;;		_lcd_cmd
  6450 ;;		_lcd_data
  6451 ;; This function uses a non-reentrant model
  6452 ;;
  6453                           
  6454                           	psect	text37
  6455   0020AC                     __ptext37:
  6456                           	callstack 0
  6457   0020AC                     _I2C_Start:
  6458                           	callstack 25
  6459                           
  6460                           ;incstack = 0
  6461                           ;I2C_Start@slave_write_address stored from wreg
  6462   0020AC  6E02               	movwf	I2C_Start@slave_write_address^0,c
  6463   0020AE                     
  6464                           ;APP/I2C_.c: 29: char I2C_Start(char slave_write_address);APP/I2C_.c: 30: {;APP/I2C_.c: 
      +                          31:  SSPCON2bits.SEN = 1;
  6465   0020AE  80C5               	bsf	197,0,c	;volatile
  6466   0020B0                     l596:
  6467   0020B0  B0C5               	btfsc	197,0,c	;volatile
  6468   0020B2  EF5D  F010         	goto	u1891
  6469   0020B6  EF5F  F010         	goto	u1890
  6470   0020BA                     u1891:
  6471   0020BA  EF58  F010         	goto	l596
  6472   0020BE                     u1890:
  6473   0020BE                     
  6474                           ;APP/I2C_.c: 33:  PIR1bits.SSPIF = 0;
  6475   0020BE  969E               	bcf	158,3,c	;volatile
  6476                           
  6477                           ;APP/I2C_.c: 34:  if(!SSPSTATbits.S)
  6478   0020C0  B6C7               	btfsc	199,3,c	;volatile
  6479   0020C2  EF65  F010         	goto	u1901
  6480   0020C6  EF67  F010         	goto	u1900
  6481   0020CA                     u1901:
  6482   0020CA  EF69  F010         	goto	l2726
  6483   0020CE                     u1900:
  6484   0020CE  EF6C  F010         	goto	l600
  6485   0020D2                     l2726:
  6486                           
  6487                           ;APP/I2C_.c: 36:  return (I2C_Write(slave_write_address));;	Return value of _I2C_Start i
      +                          s never used
  6488   0020D2  5002               	movf	I2C_Start@slave_write_address^0,w,c
  6489   0020D4  EC84  F010         	call	_I2C_Write
  6490   0020D8                     l600:
  6491   0020D8  0012               	return		;funcret
  6492   0020DA                     __end_of_I2C_Start:
  6493                           	callstack 0
  6494                           
  6495 ;; *************** function _I2C_Write *****************
  6496 ;; Defined at:
  6497 ;;		line 19 in file "APP/I2C_.c"
  6498 ;; Parameters:    Size  Location     Type
  6499 ;;  data            1    wreg     unsigned char 
  6500 ;; Auto vars:     Size  Location     Type
  6501 ;;  data            1    0[COMRAM] unsigned char 
  6502 ;; Return value:  Size  Location     Type
  6503 ;;                  1    wreg      unsigned char 
  6504 ;; Registers used:
  6505 ;;		wreg, cstack
  6506 ;; Tracked objects:
  6507 ;;		On entry : 0/0
  6508 ;;		On exit  : 0/0
  6509 ;;		Unchanged: 0/0
  6510 ;; Data sizes:     COMRAM   BANK0   BANK1   BANK2   BANK3   BANK4   BANK5
  6511 ;;      Params:         0       0       0       0       0       0       0
  6512 ;;      Locals:         1       0       0       0       0       0       0
  6513 ;;      Temps:          0       0       0       0       0       0       0
  6514 ;;      Totals:         1       0       0       0       0       0       0
  6515 ;;Total ram usage:        1 bytes
  6516 ;; Hardware stack levels used: 1
  6517 ;; Hardware stack levels required when called: 1
  6518 ;; This function calls:
  6519 ;;		_I2C_Ready
  6520 ;; This function is called by:
  6521 ;;		_lcd_cmd
  6522 ;;		_lcd_data
  6523 ;;		_I2C_Start
  6524 ;; This function uses a non-reentrant model
  6525 ;;
  6526                           
  6527                           	psect	text38
  6528   002108                     __ptext38:
  6529                           	callstack 0
  6530   002108                     _I2C_Write:
  6531                           	callstack 26
  6532                           
  6533                           ;incstack = 0
  6534                           ;I2C_Write@data stored from wreg
  6535   002108  6E01               	movwf	I2C_Write@data^0,c
  6536   00210A                     
  6537                           ;APP/I2C_.c: 19: char I2C_Write(unsigned char data);APP/I2C_.c: 20: {;APP/I2C_.c: 21:  S
      +                          SPBUF = data;
  6538   00210A  C001  FFC9         	movff	I2C_Write@data,4041	;volatile
  6539   00210E                     
  6540                           ;APP/I2C_.c: 22:  I2C_Ready();
  6541   00210E  EC6D  F010         	call	_I2C_Ready	;wreg free
  6542   002112                     
  6543                           ;APP/I2C_.c: 23:  if(SSPCON2bits.ACKSTAT)
  6544   002112  ACC5               	btfss	197,6,c	;volatile
  6545   002114  EF8E  F010         	goto	u1881
  6546   002118  EF90  F010         	goto	u1880
  6547   00211C                     u1881:
  6548   00211C  EF93  F010         	goto	l2718
  6549   002120                     u1880:
  6550   002120                     
  6551                           ;APP/I2C_.c: 24:  return 1;
  6552   002120  0E01               	movlw	1
  6553   002122  EF94  F010         	goto	l592
  6554   002126                     l2718:
  6555                           
  6556                           ;APP/I2C_.c: 26:  return 0;
  6557   002126  0E00               	movlw	0
  6558   002128                     l592:
  6559   002128  0012               	return		;funcret
  6560   00212A                     __end_of_I2C_Write:
  6561                           	callstack 0
  6562                           
  6563 ;; *************** function _I2C_Ready *****************
  6564 ;; Defined at:
  6565 ;;		line 13 in file "APP/I2C_.c"
  6566 ;; Parameters:    Size  Location     Type
  6567 ;;		None
  6568 ;; Auto vars:     Size  Location     Type
  6569 ;;		None
  6570 ;; Return value:  Size  Location     Type
  6571 ;;                  1    wreg      void 
  6572 ;; Registers used:
  6573 ;;		None
  6574 ;; Tracked objects:
  6575 ;;		On entry : 0/0
  6576 ;;		On exit  : 0/0
  6577 ;;		Unchanged: 0/0
  6578 ;; Data sizes:     COMRAM   BANK0   BANK1   BANK2   BANK3   BANK4   BANK5
  6579 ;;      Params:         0       0       0       0       0       0       0
  6580 ;;      Locals:         0       0       0       0       0       0       0
  6581 ;;      Temps:          0       0       0       0       0       0       0
  6582 ;;      Totals:         0       0       0       0       0       0       0
  6583 ;;Total ram usage:        0 bytes
  6584 ;; Hardware stack levels used: 1
  6585 ;; This function calls:
  6586 ;;		Nothing
  6587 ;; This function is called by:
  6588 ;;		_runApp
  6589 ;;		_I2C_Write
  6590 ;;		_I2C_Stop
  6591 ;; This function uses a non-reentrant model
  6592 ;;
  6593                           
  6594                           	psect	text39
  6595   0020DA                     __ptext39:
  6596                           	callstack 0
  6597   0020DA                     _I2C_Ready:
  6598                           	callstack 26
  6599   0020DA                     l582:
  6600   0020DA  B6A1               	btfsc	161,3,c	;volatile
  6601   0020DC  EF72  F010         	goto	u1851
  6602   0020E0  EF74  F010         	goto	u1850
  6603   0020E4                     u1851:
  6604   0020E4  EF6D  F010         	goto	l582
  6605   0020E8                     u1850:
  6606   0020E8                     l585:
  6607   0020E8  B0C7               	btfsc	199,0,c	;volatile
  6608   0020EA  EF79  F010         	goto	u1861
  6609   0020EE  EF7B  F010         	goto	u1860
  6610   0020F2                     u1861:
  6611   0020F2  EF74  F010         	goto	l585
  6612   0020F6                     u1860:
  6613   0020F6  B4C7               	btfsc	199,2,c	;volatile
  6614   0020F8  EF80  F010         	goto	u1871
  6615   0020FC  EF82  F010         	goto	u1870
  6616   002100                     u1871:
  6617   002100  EF74  F010         	goto	l585
  6618   002104                     u1870:
  6619   002104                     
  6620                           ;APP/I2C_.c: 17:  PIR1bits.SSPIF = 0;
  6621   002104  969E               	bcf	158,3,c	;volatile
  6622   002106  0012               	return		;funcret
  6623   002108                     __end_of_I2C_Ready:
  6624                           	callstack 0
  6625                           
  6626 ;; *************** function _I2C_Init *****************
  6627 ;; Defined at:
  6628 ;;		line 3 in file "APP/I2C_.c"
  6629 ;; Parameters:    Size  Location     Type
  6630 ;;		None
  6631 ;; Auto vars:     Size  Location     Type
  6632 ;;		None
  6633 ;; Return value:  Size  Location     Type
  6634 ;;                  1    wreg      void 
  6635 ;; Registers used:
  6636 ;;		wreg, status,2
  6637 ;; Tracked objects:
  6638 ;;		On entry : 0/0
  6639 ;;		On exit  : 0/0
  6640 ;;		Unchanged: 0/0
  6641 ;; Data sizes:     COMRAM   BANK0   BANK1   BANK2   BANK3   BANK4   BANK5
  6642 ;;      Params:         0       0       0       0       0       0       0
  6643 ;;      Locals:         0       0       0       0       0       0       0
  6644 ;;      Temps:          0       0       0       0       0       0       0
  6645 ;;      Totals:         0       0       0       0       0       0       0
  6646 ;;Total ram usage:        0 bytes
  6647 ;; Hardware stack levels used: 1
  6648 ;; This function calls:
  6649 ;;		Nothing
  6650 ;; This function is called by:
  6651 ;;		_runApp
  6652 ;; This function uses a non-reentrant model
  6653 ;;
  6654                           
  6655                           	psect	text40
  6656   0021A6                     __ptext40:
  6657                           	callstack 0
  6658   0021A6                     _I2C_Init:
  6659                           	callstack 29
  6660   0021A6                     
  6661                           ;APP/I2C_.c: 5:  SSPSTAT = 0x80;
  6662   0021A6  0E80               	movlw	128
  6663   0021A8  6EC7               	movwf	199,c	;volatile
  6664                           
  6665                           ;APP/I2C_.c: 6:  SSPCON1 = 0x28;
  6666   0021AA  0E28               	movlw	40
  6667   0021AC  6EC6               	movwf	198,c	;volatile
  6668                           
  6669                           ;APP/I2C_.c: 8:  SSPCON2 = 0x00;
  6670   0021AE  0E00               	movlw	0
  6671   0021B0  6EC5               	movwf	197,c	;volatile
  6672                           
  6673                           ;APP/I2C_.c: 9:  SSPADD = 49;
  6674   0021B2  0E31               	movlw	49
  6675   0021B4  6EC8               	movwf	200,c	;volatile
  6676   0021B6                     
  6677                           ;APP/I2C_.c: 10:  PIR1bits.SSPIF = 0;
  6678   0021B6  969E               	bcf	158,3,c	;volatile
  6679   0021B8  0012               	return		;funcret
  6680   0021BA                     __end_of_I2C_Init:
  6681                           	callstack 0
  6682                           
  6683 ;; *************** function _initBIOS *****************
  6684 ;; Defined at:
  6685 ;;		line 4 in file "BIOS/bios.c"
  6686 ;; Parameters:    Size  Location     Type
  6687 ;;		None
  6688 ;; Auto vars:     Size  Location     Type
  6689 ;;		None
  6690 ;; Return value:  Size  Location     Type
  6691 ;;                  1    wreg      void 
  6692 ;; Registers used:
  6693 ;;		wreg, status,2, cstack
  6694 ;; Tracked objects:
  6695 ;;		On entry : 0/0
  6696 ;;		On exit  : 0/0
  6697 ;;		Unchanged: 0/0
  6698 ;; Data sizes:     COMRAM   BANK0   BANK1   BANK2   BANK3   BANK4   BANK5
  6699 ;;      Params:         0       0       0       0       0       0       0
  6700 ;;      Locals:         0       0       0       0       0       0       0
  6701 ;;      Temps:          0       0       0       0       0       0       0
  6702 ;;      Totals:         0       0       0       0       0       0       0
  6703 ;;Total ram usage:        0 bytes
  6704 ;; Hardware stack levels used: 1
  6705 ;; Hardware stack levels required when called: 1
  6706 ;; This function calls:
  6707 ;;		_initPinmap
  6708 ;; This function is called by:
  6709 ;;		_main
  6710 ;; This function uses a non-reentrant model
  6711 ;;
  6712                           
  6713                           	psect	text41
  6714   0021F2                     __ptext41:
  6715                           	callstack 0
  6716   0021F2                     _initBIOS:
  6717                           	callstack 29
  6718   0021F2                     
  6719                           ;BIOS/bios.c: 6:     initPinmap();
  6720   0021F2  ECDD  F010         	call	_initPinmap	;wreg free
  6721   0021F6  0012               	return		;funcret
  6722   0021F8                     __end_of_initBIOS:
  6723                           	callstack 0
  6724                           
  6725 ;; *************** function _initPinmap *****************
  6726 ;; Defined at:
  6727 ;;		line 10 in file "BIOS/pinmap.c"
  6728 ;; Parameters:    Size  Location     Type
  6729 ;;		None
  6730 ;; Auto vars:     Size  Location     Type
  6731 ;;		None
  6732 ;; Return value:  Size  Location     Type
  6733 ;;                  1    wreg      void 
  6734 ;; Registers used:
  6735 ;;		wreg, status,2
  6736 ;; Tracked objects:
  6737 ;;		On entry : 0/0
  6738 ;;		On exit  : 0/0
  6739 ;;		Unchanged: 0/0
  6740 ;; Data sizes:     COMRAM   BANK0   BANK1   BANK2   BANK3   BANK4   BANK5
  6741 ;;      Params:         0       0       0       0       0       0       0
  6742 ;;      Locals:         0       0       0       0       0       0       0
  6743 ;;      Temps:          0       0       0       0       0       0       0
  6744 ;;      Totals:         0       0       0       0       0       0       0
  6745 ;;Total ram usage:        0 bytes
  6746 ;; Hardware stack levels used: 1
  6747 ;; This function calls:
  6748 ;;		Nothing
  6749 ;; This function is called by:
  6750 ;;		_initBIOS
  6751 ;; This function uses a non-reentrant model
  6752 ;;
  6753                           
  6754                           	psect	text42
  6755   0021BA                     __ptext42:
  6756                           	callstack 0
  6757   0021BA                     _initPinmap:
  6758                           	callstack 29
  6759   0021BA                     
  6760                           ;BIOS/pinmap.c: 12:     ADCON1 = 0x0F;
  6761   0021BA  0E0F               	movlw	15
  6762   0021BC  6EC1               	movwf	193,c	;volatile
  6763                           
  6764                           ;BIOS/pinmap.c: 14:     TRISD = 0x00;
  6765   0021BE  0E00               	movlw	0
  6766   0021C0  6E95               	movwf	149,c	;volatile
  6767                           
  6768                           ;BIOS/pinmap.c: 15:     TRISB = 0xF0;
  6769   0021C2  0EF0               	movlw	240
  6770   0021C4  6E93               	movwf	147,c	;volatile
  6771                           
  6772                           ;BIOS/pinmap.c: 16:     TRISA = 0xFE;
  6773   0021C6  0EFE               	movlw	254
  6774   0021C8  6E92               	movwf	146,c	;volatile
  6775   0021CA                     
  6776                           ;BIOS/pinmap.c: 19:     INTCON2bits.RBPU = 0;
  6777   0021CA  9EF1               	bcf	241,7,c	;volatile
  6778   0021CC  0012               	return		;funcret
  6779   0021CE                     __end_of_initPinmap:
  6780                           	callstack 0
  6781                           
  6782                           	psect	rparam
  6783   000000                     tosu	equ	0xFFF
  6784                           tosh	equ	0xFFE
  6785                           tosl	equ	0xFFD
  6786                           stkptr	equ	0xFFC
  6787                           pclatu	equ	0xFFB
  6788                           pclath	equ	0xFFA
  6789                           pcl	equ	0xFF9
  6790                           tblptru	equ	0xFF8
  6791                           tblptrh	equ	0xFF7
  6792                           tblptrl	equ	0xFF6
  6793                           tablat	equ	0xFF5
  6794                           prodh	equ	0xFF4
  6795                           prodl	equ	0xFF3
  6796                           indf0	equ	0xFEF
  6797                           postinc0	equ	0xFEE
  6798                           postdec0	equ	0xFED
  6799                           preinc0	equ	0xFEC
  6800                           plusw0	equ	0xFEB
  6801                           fsr0h	equ	0xFEA
  6802                           fsr0l	equ	0xFE9
  6803                           wreg	equ	0xFE8
  6804                           indf1	equ	0xFE7
  6805                           postinc1	equ	0xFE6
  6806                           postdec1	equ	0xFE5
  6807                           preinc1	equ	0xFE4
  6808                           plusw1	equ	0xFE3
  6809                           fsr1h	equ	0xFE2
  6810                           fsr1l	equ	0xFE1
  6811                           bsr	equ	0xFE0
  6812                           indf2	equ	0xFDF
  6813                           postinc2	equ	0xFDE
  6814                           postdec2	equ	0xFDD
  6815                           preinc2	equ	0xFDC
  6816                           plusw2	equ	0xFDB
  6817                           fsr2h	equ	0xFDA
  6818                           fsr2l	equ	0xFD9
  6819                           status	equ	0xFD8

Data Sizes:
    Strings     9
    Constant    0
    Data        217
    BSS         52
    Persistent  0
    Stack       0

Auto Spaces:
    Space          Size  Autos    Used
    COMRAM           95     39      92
    BANK0           160      0     152
    BANK1           256      0      64
    BANK2           256      0       0
    BANK3           256      0       0
    BANK4           256      0       0
    BANK5           256      0       0

Pointer List with Targets:

    admin_validation@adminP	PTR const unsigned char  size(1) Largest target is 4
		 -> admin_password(COMRAM[4]), 

    admin_validation@p	PTR unsigned char  size(2) Largest target is 5
		 -> type_passcode(COMRAM[5]), NULL(NULL[0]), 

    compare@p	PTR unsigned char  size(2) Largest target is 5
		 -> type_passcode(COMRAM[5]), NULL(NULL[0]), 

    f$.$buffer	PTR unsigned char  size(2) Largest target is 0

    f$.$source	PTR const unsigned char  size(2) Largest target is 0

    fputc@fp	PTR struct _IO_FILE size(1) Largest target is 12
		 -> sprintf@f(COMRAM[12]), 

    fputc@fp$.$buffer	PTR unsigned char  size(2) Largest target is 0

    fputc@fp$.$source	PTR const unsigned char  size(2) Largest target is 0

    S1408$buffer	PTR unsigned char  size(2) Largest target is 0

    S1408$source	PTR const unsigned char  size(2) Largest target is 0

    sp__admin_validation	PTR unsigned char  size(2) Largest target is 5
		 -> type_passcode(COMRAM[5]), NULL(NULL[0]), 

    sp__strchr	PTR unsigned char  size(2) Largest target is 5
		 -> type_passcode(COMRAM[5]), NULL(NULL[0]), 

    sp__strstr	PTR unsigned char  size(2) Largest target is 5
		 -> type_passcode(COMRAM[5]), NULL(NULL[0]), 

    sp__user_validation	PTR unsigned char  size(2) Largest target is 5
		 -> type_passcode(COMRAM[5]), NULL(NULL[0]), 

    sprintf@ap	PTR void [1] size(1) Largest target is 2
		 -> ?_sprintf(COMRAM[2]), 

    sprintf@fmt	PTR const unsigned char  size(1) Largest target is 9
		 -> STR_1(CODE[9]), STR_2(CODE[9]), STR_3(CODE[9]), STR_4(CODE[9]), 

    sprintf@s	PTR unsigned char  size(1) Largest target is 4
		 -> admin_password(COMRAM[4]), old_user_password(COMRAM[4]), 

    strchr@s	PTR const unsigned char  size(2) Largest target is 5
		 -> type_passcode(COMRAM[5]), NULL(NULL[0]), 

    strlen@a	PTR const unsigned char  size(1) Largest target is 4
		 -> admin_password(COMRAM[4]), old_user_password(COMRAM[4]), 

    strlen@s	PTR const unsigned char  size(1) Largest target is 4
		 -> admin_password(COMRAM[4]), old_user_password(COMRAM[4]), 

    strncmp@l	PTR const unsigned char  size(2) Largest target is 5
		 -> type_passcode(COMRAM[5]), NULL(NULL[0]), 

    strncmp@r	PTR const unsigned char  size(1) Largest target is 4
		 -> admin_password(COMRAM[4]), old_user_password(COMRAM[4]), 

    strstr@h	PTR const unsigned char  size(2) Largest target is 5
		 -> type_passcode(COMRAM[5]), NULL(NULL[0]), 

    strstr@n	PTR const unsigned char  size(1) Largest target is 4
		 -> admin_password(COMRAM[4]), old_user_password(COMRAM[4]), 

    user_validation@q	PTR unsigned char  size(2) Largest target is 5
		 -> type_passcode(COMRAM[5]), NULL(NULL[0]), 

    vfpfcnvrt@ap	PTR PTR void  size(1) Largest target is 1
		 -> sprintf@ap(COMRAM[1]), 

    vfpfcnvrt@fmt	PTR PTR unsigned char  size(1) Largest target is 1
		 -> vfprintf@cfmt(COMRAM[1]), 

    vfpfcnvrt@fp	PTR struct _IO_FILE size(1) Largest target is 12
		 -> sprintf@f(COMRAM[12]), 

    vfprintf@ap	PTR PTR void  size(1) Largest target is 1
		 -> sprintf@ap(COMRAM[1]), 

    vfprintf@cfmt	PTR unsigned char  size(1) Largest target is 9
		 -> STR_1(CODE[9]), STR_2(CODE[9]), STR_3(CODE[9]), STR_4(CODE[9]), 

    vfprintf@fmt	PTR const unsigned char  size(1) Largest target is 9
		 -> STR_1(CODE[9]), STR_2(CODE[9]), STR_3(CODE[9]), STR_4(CODE[9]), 

    vfprintf@fp	PTR struct _IO_FILE size(1) Largest target is 12
		 -> sprintf@f(COMRAM[12]), 


Critical Paths under _main in COMRAM

    _runApp->_sprintf
    _user_validation->_strstr
    _unlock_door->_compare
    _sprintf->_vfprintf
    _vfprintf->_vfpfcnvrt
    _vfpfcnvrt->_fputc
    _set_user_password->_lcd_cmd
    _set_user_password->_lcd_data
    _col8->_lcd_data
    _col7->_lcd_data
    _col6->_lcd_data
    _col5->_lcd_data
    _lock_door->_compare
    _compare->_strstr
    _lcd_reset->_lcd_cmd
    _admin_validation->_strstr
    _strstr->_strncmp
    _lcd_cmd->_delay1
    _col4->_lcd_data
    _col3->_lcd_data
    _col2->_lcd_data
    _col1->_lcd_data
    _lcd_data->_delay1
    _I2C_Start->_I2C_Write

Critical Paths under _main in BANK0

    None.

Critical Paths under _main in BANK1

    None.

Critical Paths under _main in BANK2

    None.

Critical Paths under _main in BANK3

    None.

Critical Paths under _main in BANK4

    None.

Critical Paths under _main in BANK5

    None.

Call Graph Tables:

 ---------------------------------------------------------------------------------
 (Depth) Function   	        Calls       Base Space   Used Autos Params    Refs
 ---------------------------------------------------------------------------------
 (0) _main                                                 0     0      0   29232
                           _initBIOS
                             _runApp
 ---------------------------------------------------------------------------------
 (1) _runApp                                               0     0      0   29232
                           _I2C_Init
                          _I2C_Ready
                   _admin_validation
                               _col1
                               _col2
                               _col3
                              _delay
                             _delay2
                            _lcd_cmd
                           _lcd_data
                          _lcd_reset
                          _lock_door
                   _read_from_eeprom
                  _set_user_password
                            _sprintf
                        _unlock_door
                    _user_validation
                    _write_to_eeprom
 ---------------------------------------------------------------------------------
 (2) _user_validation                                      7     5      2    3266
                                             13 COMRAM     4     2      2
                               _col1
                               _col2
                               _col3
                               _col4
                            _lcd_cmd
                           _lcd_data
                             _strstr
 ---------------------------------------------------------------------------------
 (2) _unlock_door                                          0     0      0    6970
                               _col1
                               _col2
                               _col3
                               _col4
                            _compare
                              _delay
                            _lcd_cmd
                           _lcd_data
                          _lcd_reset
 ---------------------------------------------------------------------------------
 (2) _sprintf                                             25    15     10    2410
                                             16 COMRAM    23    13     10
                           _vfprintf
 ---------------------------------------------------------------------------------
 (3) _vfprintf                                             4     1      3    1603
                                             12 COMRAM     4     1      3
                          _vfpfcnvrt
 ---------------------------------------------------------------------------------
 (4) _vfpfcnvrt                                            8     5      3    1253
                                              8 COMRAM     4     1      3
                              _fputc
 ---------------------------------------------------------------------------------
 (5) _fputc                                                8     5      3     782
                                              0 COMRAM     8     5      3
                              _putch
 ---------------------------------------------------------------------------------
 (6) _putch                                                1     1      0       0
 ---------------------------------------------------------------------------------
 (2) _set_user_password                                    0     0      0    2404
                               _col5
                               _col6
                               _col7
                               _col8
                            _lcd_cmd
                           _lcd_data
                    _write_to_eeprom
 ---------------------------------------------------------------------------------
 (2) _write_to_eeprom                                      2     1      1     652
                                              0 COMRAM     2     1      1
 ---------------------------------------------------------------------------------
 (3) _col8                                                 0     0      0     292
                           _lcd_data
 ---------------------------------------------------------------------------------
 (3) _col7                                                 0     0      0     292
                           _lcd_data
 ---------------------------------------------------------------------------------
 (3) _col6                                                 0     0      0     292
                           _lcd_data
 ---------------------------------------------------------------------------------
 (3) _col5                                                 0     0      0     292
                           _lcd_data
 ---------------------------------------------------------------------------------
 (2) _read_from_eeprom                                     1     1      0      22
                                              0 COMRAM     1     1      0
 ---------------------------------------------------------------------------------
 (2) _lock_door                                            0     0      0    6970
                               _col1
                               _col2
                               _col3
                               _col4
                            _compare
                              _delay
                            _lcd_cmd
                           _lcd_data
                          _lcd_reset
 ---------------------------------------------------------------------------------
 (3) _compare                                             10    10      0    3770
                                             13 COMRAM     7     7      0
                              _delay
                            _lcd_cmd
                           _lcd_data
                          _lcd_reset
                      _motor_forward
                          _motor_off
                      _motor_reverse
                             _strstr
 ---------------------------------------------------------------------------------
 (4) _motor_reverse                                        0     0      0       0
 ---------------------------------------------------------------------------------
 (4) _motor_off                                            0     0      0       0
 ---------------------------------------------------------------------------------
 (4) _motor_forward                                        0     0      0       0
 ---------------------------------------------------------------------------------
 (3) _lcd_reset                                            0     0      0     292
                            _lcd_cmd
 ---------------------------------------------------------------------------------
 (3) _delay                                                7     5      2    1156
                                              0 COMRAM     7     5      2
 ---------------------------------------------------------------------------------
 (2) _delay2                                               6     4      2     266
                                              0 COMRAM     6     4      2
 ---------------------------------------------------------------------------------
 (2) _admin_validation                                     7     5      2    3364
                                             13 COMRAM     4     2      2
                               _col1
                               _col2
                               _col3
                               _col4
                            _lcd_cmd
                           _lcd_data
                             _strstr
 ---------------------------------------------------------------------------------
 (3) _strstr                                               6     3      3    1491
                                              7 COMRAM     6     3      3
                             _strchr
                             _strlen
                            _strncmp
 ---------------------------------------------------------------------------------
 (4) _strncmp                                              7     2      5     407
                                              0 COMRAM     7     2      5
 ---------------------------------------------------------------------------------
 (4) _strlen                                               3     1      2     166
                                              0 COMRAM     3     1      2
 ---------------------------------------------------------------------------------
 (4) _strchr                                               5     1      4     240
                                              0 COMRAM     5     1      4
 ---------------------------------------------------------------------------------
 (3) _lcd_cmd                                              3     3      0     292
                                              4 COMRAM     3     3      0
                          _I2C_Start
                           _I2C_Stop
                          _I2C_Write
                             _delay1
 ---------------------------------------------------------------------------------
 (3) _col4                                                 0     0      0     292
                           _lcd_data
 ---------------------------------------------------------------------------------
 (3) _col3                                                 0     0      0     292
                           _lcd_data
 ---------------------------------------------------------------------------------
 (3) _col2                                                 0     0      0     292
                           _lcd_data
 ---------------------------------------------------------------------------------
 (3) _col1                                                 0     0      0     292
                           _lcd_data
 ---------------------------------------------------------------------------------
 (3) _lcd_data                                             3     3      0     292
                                              4 COMRAM     3     3      0
                          _I2C_Start
                           _I2C_Stop
                          _I2C_Write
                             _delay1
 ---------------------------------------------------------------------------------
 (4) _delay1                                               4     4      0      92
                                              0 COMRAM     4     4      0
 ---------------------------------------------------------------------------------
 (4) _I2C_Stop                                             0     0      0       0
                          _I2C_Ready
 ---------------------------------------------------------------------------------
 (4) _I2C_Start                                            1     1      0      44
                                              1 COMRAM     1     1      0
                          _I2C_Write
 ---------------------------------------------------------------------------------
 (4) _I2C_Write                                            1     1      0      22
                                              0 COMRAM     1     1      0
                          _I2C_Ready
 ---------------------------------------------------------------------------------
 (5) _I2C_Ready                                            0     0      0       0
 ---------------------------------------------------------------------------------
 (2) _I2C_Init                                             0     0      0       0
 ---------------------------------------------------------------------------------
 (1) _initBIOS                                             0     0      0       0
                         _initPinmap
 ---------------------------------------------------------------------------------
 (2) _initPinmap                                           0     0      0       0
 ---------------------------------------------------------------------------------
 Estimated maximum stack depth 6
 ---------------------------------------------------------------------------------

 Call Graph Graphs:

 _main (ROOT)
   _initBIOS
     _initPinmap
   _runApp
     _I2C_Init
     _I2C_Ready
     _admin_validation
       _col1
         _lcd_data
           _I2C_Start
             _I2C_Write
               _I2C_Ready
           _I2C_Stop
             _I2C_Ready
           _I2C_Write
           _delay1
       _col2
         _lcd_data
       _col3
         _lcd_data
       _col4
         _lcd_data
       _lcd_cmd
         _I2C_Start
         _I2C_Stop
         _I2C_Write
         _delay1
       _lcd_data
       _strstr
         _strchr
         _strlen
         _strncmp
     _col1
     _col2
     _col3
     _delay
     _delay2
     _lcd_cmd
     _lcd_data
     _lcd_reset
       _lcd_cmd
     _lock_door
       _col1
       _col2
       _col3
       _col4
       _compare
         _delay
         _lcd_cmd
         _lcd_data
         _lcd_reset
         _motor_forward
         _motor_off
         _motor_reverse
         _strstr
       _delay
       _lcd_cmd
       _lcd_data
       _lcd_reset
     _read_from_eeprom
     _set_user_password
       _col5
         _lcd_data
       _col6
         _lcd_data
       _col7
         _lcd_data
       _col8
         _lcd_data
       _lcd_cmd
       _lcd_data
       _write_to_eeprom
     _sprintf
       _vfprintf
         _vfpfcnvrt
           _fputc
             _putch
     _unlock_door
       _col1
       _col2
       _col3
       _col4
       _compare
       _delay
       _lcd_cmd
       _lcd_data
       _lcd_reset
     _user_validation
       _col1
       _col2
       _col3
       _col4
       _lcd_cmd
       _lcd_data
       _strstr
     _write_to_eeprom

 Address spaces:
Name               Size   Autos  Total    Cost      Usage
BIGRAM             5FF      0       0      28        0.0%
BITBIGSFRl         280      0       0      26        0.0%
EEDATA             100      0       0       0        0.0%
BITBANK5           100      0       0      14        0.0%
BANK5              100      0       0      15        0.0%
BITBANK4           100      0       0      12        0.0%
BANK4              100      0       0      13        0.0%
BITBANK3           100      0       0      10        0.0%
BANK3              100      0       0      11        0.0%
BITBANK2           100      0       0       8        0.0%
BANK2              100      0       0       9        0.0%
BITBANK1           100      0       0       6        0.0%
BANK1              100      0      40       7       25.0%
BITBANK0            A0      0       0       4        0.0%
BANK0               A0      0      98       5       95.0%
BITCOMRAM           5F      0       0       0        0.0%
COMRAM              5F     27      5C       1       96.8%
BITBIGSFRhhhhhl     27      0       0      17        0.0%
BITBIGSFRhhhhll     17      0       0      19        0.0%
BITBIGSFRhhhhhh      E      0       0      16        0.0%
BITBIGSFRhhllll      E      0       0      24        0.0%
BITBIGSFRhhllh       8      0       0      22        0.0%
BITBIGSFRhhlhh       4      0       0      20        0.0%
BITBIGSFRhhhhlh      3      0       0      18        0.0%
BITBIGSFRhhlhl       2      0       0      21        0.0%
BITBIGSFRhhlllh      1      0       0      23        0.0%
BITBIGSFRhl          1      0       0      25        0.0%
BIGSFR               0      0       0     200        0.0%
BITSFR_3             0      0       0     200        0.0%
SFR_3                0      0       0     200        0.0%
BITSFR_2             0      0       0     200        0.0%
SFR_2                0      0       0     200        0.0%
BITSFR_1             0      0       0     200        0.0%
SFR_1                0      0       0     200        0.0%
BITSFR               0      0       0     200        0.0%
SFR                  0      0       0     200        0.0%
STACK                0      0       0       2        0.0%
NULL                 0      0       0       0        0.0%
ABS                  0      0     134      27        0.0%
DATA                 0      0     134       3        0.0%
CODE                 0      0       0       0        0.0%


Microchip Technology PIC18 Macro Assembler V2.46 build 20240104201356 
Symbol Table                                                                                   Mon Jun 24 12:52:49 2024

     __end_of_user_validation 1000                   lcd_cmd@data 0005               ??_motor_forward 0001  
                           _c 0053                             _i 004F                  lcd_data@data 0005  
               lcd_cmd@data_l 0006                 lcd_cmd@data_u 0007                   _SSPSTATbits 0FC7  
             ??_motor_reverse 0001                            _s2 00AB                            _s3 00BA  
                          _ch 0054                           l121 0792                           l203 11B8  
                         l123 079A                           l220 12C4                           l214 1284  
                         l231 0E32                           l127 07D2                           l216 128C  
                         l208 121E                           l225 132A                           l233 0E3A  
                         l402 1972                           l242 0EEA                           l163 1064  
                         l180 0F50                           l341 1526                           l165 106C  
                         l421 18A0                           l413 183C                           l237 0E72  
                         l406 19A4                           l174 1112                           l182 0F58  
                         l511 218A                           l191 0FFE                           l600 20D8  
                         l352 15AC                           l360 1450                           l440 17CE  
                         l432 176A                           l345 1558                           l337 14F0  
                         l409 19C6                           l169 10A4                           l425 18D2  
                         l417 186E                           l514 1F8C                           l186 0F90  
                         l603 2192                           l371 14D6                           l283 0DCC  
                         l451 1698                           l524 1EB4                           l364 1482  
                         l356 141A                           l532 1E62                           l428 18F4  
                         l444 1800                           l436 179C                           l605 21A0  
                         l517 1FD0                           l349 158A                           l197 1178  
                         l390 1400                           l614 1E0A                           l470 15C6  
                         l607 21A4                           l383 13AC                           l375 1344  
                         l543 2012                           l447 1822                           l463 172E  
                         l455 16CA                           l199 1180                           l632 21CC  
                         l368 14B4                           l552 1F04                           l394 190E  
                         l546 2038                           l466 1750                           l482 165C  
                         l474 15F8                           l619 21F6                           l387 13DE  
                         l379 137A                           l459 16FC                           l555 1F38  
                         l492 21F0                           l548 2046                           l549 2048  
                         l485 167E                           l557 1F46                           l582 20DA  
                         l398 1940                           l478 162A                           l558 1F48  
                         l495 21E0                           l592 2128                           l585 20E8  
                         l498 21E8                           l579 21B8                           l587 2104  
                         l683 21D6                           l588 2106                           l596 20B0  
                         l598 20BE                lcd_data@data_l 0006                lcd_data@data_u 0007  
                         wreg 0FE8                   _unlock_door 1114                          l3000 1440  
                        l3010 1470                          l3002 1442                          l3020 1496  
                        l3012 1472                          l3100 194E                          l3030 14C2  
                        l3022 14A2                          l3014 1474                          l3006 145E  
                        l3102 1954                          l3032 14C8                          l3024 14A4  
                        l3008 1464                          l3040 1352                          l3120 1996  
                        l3112 1980                          l3104 1960                          l1440 1F00  
                        l1432 1B36                          l3200 0C78                          l1408 1C96  
                        l3034 14D4                          l3026 14A6                          l3018 1490  
                        l3050 136C                          l3042 1358                          l3114 1986  
                        l3106 1962                          l3210 0C9E                          l3202 0C7C  
                        l3130 0AEA                          l1451 1BEC                          l1419 21F8  
                        l3060 139C                          l3044 1364                          l3036 132C  
                        l3124 19B2                          l3116 1992                          l3108 1964  
                        l3220 0CEC                          l3212 0CB6                          l3204 0C80  
                        l3140 0B36                          l3132 0B00                          l3300 18E0  
                        l1364 207C                          l3070 13CC                          l3062 139E  
                        l3054 1388                          l3046 1368                          l3126 19B8  
                        l3118 1994                          l1438 1EB6                          l3230 0D28  
                        l3222 0CFA                          l3214 0CC8                          l3206 0C8C  
                        l3150 0B70                          l3142 0B42                          l3134 0B12  
                        l3302 18E6                          l3310 1778                          l1390 1A80  
                        l1447 20AA                          l3080 13F2                          l3072 13CE  
                        l3056 138E                          l3048 136A                          l3128 19C4  
                        l3232 0D36                          l3224 0CFE                          l3216 0CDC  
                        l3208 0C9A                          l3160 0BA4                          l3152 0B7C  
                        l3144 0B50                          l3136 0B1E                          l3304 18F2  
                        l3312 177E                          l3082 13FE                          l3074 13D0  
                        l3066 13BA                          l3058 139A                          l3090 1922  
                        l3250 0D90                          l3242 0D5A                          l3234 0D3A  
                        l3226 0D16                          l3218 0CE0                          l3170 0BE0  
                        l3162 0BA8                          l3146 0B54                          l3138 0B30  
                        l3154 0B84                          l3330 17C0                          l3322 17AA  
                        l3314 178A                          l3306 1752                          l3410 15EA  
                        l3402 15D4                          l3068 13C0                          l3092 192E  
                        l3084 18F6                          l3252 0D94                          l3236 0D52  
                        l3228 0D1C                          l3172 0BEC                          l3164 0BAC  
                        l3156 0B8A                          l3148 0B58                          l3260 1824  
                        l3340 17F0                          l3324 17B0                          l3316 178C  
                        l3420 161A                          l3404 15DA                          l1396 200E  
                        l2702 20DA                          l2710 2112                          l3078 13EC  
                        l3094 1930                          l3510 1036                          l3502 1000  
                        l3254 0DAA                          l3190 0C3E                          l3174 0BFA  
                        l3166 0BC8                          l3158 0B96                          l3270 185E  
                        l3350 1820                          l3342 17F2                          l3334 17DC  
                        l3326 17BC                          l3318 178E                          l3430 164A  
                        l3422 161C                          l3414 1606                          l3406 15E6  
                        l2704 20F6                          l2712 2120                          l3096 1932  
                        l3088 191C                          l2800 1B52                          l3520 1088  
                        l3512 103C                          l3504 100C                          l3256 0DAE  
                        l3248 0D62                          l3192 0C42                          l3176 0BFE  
                        l3168 0BDA                          l3184 0C1E                          l3280 188E  
                        l3272 1860                          l3264 184A                          l3336 17E2  
                        l3328 17BE                          l3360 16B8                          l3352 1680  
                        l3440 1670                          l3432 164C                          l3416 160C  
                        l3408 15E8                          l3600 0DEC                          l2706 210A  
                        l2722 20AE                          l2730 1E64                          l2810 1B98  
                        l3530 10C8                          l3522 1096                          l3514 1044  
                        l3506 101A                          l3258 0DC4                          l3194 0C46  
                        l3186 0C24                          l3178 0C02                          l3290 18B4  
                        l3282 1890                          l3266 1850                          l3346 180E  
                        l3338 17EE                          l3370 16DE                          l3362 16BA  
                        l3442 167C                          l3434 164E                          l3426 1638  
                        l3418 1618                          l3610 0E48                          l3602 0E04  
                        l3450 2006                          l2484 21BA                          l2708 210E  
                        l2820 1ED0                          l2812 1BAA                          l2804 1B5E  
                        l3532 10D6                          l3524 10B2                          l3508 101E  
                        l3460 1DBA                          l3188 0C30                          l3700 12A8  
                        l3292 18C0                          l3284 1892                          l3276 187C  
                        l3268 185C                          l3348 1814                          l3380 170A  
                        l3372 16EA                          l3364 16BC                          l3356 16A6  
                        l3428 163E                          l3620 0E92                          l3612 0E56  
                        l3604 0E0A                          l2900 1A02                          l3444 1FD2  
                        l2486 21CA                          l3454 21A6                          l2718 2126  
                        l2726 20D2                          l2750 218C                          l2742 1E74  
                        l2814 1BCA                          l2806 1B6A                          l3534 10DA  
                        l3526 10B6                          l3518 107A                          l3542 10F4  
                        l3470 1DE2                          l2830 216C                          l3198 0C62  
                        l3710 12E8                          l3702 12B6                          l3294 18C2  
                        l3278 1882                          l3382 1710                          l3374 16EC  
                        l3358 16AC                          l3438 166A                          l3630 0EBA  
                        l3622 0E96                          l3614 0E64                          l3606 0E12  
                        l2902 1A24                          l2910 1A52                          l3446 1FDA  
                        l3550 0EF8                          l3456 21B6                          l2752 2190  
                        l2744 1E78                          l2736 1E6C                          l2760 1F60  
                        l2824 1EDC                          l2808 1B82                          l3544 110A  
                        l3536 10E8                          l3528 10C4                          l3472 1DE6  
                        l3464 1DDA                          l2840 1E20                          l2832 1E0C  
                        l3712 12F6                          l3704 12D2                          l3480 2020  
                        l3296 18C4                          l3288 18AE                          l3392 173C  
                        l3384 171C                          l3376 16EE                          l3368 16D8  
                        l2920 1F04                          l3624 0EA4                          l3616 0E80  
                        l2904 1A2C                          l3448 1FEA                          l3640 112E  
                        l3560 0F30                          l3552 0F06                          l3800 07B6  
                        l2746 1E94                          l2850 1F9E                          l2770 1F80  
                        l2762 1F68                          l2826 1EF8                          l2818 1EB6  
                        l3538 10EC                          l3474 1E02                          l3458 1DB2  
                        l2842 1E24                          l3714 12FA                          l3706 12D6  
                        l3722 1314                          l3482 202E                          l3394 1742  
                        l3386 171E                          l2930 1F2A                          l2922 1F12  
                        l3626 0EA8                          l3618 0E84                          l3634 0EC2  
                        l2906 1A40                          l2914 1A5E                          l3490 204A  
                        l3642 1132                          l3570 0F9E                          l3554 0F0A  
                        l3810 07F6                          l3802 07C4                          l3730 0610  
                        l2748 1E98                          l2860 1FC0                          l2852 1FA4  
                        l2940 14D8                          l2772 1F88                          l2764 1F6C  
                        l2756 1F4C                          l2844 1E42                          l3724 131A  
                        l3716 1308                          l3708 12E4                          l3484 2032  
                        l3396 174E                          l3388 1720                          l2932 1F2C  
                        l2924 1F20                          l3628 0EB6                          l2780 1C18  
                        l3492 2052                          l3660 11CA                          l3652 118E  
                        l3644 114A                          l3636 1114                          l3580 0FC6  
                        l3572 0FA2                          l3564 0F66                          l3556 0F22  
                        l3548 0EEC                          l3900 0A24                          l3820 0814  
                        l3812 0804                          l3804 07E0                          l3740 063C  
                        l3732 061C                          l2694 21F2                          l2862 1FC4  
                        l2854 1FAC                          l2950 1514                          l2766 1F74  
                        l2758 1F5A                          l2790 2086                          l2870 1AA6  
                        l2846 1E46                          l2838 1E14                          l3726 1326  
                        l3718 130C                          l3486 2034                          l3478 2012  
                        l3398 15AE                          l2934 1F2E                          l2926 1F24  
                        l2782 1C34                          l2774 1BEE                          l3494 205A  
                        l3670 11FC                          l3662 11D8                          l3654 119C  
                        l3646 1150                          l3638 1120                          l3590 0FF6  
                        l3582 0FD4                          l3574 0FB0                          l3566 0F74  
                        l3558 0F28                          l3910 0A68                          l3902 0A2C  
                        l3830 0890                          l3822 0838                          l3814 0808  
                        l3806 07E4                          l3750 066C                          l3742 0646  
                        l3734 0620                          l2864 1FCC                          l2856 1FB0  
                        l2848 1F90                          l2960 153A                          l2952 1516  
                        l2944 14FE                          l2768 1F7C                          l2792 2088  
                        l2880 1B16                          l2872 1AD0                          l3488 2036  
                        l2936 1F32                          l2928 1F28                          l2784 1C66  
                        l2776 1BFE                          l3496 2062                          l3680 121A  
                        l3672 1200                          l3664 11DC                          l3656 11AA  
                        l3648 1158                          l3584 0FD8                          l3576 0FB4  
                        l3568 0F82                          l3920 0A88                          l3912 0A6C  
                        l3904 0A34                          l3840 08D2                          l3832 0894  
                        l3824 0852                          l3808 07F2                          l3760 0694  
                        l3752 0674                          l3744 0650                          l3736 062C  
                        l3728 060C                          l2858 1FB8                          l2970 1566  
                        l2962 1546                          l2954 1518                          l2946 1504  
                        l2794 209E                          l2882 1B2E                          l2866 1A82  
                        l2890 21DA                          l3690 1256                          l3682 1220  
                        l2938 1F36                          l3594 0DCE                          l2778 1C0E  
                        l3498 2072                          l3666 11EA                          l3658 11C6  
                        l3578 0FC2                          l3922 0A90                          l3914 0A74  
                        l3906 0A3C                          l3850 08FE                          l3842 08E2  
                        l3834 08A0                          l3826 0856                          l3818 0810  
                        l3770 06CA                          l3762 069C                          l3754 067C  
                        l3746 065A                          l3738 0630                          l2972 156C  
                        l2964 1548                          l2948 1510                          l2788 207E  
                        l2876 1ADC                          l2868 1A92                          l3692 125C  
                        l3684 122C                          l3596 0DDA                          l2892 19C8  
                        l3668 11EE                          l3676 1208                          l3588 0FE0  
                        l3924 0A98                          l3916 0A78                          l3908 0A44  
                        l3860 0928                          l3852 0906                          l3844 08E6  
                        l3836 08B2                          l3828 087A                          l3932 0AC8  
                        l3780 0712                          l3772 06E2                          l3764 06A4  
                        l3756 0684                          l3748 0664                          l2982 1598  
                        l2974 1578                          l2966 154A                          l2958 1534  
                        l2798 1B38                          l2878 1B04                          l2886 21EA  
                        l3694 1264                          l3686 123A                          l3598 0DE8  
                        l2894 19EA                          l3678 120E                          l3926 0ABC  
                        l3918 0A80                          l3870 0974                          l3862 0940  
                        l3854 090A                          l3846 08EE                          l3838 08B6  
                        l3790 0754                          l3782 072A                          l3774 06F4  
                        l3766 06B8                          l3758 068C                          l3934 21CE  
                        l2984 159E                          l2976 157A                          l2992 1428  
                        l2888 21E2                          l3688 123E                          l2896 19F2  
                        l3928 0AC0                          l3880 09C2                          l3872 0990  
                        l3864 0952                          l3856 0916                          l3848 08F6  
                        l3792 076C                          l3784 0736                          l3776 0700  
                        l3768 06C6                          l3936 21D2                          l2986 15AA  
                        l2978 157C                          l2994 142E                          l3698 129A  
                        l2898 19FE                          l3890 09F2                          l3882 09C6  
                        l3866 095E                          l3858 0924                          l3874 09A4  
                        l3794 0774                          l3786 0742                          l3778 070E  
                        l2996 143A                          l2988 1402                          l3892 0A00  
                        l3876 09A8                          l3868 0970                          l3788 0750  
                        l2998 143E                          l3894 0A04                          l3878 09B4  
                        l3886 09E2                          l3798 07A8                          l3888 09E6  
                        l3898 0A20                          STR_1 0601                          STR_2 0601  
                        STR_3 0601                          STR_4 0601                          u2000 1B82  
                        u2001 1B7E                          u2010 1B98                          u2011 1B94  
                        u2020 1BAA                          u2100 1B16                          u2021 1BA6  
                        u2101 1B12                          u2030 1BCA                          u2110 1B2E  
                        u2031 1BC6                          u2111 1B2A                          u2200 1534  
                        u2040 1ED0                          u3000 2046                          u2120 19EA  
                        u2201 1530                          u2041 1ECC                          u3001 2042  
                        u2121 19E6                          u2210 1558                          u2050 1EF8  
                        u3010 1036                          u2130 1A24                          u2211 1554  
                        u2051 1EF4                          u3011 1032                          u2131 1A20  
                        u2220 1566                          u2300 1490                          u3100 10E8  
                        u3020 1060                          u2060 1E42                          u2140 1F12  
                        u2221 1562                          u2301 148C                          u3101 10E4  
                        u3021 105C                          u2061 1E3E                          u2141 1F0E  
                        u2230 158A                          u2310 14B4                          u3030 107A  
                        u2070 1E62                          u2150 1F20                          u3110 0F22  
                        u2231 1586                          u2311 14B0                          u3031 1076  
                        u2071 1E5E                          u2151 1F1C                          u3111 0F1E  
                        u2240 1598                          u2320 14C2                          u2400 13EC  
                        u2080 1A92                          u3040 1088                          u2160 1F46  
                        u3200 0FD4                          u3120 0F4C                          u2241 1594  
                        u2321 14BE                          u2401 13E8                          u2081 1A8E  
                        u3041 1084                          u2161 1F42                          u3201 0FD0  
                        u3121 0F48                          u2170 14F0                          u2250 141A  
                        u2330 1344                          u2410 190E                          u2090 1AD0  
                        u3050 1096                          u3210 0E04                          u3130 0F66  
                        u2171 14EC                          u2251 1416                          u2331 1340  
                        u2411 190A                          u2091 1ACC                          u3051 1092  
                        u3211 0E00                          u3131 0F62                          u2180 14FE  
                        u2260 1428                          u2340 1352                          u2420 191C  
                        u3060 10A4                          u2500 0B30                          u3300 0EB6  
                        u3220 0E2E                          u3140 0F74                          u2181 14FA  
                        u2261 1424                          u2341 134E                          u2421 1918  
                        u3061 10A0                          u2501 0B2C                          u3301 0EB2  
                        u3221 0E2A                          u3141 0F70                          u2190 1526  
                        u2270 1450                          u2350 137A                          u2430 1940  
                        u3070 10B2                          u2510 0B70                          u3230 0E48  
                        u3310 114A                          u3150 0F82                          u2191 1522  
                        u2271 144C                          u2351 1376                          u2431 193C  
                        u3071 10AE                          u2511 0B6C                          u3231 0E44  
                        u3311 1146                          u3151 0F7E                          u2280 145E  
                        u2360 1388                          u2440 194E                          u3080 10C4  
                        u2600 0D52                          u2520 0BC4                          u3240 0E56  
                        u3400 11FC                          u3320 1174                          u3160 0F90  
                        u2281 145A                          u2361 1384                          u2441 194A  
                        u3081 10C0                          u2601 0D4E                          u2521 0BC0  
                        u3241 0E52                          u3401 11F8                          u3321 1170  
                        u3161 0F8C                          u2290 1482                          u2370 13AC  
                        u2450 1972                          u3090 10D6                          u2610 0DAA  
                        u2530 0BDA                          u3410 1256                          u3250 0E64  
                        u3330 118E                          u3170 0F9E                          u2291 147E  
                        u2371 13A8                          u2451 196E                          u3091 10D2  
                        u2611 0DA6                          u2531 0BD6                          u3411 1252  
                        u3251 0E60                          u3331 118A                          u3171 0F9A  
                        u1900 20CE                          u2380 13BA                          u2460 1980  
                        u2620 0DC4                          u2540 0C1A                          u3500 1308  
                        u3420 1280                          u2700 18E0                          u3260 0E72  
                        u3340 119C                          u3180 0FB0                          u1901 20CA  
                        u2381 13B6                          u2461 197C                          u2621 0DC0  
                        u2541 0C16                          u3501 1304                          u3421 127C  
                        u2701 18DC                          u3261 0E6E                          u3341 1198  
                        u3181 0FAC                          u1910 1E94                          u2390 13DE  
                        u2470 19A4                          u2550 0C5E                          u3430 129A  
                        u2630 183C                          u2710 176A                          u3270 0E80  
                        u3350 11AA                          u3190 0FC2                          u3510 06E2  
                        u1911 1E90                          u2391 13DA                          u2471 19A0  
                        u2551 0C5A                          u3431 1296                          u2631 1838  
                        u2711 1766                          u3271 0E7C                          u3351 11A6  
                        u3191 0FBE                          u3511 06DE                          u1920 1EB4  
                        u2480 19B2                          u2560 0CB6                          u3440 12A8  
                        u2640 184A                          u2720 1778                          u2800 16A6  
                        u3280 0E92                          u3360 11B8                          u3600 07F2  
                        u3520 072A                          u1921 1EB0                          u2481 19AE  
                        u2561 0CB2                          u3441 12A4                          u2641 1846  
                        u2721 1774                          u2801 16A2                          u3281 0E8E  
                        u3361 11B4                          u3601 07EE                          u3521 0726  
                        u1850 20E8                          u1930 21A0                          u2570 0CC8  
                        u2490 0B12                          u3450 12B6                          u2650 186E  
                        u2730 179C                          u2810 16CA                          u3290 0EA4  
                        u3370 11C6                          u3610 0804                          u3530 076C  
                        u1851 20E4                          u1931 219C                          u2571 0CC4  
                        u2491 0B0E                          u3451 12B2                          u2651 186A  
                        u2731 1798                          u2811 16C6                          u3291 0EA0  
                        u3371 11C2                          u3611 0800                          u3531 0768  
                        u1860 20F6                          u2580 0CDC                          u3460 12C4  
                        u2660 187C                          u2740 17AA                          u2820 16D8  
                        u2900 1606                          u1940 1BFE                          u3380 11D8  
                        u3620 0852                          u3540 078E                          u1861 20F2  
                        u2581 0CD8                          u3461 12C0                          u2661 1878  
                        u2741 17A6                          u2821 16D4                          u2901 1602  
                        u1941 1BFA                          u3381 11D4                          u3621 084E  
                        u3541 078A                          u1870 2104                          u2590 0D16  
                        u3470 12D2                          u2670 18A0                          u2750 17CE  
                        u2830 16FC                          u2910 162A                          u1950 1C0E  
                        u3390 11EA                          u3630 0890                          u3550 07A8  
                        u1871 2100                          u2591 0D12                          u3471 12CE  
                        u2671 189C                          u2751 17CA                          u2831 16F8  
                        u2911 1626                          u1951 1C0A                          u3391 11E6  
                        u3631 088C                          u3551 07A4                          u1880 2120  
                        u3480 12E4                          u2680 18AE                          u2760 17DC  
                        u2840 170A                          u2920 1638                          u1960 1C34  
                        u3640 08D2                          u3560 07B6                          u1881 211C  
                        u3481 12E0                          u2681 18AA                          u2761 17D8  
                        u2841 1706                          u2921 1634                          u1961 1C30  
                        u3641 08CE                          u3561 07B2                          u1890 20BE  
                        u3490 12F6                          u2690 18D2                          u2770 1800  
                        u2850 172E                          u2930 165C                          u1970 1C66  
                        u3650 0940                          u3570 07C4                          u1891 20BA  
                        u3491 12F2                          u2691 18CE                          u2771 17FC  
                        u2851 172A                          u2931 1658                          u1971 1C62  
                        u3651 093C                          u3571 07C0                          u1980 209E  
                        u2780 180E                          u2860 173C                          u2940 166A  
                        u3660 0990                          u3580 07D2                          u1981 209A  
                        u2781 180A                          u2861 1738                          u2941 1666  
                        u3661 098C                          u3581 07CE                          u1990 1B52  
                        u2790 1698                          u2870 15C6                          u2950 2006  
                        u3670 09DE                          u3590 07E0                          u1991 1B4E  
                        u2791 1694                          u2871 15C2                          u2951 2002  
                        u3671 09DA                          u3591 07DC                          u2960 1DD6  
                        u2880 15D4                          u3680 0A1C                          u2961 1DD2  
                        u2881 15D0                          u3681 0A18                          u2970 1E02  
                        u2890 15F8                          u2971 1DFE                          u2891 15F4  
                        u2980 2020                          u2981 201C                          u2990 202E  
                        u2991 202A                          _col1 14D8                          _col2 1402  
                        _col3 132C                          _col4 18F6                          _col5 1824  
                        _col6 1752                          _col7 1680                          _col8 15AE  
                        _dbuf 0100                          _main 21CE                          _prec 004B  
            __end_of_I2C_Init 21BA                          fsr1h 0FE2                          fsr2h 0FDA  
                        indf2 0FDF                          fsr1l 0FE1                          fsr2l 0FD9  
            __end_of_I2C_Stop 21A6                          start 0000                  ___param_bank 0000  
                       ?_col1 0001                         ?_col2 0001                         ?_col3 0001  
                       ?_col4 0001                         ?_col5 0001                         ?_col6 0001  
                       ?_col7 0001                         ?_col8 0001                         ?_main 0001  
                       _EEADR 0FA9                  vfpfcnvrt@fmt 000A                         _TRISA 0F92  
                       _TRISB 0F93                         _TRISD 0F95               __end_of_lcd_cmd 1F8E  
             __end_of_compare 0DCE                  compare@count 004D                         _delay 1E0C  
                       _flags 0051                         _fputc 1BEE                         _wait1 0028  
                       _wait2 00ED             __end_of_I2C_Ready 2108                         _width 0049  
                       _putch 21F8             ?_admin_validation 000E             __end_of_I2C_Start 20DA  
           __end_of_I2C_Write 212A                         tablat 0FF5            ??_admin_validation 0010  
                       status 0FD8               __end_of_sprintf 207E               __end_of_strncmp 1BEE  
             __initialization 1D30                  __end_of_col1 15AE                  __end_of_col2 14D8  
                __end_of_col3 1402                  __end_of_col4 19C8                  __end_of_col5 18F6  
                __end_of_col6 1824                  __end_of_col7 1752                  __end_of_col8 1680  
            ?_user_validation 000E                  __end_of_main 21DA                        ??_col1 0008  
                      ??_col2 0008                        ??_col3 0008                        ??_col4 0008  
                      ??_col5 0008                        ??_col6 0008                        ??_col7 0008  
                      ??_col8 0008                        ??_main 0028                 __activetblptr 0002  
           _new_user_passcode 003C                        ?_delay 0001                        _ADCON1 0FC1  
                      ?_fputc 0001                        _EEDATA 0FA8                        _EECON2 0FA7  
                      ?_putch 0001                        _SSPADD 0FC8                        _SSPBUF 0FC9  
            __end_of_lcd_data 1FD2                  vfprintf@cfmt 0010              __end_of_initBIOS 21F8  
                      _delay1 1E64                        _delay2 1DB2                        delay@a 0001  
                      delay@i 0006                        delay@j 0004                        clear_0 1D96  
                      clear_1 1DA2                        isa$std 0001                        _runApp 060C  
                   ??_lcd_cmd 0005                        _strchr 1EB6                        _strlen 207E  
                   ??_compare 000E                        _strstr 1A82                        fputc@c 0001  
                __pdataCOMRAM 0028                     ?_I2C_Init 0001                     ?_I2C_Stop 0001  
                __mediumconst 0000                        tblptrh 0FF7                        tblptrl 0FF6  
                      tblptru 0FF8                _password_match 0131                        putch@c 0001  
            __end_of_vfprintf 2010                     ??_sprintf 001B                     ??_strncmp 0006  
                  __accesstop 0060       __end_of__initialization 1DA8             ?_read_from_eeprom 0001  
               ___rparam_used 0001            ??_read_from_eeprom 0001                __pcstackCOMRAM 0001  
                __pidataBANK0 1C98                  __pidataBANK1 214B                 __end_of_delay 1E64  
               __end_of_fputc 1C98                 __end_of_putch 21FA                    ??_I2C_Init 0001  
                  ??_I2C_Stop 0001                  ?_unlock_door 0001                       ??_delay 0003  
                     ??_fputc 0004                       ??_putch 0001                    __pbssBANK1 0100  
              _enter_pass_msg 008D                       ?_delay1 0001                       ?_delay2 0001  
       __end_of_motor_forward 21F2                       ?_runApp 0001         __end_of_motor_reverse 21E2  
                     ?_strchr 0001                       ?_strlen 0001                       ?_strstr 0008  
           ??_write_to_eeprom 0002                       _SSPCON1 0FC6                       _SSPCON2 0FC5  
                   ?_lcd_data 0001            _admin_password_msg 009C                       _SSPSTAT 0FC7  
                   ?_initBIOS 0001                     _I2C_Ready 20DA                     _I2C_Start 20AC  
                   _I2C_Write 2108                       __Hparam 0000                       __Lparam 0000  
           __end_of_lcd_reset 218C                    _initPinmap 21BA                     ?_vfprintf 000D  
                __psmallconst 0600                       _address 0052                       __pcinit 1D30  
                     __ramtop 0600                       __ptext0 21CE                       __ptext1 060C  
                     __ptext2 0EEC                       __ptext3 1114                       __ptext4 204A  
                     __ptext5 1FD2                       __ptext6 19C8                       __ptext7 1BEE  
                     __ptext8 21F8                       __ptext9 0DCE                       _lcd_cmd 1F4A  
                     _compare 0AE8                       delay2@a 0001                       delay1@i 0001  
                     delay1@j 0003                       delay2@i 0003                       delay2@j 0005  
               _type_passcode 0044             __end_of_lock_door 132C                    ??_lcd_data 0005  
                     _sprintf 204A                       _strncmp 1B38          end_of_initialization 1DA8  
                  ??_initBIOS 0001                       fputc@fp 0003                 __Lmediumconst 0000  
                  ?_I2C_Ready 0001                    ?_I2C_Start 0001                    ?_I2C_Write 0001  
           __end_of_motor_off 21EA             __end_of_vfpfcnvrt 1A82             _new_pass_set_msg1 00C8  
           _new_pass_set_msg2 0120        write_to_eeprom@address 0002                       postdec1 0FE5  
                     postdec2 0FDD                       postinc0 0FEE                       postinc1 0FE6  
                     postinc2 0FDE                    ??_vfprintf 0010                       strchr@c 0003  
                     strchr@s 0001                       strlen@a 0003                       strlen@s 0001  
                     strstr@h 0008                       strstr@n 000A                     _PORTAbits 0F80  
                   _PORTBbits 0F81                     _PORTDbits 0F83                    _unlock_msg 00E2  
                 ?_initPinmap 0001                   vfpfcnvrt@ap 000B                   vfpfcnvrt@fp 0009  
              __end_of_delay1 1EB6                __end_of_delay2 1E0C                 __pidataCOMRAM 212A  
              __end_of_runApp 0AE8                __end_of_strchr 1F02                __end_of_strlen 20AC  
              __end_of_strstr 1B38           start_initialization 1D30                   ??_I2C_Ready 0001  
                 ??_I2C_Start 0002                   ??_I2C_Write 0001                   vfprintf@fmt 000E  
            _admin_validation 1000                      ??_delay1 0001                      ??_delay2 0003  
                 __pdataBANK0 0060                   __pdataBANK1 0120               _write_to_eeprom 1F02  
                    ??_runApp 0028                      ??_strchr 0005                      ??_strlen 0003  
                    ??_strstr 000B                   __pbssCOMRAM 0049             ??_user_validation 0010  
                   _lcd_reset 216C                      ?_lcd_cmd 0001                      ?_compare 0001  
                 __smallconst 0600                      _I2C_Init 21A6                      _I2C_Stop 218C  
            user_validation@q 0010                      ?_sprintf 0011                      ?_strncmp 0001  
                   _lock_door 1220       __end_of_write_to_eeprom 1F4A                      _PIR1bits 0F9E  
                    _PIR2bits 0FA1                     _motor_off 21E2             admin_validation@p 0010  
                   _vfpfcnvrt 19C8                    ?_lcd_reset 0001              _read_from_eeprom 2010  
                _pass_set_msg 00D5             _set_user_passcode 0038             _set_user_password 0DCE  
                  vfpfcnvrt@c 000C                   _INTCON2bits 0FF1                     copy_data0 1D44  
                   copy_data1 1D64                     copy_data2 1D84                    ?_lock_door 0001  
          ?_set_user_password 0001           _enter_user_Pass_msg 006F  I2C_Start@slave_write_address 0002  
                  _EECON1bits 0FA6            _password_not_match 0060           ??_set_user_password 0008  
                    __Hrparam 0000                    vfprintf@ap 000F                      __Lrparam 0000  
                  vfprintf@fp 000D                  ??_initPinmap 0001                    ?_motor_off 0001  
     _renter_old_password_msg 007E                 I2C_Write@data 0001                    ?_vfpfcnvrt 0009  
               _motor_forward 21EA                 _motor_reverse 21DA                    sprintf@fmt 0012  
   __end_of_set_user_password 0EEC                 ??_unlock_door 0015                      __ptext10 1F02  
                    __ptext11 15AE                      __ptext20 21EA                      __ptext12 1680  
                    __ptext21 216C                      __ptext13 1752                      __ptext30 18F6  
                    __ptext22 1E0C                      __ptext14 1824                      __ptext31 132C  
                    __ptext23 1DB2                      __ptext15 2010                      __ptext40 21A6  
                    __ptext32 1402                      __ptext24 1000                      __ptext16 1220  
                    __ptext41 21F2                      __ptext33 14D8                      __ptext25 1A82  
                    __ptext17 0AE8                      __ptext42 21BA                      __ptext34 1F8E  
                    __ptext26 1B38                      __ptext18 21DA                      __ptext35 1E64  
                    __ptext27 207E                      __ptext19 21E2                      __ptext36 218C  
                    __ptext28 1EB6                      __ptext37 20AC                      __ptext29 1F4A  
                    __ptext38 2108                      __ptext39 20DA                      _lcd_data 1F8E  
    __end_of_admin_validation 1114                      _initBIOS 21F2            __end_of_initPinmap 21CE  
                    _lock_msg 0031              ?_write_to_eeprom 0001        admin_validation@adminP 000E  
                    isa$xinst 0000       read_from_eeprom@address 0001                      _vfprintf 1FD2  
              ?_motor_forward 0001                      compare@c 000E                      compare@j 000F  
                    compare@k 0011                      compare@p 0013                   ??_lcd_reset 0008  
             _user_validation 0EEC                ?_motor_reverse 0001                _admin_passcode 0040  
           _old_user_password 0059                _admin_password 0055                   ??_lock_door 0015  
                   sprintf@ap 001B           __end_of_unlock_door 1220           write_to_eeprom@data 0001  
                 ??_motor_off 0001                   ??_vfpfcnvrt 000C                      sprintf@f 001C  
                    sprintf@s 0011                      strncmp@l 0001                      strncmp@n 0004  
                    strncmp@r 0003                   _SSPCON2bits 0FC5                      strstr@nl 000C  
    __end_of_read_from_eeprom 204A  
